
kernel.bin:     file format elf32-i386


Disassembly of section .text:

00100000 <_start-0x30>:
  100000:	02 b0 ad 1b 03 00    	add    0x31bad(%eax),%dh
  100006:	00 00                	add    %al,(%eax)
  100008:	fb                   	sti
  100009:	4f                   	dec    %edi
  10000a:	52                   	push   %edx
  10000b:	e4 00                	in     $0x0,%al
	...
  100025:	04 00                	add    $0x0,%al
  100027:	00 00                	add    %al,(%eax)
  100029:	03 00                	add    (%eax),%eax
  10002b:	00 20                	add    %ah,(%eax)
  10002d:	00 00                	add    %al,(%eax)
	...

00100030 <_start>:
  100030:	bc 00 80 11 00       	mov    $0x118000,%esp
  100035:	89 de                	mov    %ebx,%esi
  100037:	8b 06                	mov    (%esi),%eax
  100039:	a9 00 10 00 00       	test   $0x1000,%eax
  10003e:	74 28                	je     100068 <skip_vbe_setup>
  100040:	8b 46 58             	mov    0x58(%esi),%eax
  100043:	a3 00 70 10 00       	mov    %eax,0x107000
  100048:	8b 46 64             	mov    0x64(%esi),%eax
  10004b:	a3 04 70 10 00       	mov    %eax,0x107004
  100050:	8b 46 68             	mov    0x68(%esi),%eax
  100053:	a3 08 70 10 00       	mov    %eax,0x107008
  100058:	8b 46 6c             	mov    0x6c(%esi),%eax
  10005b:	a3 0c 70 10 00       	mov    %eax,0x10700c
  100060:	8b 46 70             	mov    0x70(%esi),%eax
  100063:	a3 10 70 10 00       	mov    %eax,0x107010

00100068 <skip_vbe_setup>:
  100068:	89 f3                	mov    %esi,%ebx
  10006a:	b8 02 b0 ad 2b       	mov    $0x2badb002,%eax
  10006f:	50                   	push   %eax
  100070:	53                   	push   %ebx
  100071:	e8 0d 00 00 00       	call   100083 <load_sysman_module>
  100076:	5b                   	pop    %ebx
  100077:	58                   	pop    %eax
  100078:	53                   	push   %ebx
  100079:	50                   	push   %eax
  10007a:	e8 a0 01 00 00       	call   10021f <kernel_main>
  10007f:	fa                   	cli
  100080:	f4                   	hlt
  100081:	eb fe                	jmp    100081 <skip_vbe_setup+0x19>

00100083 <load_sysman_module>:
  100083:	55                   	push   %ebp
  100084:	89 e5                	mov    %esp,%ebp
  100086:	83 ec 08             	sub    $0x8,%esp
  100089:	89 d8                	mov    %ebx,%eax
  10008b:	8b 08                	mov    (%eax),%ecx
  10008d:	f7 c1 08 00 00 00    	test   $0x8,%ecx
  100093:	74 1b                	je     1000b0 <load_sysman_done>
  100095:	8b 48 14             	mov    0x14(%eax),%ecx
  100098:	85 c9                	test   %ecx,%ecx
  10009a:	74 14                	je     1000b0 <load_sysman_done>
  10009c:	8b 40 18             	mov    0x18(%eax),%eax
  10009f:	8b 30                	mov    (%eax),%esi
  1000a1:	8b 50 04             	mov    0x4(%eax),%edx
  1000a4:	89 d1                	mov    %edx,%ecx
  1000a6:	29 f1                	sub    %esi,%ecx
  1000a8:	bf 00 00 11 00       	mov    $0x110000,%edi
  1000ad:	fc                   	cld
  1000ae:	f3 a4                	rep movsb %ds:(%esi),%es:(%edi)

001000b0 <load_sysman_done>:
  1000b0:	83 c4 08             	add    $0x8,%esp
  1000b3:	5d                   	pop    %ebp
  1000b4:	c3                   	ret

001000b5 <outb>:
  1000b5:	55                   	push   %ebp
  1000b6:	89 e5                	mov    %esp,%ebp
  1000b8:	83 ec 08             	sub    $0x8,%esp
  1000bb:	8b 55 08             	mov    0x8(%ebp),%edx
  1000be:	8b 45 0c             	mov    0xc(%ebp),%eax
  1000c1:	66 89 55 fc          	mov    %dx,-0x4(%ebp)
  1000c5:	88 45 f8             	mov    %al,-0x8(%ebp)
  1000c8:	0f b6 45 f8          	movzbl -0x8(%ebp),%eax
  1000cc:	0f b7 55 fc          	movzwl -0x4(%ebp),%edx
  1000d0:	ee                   	out    %al,(%dx)
  1000d1:	90                   	nop
  1000d2:	c9                   	leave
  1000d3:	c3                   	ret

001000d4 <inb>:
  1000d4:	55                   	push   %ebp
  1000d5:	89 e5                	mov    %esp,%ebp
  1000d7:	83 ec 14             	sub    $0x14,%esp
  1000da:	8b 45 08             	mov    0x8(%ebp),%eax
  1000dd:	66 89 45 ec          	mov    %ax,-0x14(%ebp)
  1000e1:	0f b7 45 ec          	movzwl -0x14(%ebp),%eax
  1000e5:	89 c2                	mov    %eax,%edx
  1000e7:	ec                   	in     (%dx),%al
  1000e8:	88 45 ff             	mov    %al,-0x1(%ebp)
  1000eb:	0f b6 45 ff          	movzbl -0x1(%ebp),%eax
  1000ef:	c9                   	leave
  1000f0:	c3                   	ret

001000f1 <serial_putc>:
  1000f1:	55                   	push   %ebp
  1000f2:	89 e5                	mov    %esp,%ebp
  1000f4:	83 ec 04             	sub    $0x4,%esp
  1000f7:	8b 45 08             	mov    0x8(%ebp),%eax
  1000fa:	88 45 fc             	mov    %al,-0x4(%ebp)
  1000fd:	90                   	nop
  1000fe:	68 fd 03 00 00       	push   $0x3fd
  100103:	e8 cc ff ff ff       	call   1000d4 <inb>
  100108:	83 c4 04             	add    $0x4,%esp
  10010b:	0f b6 c0             	movzbl %al,%eax
  10010e:	83 e0 20             	and    $0x20,%eax
  100111:	85 c0                	test   %eax,%eax
  100113:	74 e9                	je     1000fe <serial_putc+0xd>
  100115:	0f b6 45 fc          	movzbl -0x4(%ebp),%eax
  100119:	0f b6 c0             	movzbl %al,%eax
  10011c:	50                   	push   %eax
  10011d:	68 f8 03 00 00       	push   $0x3f8
  100122:	e8 8e ff ff ff       	call   1000b5 <outb>
  100127:	83 c4 08             	add    $0x8,%esp
  10012a:	90                   	nop
  10012b:	c9                   	leave
  10012c:	c3                   	ret

0010012d <serial_puts>:
  10012d:	55                   	push   %ebp
  10012e:	89 e5                	mov    %esp,%ebp
  100130:	eb 2c                	jmp    10015e <serial_puts+0x31>
  100132:	8b 45 08             	mov    0x8(%ebp),%eax
  100135:	0f b6 00             	movzbl (%eax),%eax
  100138:	3c 0a                	cmp    $0xa,%al
  10013a:	75 0a                	jne    100146 <serial_puts+0x19>
  10013c:	6a 0d                	push   $0xd
  10013e:	e8 ae ff ff ff       	call   1000f1 <serial_putc>
  100143:	83 c4 04             	add    $0x4,%esp
  100146:	8b 45 08             	mov    0x8(%ebp),%eax
  100149:	8d 50 01             	lea    0x1(%eax),%edx
  10014c:	89 55 08             	mov    %edx,0x8(%ebp)
  10014f:	0f b6 00             	movzbl (%eax),%eax
  100152:	0f be c0             	movsbl %al,%eax
  100155:	50                   	push   %eax
  100156:	e8 96 ff ff ff       	call   1000f1 <serial_putc>
  10015b:	83 c4 04             	add    $0x4,%esp
  10015e:	8b 45 08             	mov    0x8(%ebp),%eax
  100161:	0f b6 00             	movzbl (%eax),%eax
  100164:	84 c0                	test   %al,%al
  100166:	75 ca                	jne    100132 <serial_puts+0x5>
  100168:	90                   	nop
  100169:	90                   	nop
  10016a:	c9                   	leave
  10016b:	c3                   	ret

0010016c <pic_remap>:
  10016c:	55                   	push   %ebp
  10016d:	89 e5                	mov    %esp,%ebp
  10016f:	83 ec 10             	sub    $0x10,%esp
  100172:	6a 21                	push   $0x21
  100174:	e8 5b ff ff ff       	call   1000d4 <inb>
  100179:	83 c4 04             	add    $0x4,%esp
  10017c:	88 45 ff             	mov    %al,-0x1(%ebp)
  10017f:	68 a1 00 00 00       	push   $0xa1
  100184:	e8 4b ff ff ff       	call   1000d4 <inb>
  100189:	83 c4 04             	add    $0x4,%esp
  10018c:	88 45 fe             	mov    %al,-0x2(%ebp)
  10018f:	6a 11                	push   $0x11
  100191:	6a 20                	push   $0x20
  100193:	e8 1d ff ff ff       	call   1000b5 <outb>
  100198:	83 c4 08             	add    $0x8,%esp
  10019b:	6a 11                	push   $0x11
  10019d:	68 a0 00 00 00       	push   $0xa0
  1001a2:	e8 0e ff ff ff       	call   1000b5 <outb>
  1001a7:	83 c4 08             	add    $0x8,%esp
  1001aa:	6a 20                	push   $0x20
  1001ac:	6a 21                	push   $0x21
  1001ae:	e8 02 ff ff ff       	call   1000b5 <outb>
  1001b3:	83 c4 08             	add    $0x8,%esp
  1001b6:	6a 28                	push   $0x28
  1001b8:	68 a1 00 00 00       	push   $0xa1
  1001bd:	e8 f3 fe ff ff       	call   1000b5 <outb>
  1001c2:	83 c4 08             	add    $0x8,%esp
  1001c5:	6a 04                	push   $0x4
  1001c7:	6a 21                	push   $0x21
  1001c9:	e8 e7 fe ff ff       	call   1000b5 <outb>
  1001ce:	83 c4 08             	add    $0x8,%esp
  1001d1:	6a 02                	push   $0x2
  1001d3:	68 a1 00 00 00       	push   $0xa1
  1001d8:	e8 d8 fe ff ff       	call   1000b5 <outb>
  1001dd:	83 c4 08             	add    $0x8,%esp
  1001e0:	6a 01                	push   $0x1
  1001e2:	6a 21                	push   $0x21
  1001e4:	e8 cc fe ff ff       	call   1000b5 <outb>
  1001e9:	83 c4 08             	add    $0x8,%esp
  1001ec:	6a 01                	push   $0x1
  1001ee:	68 a1 00 00 00       	push   $0xa1
  1001f3:	e8 bd fe ff ff       	call   1000b5 <outb>
  1001f8:	83 c4 08             	add    $0x8,%esp
  1001fb:	0f b6 45 ff          	movzbl -0x1(%ebp),%eax
  1001ff:	50                   	push   %eax
  100200:	6a 21                	push   $0x21
  100202:	e8 ae fe ff ff       	call   1000b5 <outb>
  100207:	83 c4 08             	add    $0x8,%esp
  10020a:	0f b6 45 fe          	movzbl -0x2(%ebp),%eax
  10020e:	50                   	push   %eax
  10020f:	68 a1 00 00 00       	push   $0xa1
  100214:	e8 9c fe ff ff       	call   1000b5 <outb>
  100219:	83 c4 08             	add    $0x8,%esp
  10021c:	90                   	nop
  10021d:	c9                   	leave
  10021e:	c3                   	ret

0010021f <kernel_main>:
  10021f:	55                   	push   %ebp
  100220:	89 e5                	mov    %esp,%ebp
  100222:	83 ec 28             	sub    $0x28,%esp
  100225:	83 ec 0c             	sub    $0xc,%esp
  100228:	68 e0 4d 10 00       	push   $0x104de0
  10022d:	e8 e8 03 00 00       	call   10061a <vga_print>
  100232:	83 c4 10             	add    $0x10,%esp
  100235:	e8 71 13 00 00       	call   1015ab <bga_is_available>
  10023a:	85 c0                	test   %eax,%eax
  10023c:	75 03                	jne    100241 <kernel_main+0x22>
  10023e:	f4                   	hlt
  10023f:	eb fd                	jmp    10023e <kernel_main+0x1f>
  100241:	e8 69 14 00 00       	call   1016af <bga_get_framebuffer_addr>
  100246:	89 45 f0             	mov    %eax,-0x10(%ebp)
  100249:	c7 45 ec 00 00 30 00 	movl   $0x300000,-0x14(%ebp)
  100250:	83 ec 0c             	sub    $0xc,%esp
  100253:	ff 75 0c             	push   0xc(%ebp)
  100256:	e8 22 3f 00 00       	call   10417d <pmm_init>
  10025b:	83 c4 10             	add    $0x10,%esp
  10025e:	85 c0                	test   %eax,%eax
  100260:	75 03                	jne    100265 <kernel_main+0x46>
  100262:	f4                   	hlt
  100263:	eb fd                	jmp    100262 <kernel_main+0x43>
  100265:	8b 55 f0             	mov    -0x10(%ebp),%edx
  100268:	8b 45 ec             	mov    -0x14(%ebp),%eax
  10026b:	01 d0                	add    %edx,%eax
  10026d:	83 ec 08             	sub    $0x8,%esp
  100270:	50                   	push   %eax
  100271:	ff 75 f0             	push   -0x10(%ebp)
  100274:	e8 8c 40 00 00       	call   104305 <pmm_mark_region_used>
  100279:	83 c4 10             	add    $0x10,%esp
  10027c:	83 ec 0c             	sub    $0xc,%esp
  10027f:	ff 75 0c             	push   0xc(%ebp)
  100282:	e8 d6 44 00 00       	call   10475d <paging_init>
  100287:	83 c4 10             	add    $0x10,%esp
  10028a:	85 c0                	test   %eax,%eax
  10028c:	75 03                	jne    100291 <kernel_main+0x72>
  10028e:	f4                   	hlt
  10028f:	eb fd                	jmp    10028e <kernel_main+0x6f>
  100291:	8b 55 f0             	mov    -0x10(%ebp),%edx
  100294:	8b 45 ec             	mov    -0x14(%ebp),%eax
  100297:	01 c2                	add    %eax,%edx
  100299:	a1 60 89 11 00       	mov    0x118960,%eax
  10029e:	83 ec 04             	sub    $0x4,%esp
  1002a1:	52                   	push   %edx
  1002a2:	ff 75 f0             	push   -0x10(%ebp)
  1002a5:	50                   	push   %eax
  1002a6:	e8 84 43 00 00       	call   10462f <identity_map_region>
  1002ab:	83 c4 10             	add    $0x10,%esp
  1002ae:	e8 c8 2b 00 00       	call   102e7b <gdt_init>
  1002b3:	85 c0                	test   %eax,%eax
  1002b5:	74 09                	je     1002c0 <kernel_main+0xa1>
  1002b7:	e8 99 2c 00 00       	call   102f55 <gdt_load>
  1002bc:	85 c0                	test   %eax,%eax
  1002be:	75 03                	jne    1002c3 <kernel_main+0xa4>
  1002c0:	f4                   	hlt
  1002c1:	eb fd                	jmp    1002c0 <kernel_main+0xa1>
  1002c3:	e8 1d 2d 00 00       	call   102fe5 <idt_init>
  1002c8:	85 c0                	test   %eax,%eax
  1002ca:	74 09                	je     1002d5 <kernel_main+0xb6>
  1002cc:	e8 5b 2d 00 00       	call   10302c <idt_load>
  1002d1:	85 c0                	test   %eax,%eax
  1002d3:	75 03                	jne    1002d8 <kernel_main+0xb9>
  1002d5:	f4                   	hlt
  1002d6:	eb fd                	jmp    1002d5 <kernel_main+0xb6>
  1002d8:	e8 8f fe ff ff       	call   10016c <pic_remap>
  1002dd:	e8 5b 2d 00 00       	call   10303d <idt_install_exception_handlers>
  1002e2:	85 c0                	test   %eax,%eax
  1002e4:	75 03                	jne    1002e9 <kernel_main+0xca>
  1002e6:	f4                   	hlt
  1002e7:	eb fd                	jmp    1002e6 <kernel_main+0xc7>
  1002e9:	e8 f8 45 00 00       	call   1048e6 <kheap_init>
  1002ee:	e8 9b 47 00 00       	call   104a8e <process_manager_init>
  1002f3:	e8 0a 4a 00 00       	call   104d02 <scheduler_init>
  1002f8:	83 ec 0c             	sub    $0xc,%esp
  1002fb:	68 e8 03 00 00       	push   $0x3e8
  100300:	e8 83 49 00 00       	call   104c88 <pit_init>
  100305:	83 c4 10             	add    $0x10,%esp
  100308:	83 ec 0c             	sub    $0xc,%esp
  10030b:	68 f5 4d 10 00       	push   $0x104df5
  100310:	e8 18 fe ff ff       	call   10012d <serial_puts>
  100315:	83 c4 10             	add    $0x10,%esp
  100318:	c7 45 f4 00 00 00 00 	movl   $0x0,-0xc(%ebp)
  10031f:	e8 d5 1c 00 00       	call   101ff9 <mouse_is_available>
  100324:	85 c0                	test   %eax,%eax
  100326:	0f 84 ae 00 00 00    	je     1003da <kernel_main+0x1bb>
  10032c:	83 ec 0c             	sub    $0xc,%esp
  10032f:	68 14 4e 10 00       	push   $0x104e14
  100334:	e8 f4 fd ff ff       	call   10012d <serial_puts>
  100339:	83 c4 10             	add    $0x10,%esp
  10033c:	83 ec 0c             	sub    $0xc,%esp
  10033f:	68 3b 4e 10 00       	push   $0x104e3b
  100344:	e8 b7 05 00 00       	call   100900 <vga_puts>
  100349:	83 c4 10             	add    $0x10,%esp
  10034c:	e8 f3 2e 00 00       	call   103244 <idt_install_mouse_handler>
  100351:	83 ec 0c             	sub    $0xc,%esp
  100354:	68 5c 4e 10 00       	push   $0x104e5c
  100359:	e8 cf fd ff ff       	call   10012d <serial_puts>
  10035e:	83 c4 10             	add    $0x10,%esp
  100361:	83 ec 0c             	sub    $0xc,%esp
  100364:	68 7e 4e 10 00       	push   $0x104e7e
  100369:	e8 92 05 00 00       	call   100900 <vga_puts>
  10036e:	83 c4 10             	add    $0x10,%esp
  100371:	e8 aa 1c 00 00       	call   102020 <mouse_init>
  100376:	85 c0                	test   %eax,%eax
  100378:	74 3e                	je     1003b8 <kernel_main+0x199>
  10037a:	83 ec 08             	sub    $0x8,%esp
  10037d:	68 00 03 00 00       	push   $0x300
  100382:	68 00 04 00 00       	push   $0x400
  100387:	e8 f0 20 00 00       	call   10247c <mouse_set_bounds>
  10038c:	83 c4 10             	add    $0x10,%esp
  10038f:	83 ec 0c             	sub    $0xc,%esp
  100392:	68 97 4e 10 00       	push   $0x104e97
  100397:	e8 91 fd ff ff       	call   10012d <serial_puts>
  10039c:	83 c4 10             	add    $0x10,%esp
  10039f:	83 ec 0c             	sub    $0xc,%esp
  1003a2:	68 b3 4e 10 00       	push   $0x104eb3
  1003a7:	e8 54 05 00 00       	call   100900 <vga_puts>
  1003ac:	83 c4 10             	add    $0x10,%esp
  1003af:	c7 45 f4 01 00 00 00 	movl   $0x1,-0xc(%ebp)
  1003b6:	eb 42                	jmp    1003fa <kernel_main+0x1db>
  1003b8:	83 ec 0c             	sub    $0xc,%esp
  1003bb:	68 c6 4e 10 00       	push   $0x104ec6
  1003c0:	e8 68 fd ff ff       	call   10012d <serial_puts>
  1003c5:	83 c4 10             	add    $0x10,%esp
  1003c8:	83 ec 0c             	sub    $0xc,%esp
  1003cb:	68 e2 4e 10 00       	push   $0x104ee2
  1003d0:	e8 2b 05 00 00       	call   100900 <vga_puts>
  1003d5:	83 c4 10             	add    $0x10,%esp
  1003d8:	eb 20                	jmp    1003fa <kernel_main+0x1db>
  1003da:	83 ec 0c             	sub    $0xc,%esp
  1003dd:	68 f8 4e 10 00       	push   $0x104ef8
  1003e2:	e8 46 fd ff ff       	call   10012d <serial_puts>
  1003e7:	83 c4 10             	add    $0x10,%esp
  1003ea:	83 ec 0c             	sub    $0xc,%esp
  1003ed:	68 19 4f 10 00       	push   $0x104f19
  1003f2:	e8 09 05 00 00       	call   100900 <vga_puts>
  1003f7:	83 c4 10             	add    $0x10,%esp
  1003fa:	fb                   	sti
  1003fb:	83 ec 0c             	sub    $0xc,%esp
  1003fe:	6a 21                	push   $0x21
  100400:	e8 cf fc ff ff       	call   1000d4 <inb>
  100405:	83 c4 10             	add    $0x10,%esp
  100408:	88 45 eb             	mov    %al,-0x15(%ebp)
  10040b:	80 65 eb fe          	andb   $0xfe,-0x15(%ebp)
  10040f:	0f b6 45 eb          	movzbl -0x15(%ebp),%eax
  100413:	83 ec 08             	sub    $0x8,%esp
  100416:	50                   	push   %eax
  100417:	6a 21                	push   $0x21
  100419:	e8 97 fc ff ff       	call   1000b5 <outb>
  10041e:	83 c4 10             	add    $0x10,%esp
  100421:	83 7d f4 00          	cmpl   $0x0,-0xc(%ebp)
  100425:	74 4c                	je     100473 <kernel_main+0x254>
  100427:	83 ec 0c             	sub    $0xc,%esp
  10042a:	68 a1 00 00 00       	push   $0xa1
  10042f:	e8 a0 fc ff ff       	call   1000d4 <inb>
  100434:	83 c4 10             	add    $0x10,%esp
  100437:	88 45 ea             	mov    %al,-0x16(%ebp)
  10043a:	80 65 ea ef          	andb   $0xef,-0x16(%ebp)
  10043e:	0f b6 45 ea          	movzbl -0x16(%ebp),%eax
  100442:	83 ec 08             	sub    $0x8,%esp
  100445:	50                   	push   %eax
  100446:	68 a1 00 00 00       	push   $0xa1
  10044b:	e8 65 fc ff ff       	call   1000b5 <outb>
  100450:	83 c4 10             	add    $0x10,%esp
  100453:	83 ec 0c             	sub    $0xc,%esp
  100456:	68 34 4f 10 00       	push   $0x104f34
  10045b:	e8 cd fc ff ff       	call   10012d <serial_puts>
  100460:	83 c4 10             	add    $0x10,%esp
  100463:	83 ec 0c             	sub    $0xc,%esp
  100466:	68 68 4f 10 00       	push   $0x104f68
  10046b:	e8 90 04 00 00       	call   100900 <vga_puts>
  100470:	83 c4 10             	add    $0x10,%esp
  100473:	e8 f4 48 00 00       	call   104d6c <scheduler_enable>
  100478:	83 ec 0c             	sub    $0xc,%esp
  10047b:	68 91 4f 10 00       	push   $0x104f91
  100480:	e8 7b 04 00 00       	call   100900 <vga_puts>
  100485:	83 c4 10             	add    $0x10,%esp
  100488:	83 ec 04             	sub    $0x4,%esp
  10048b:	6a 20                	push   $0x20
  10048d:	68 00 03 00 00       	push   $0x300
  100492:	68 00 04 00 00       	push   $0x400
  100497:	e8 c4 12 00 00       	call   101760 <bga_init>
  10049c:	83 c4 10             	add    $0x10,%esp
  10049f:	85 c0                	test   %eax,%eax
  1004a1:	75 13                	jne    1004b6 <kernel_main+0x297>
  1004a3:	83 ec 0c             	sub    $0xc,%esp
  1004a6:	68 ad 4f 10 00       	push   $0x104fad
  1004ab:	e8 50 04 00 00       	call   100900 <vga_puts>
  1004b0:	83 c4 10             	add    $0x10,%esp
  1004b3:	f4                   	hlt
  1004b4:	eb fd                	jmp    1004b3 <kernel_main+0x294>
  1004b6:	83 ec 0c             	sub    $0xc,%esp
  1004b9:	68 c0 4f 10 00       	push   $0x104fc0
  1004be:	e8 3d 04 00 00       	call   100900 <vga_puts>
  1004c3:	83 c4 10             	add    $0x10,%esp
  1004c6:	8b 45 0c             	mov    0xc(%ebp),%eax
  1004c9:	8b 40 14             	mov    0x14(%eax),%eax
  1004cc:	83 f8 01             	cmp    $0x1,%eax
  1004cf:	76 32                	jbe    100503 <kernel_main+0x2e4>
  1004d1:	8b 45 0c             	mov    0xc(%ebp),%eax
  1004d4:	8b 40 18             	mov    0x18(%eax),%eax
  1004d7:	89 45 e4             	mov    %eax,-0x1c(%ebp)
  1004da:	8b 45 e4             	mov    -0x1c(%ebp),%eax
  1004dd:	8b 00                	mov    (%eax),%eax
  1004df:	89 45 e0             	mov    %eax,-0x20(%ebp)
  1004e2:	8b 45 e4             	mov    -0x1c(%ebp),%eax
  1004e5:	83 c0 10             	add    $0x10,%eax
  1004e8:	8b 00                	mov    (%eax),%eax
  1004ea:	89 45 dc             	mov    %eax,-0x24(%ebp)
  1004ed:	8b 45 dc             	mov    -0x24(%ebp),%eax
  1004f0:	a3 00 80 11 00       	mov    %eax,0x118000
  1004f5:	83 ec 0c             	sub    $0xc,%esp
  1004f8:	ff 75 e0             	push   -0x20(%ebp)
  1004fb:	e8 c2 45 00 00       	call   104ac2 <process_create_sysman>
  100500:	83 c4 10             	add    $0x10,%esp
  100503:	f4                   	hlt
  100504:	eb fd                	jmp    100503 <kernel_main+0x2e4>

00100506 <vga_clear>:
  100506:	55                   	push   %ebp
  100507:	89 e5                	mov    %esp,%ebp
  100509:	83 ec 10             	sub    $0x10,%esp
  10050c:	c7 45 fc 00 00 00 00 	movl   $0x0,-0x4(%ebp)
  100513:	eb 27                	jmp    10053c <vga_clear+0x36>
  100515:	0f b6 05 18 70 10 00 	movzbl 0x107018,%eax
  10051c:	0f b6 c0             	movzbl %al,%eax
  10051f:	c1 e0 08             	shl    $0x8,%eax
  100522:	83 c8 20             	or     $0x20,%eax
  100525:	89 c1                	mov    %eax,%ecx
  100527:	a1 14 70 10 00       	mov    0x107014,%eax
  10052c:	8b 55 fc             	mov    -0x4(%ebp),%edx
  10052f:	01 d2                	add    %edx,%edx
  100531:	01 d0                	add    %edx,%eax
  100533:	89 ca                	mov    %ecx,%edx
  100535:	66 89 10             	mov    %dx,(%eax)
  100538:	83 45 fc 01          	addl   $0x1,-0x4(%ebp)
  10053c:	81 7d fc cf 07 00 00 	cmpl   $0x7cf,-0x4(%ebp)
  100543:	7e d0                	jle    100515 <vga_clear+0xf>
  100545:	c7 05 08 80 11 00 00 	movl   $0x0,0x118008
  10054c:	00 00 00 
  10054f:	c7 05 0c 80 11 00 00 	movl   $0x0,0x11800c
  100556:	00 00 00 
  100559:	90                   	nop
  10055a:	c9                   	leave
  10055b:	c3                   	ret

0010055c <vga_set_color>:
  10055c:	55                   	push   %ebp
  10055d:	89 e5                	mov    %esp,%ebp
  10055f:	83 ec 08             	sub    $0x8,%esp
  100562:	8b 55 08             	mov    0x8(%ebp),%edx
  100565:	8b 45 0c             	mov    0xc(%ebp),%eax
  100568:	88 55 fc             	mov    %dl,-0x4(%ebp)
  10056b:	88 45 f8             	mov    %al,-0x8(%ebp)
  10056e:	0f b6 45 f8          	movzbl -0x8(%ebp),%eax
  100572:	c1 e0 04             	shl    $0x4,%eax
  100575:	89 c2                	mov    %eax,%edx
  100577:	0f b6 45 fc          	movzbl -0x4(%ebp),%eax
  10057b:	83 e0 0f             	and    $0xf,%eax
  10057e:	09 d0                	or     %edx,%eax
  100580:	a2 18 70 10 00       	mov    %al,0x107018
  100585:	90                   	nop
  100586:	c9                   	leave
  100587:	c3                   	ret

00100588 <vga_draw_rect>:
  100588:	55                   	push   %ebp
  100589:	89 e5                	mov    %esp,%ebp
  10058b:	83 ec 14             	sub    $0x14,%esp
  10058e:	8b 45 18             	mov    0x18(%ebp),%eax
  100591:	88 45 ec             	mov    %al,-0x14(%ebp)
  100594:	0f b6 45 ec          	movzbl -0x14(%ebp),%eax
  100598:	c1 e0 04             	shl    $0x4,%eax
  10059b:	89 c2                	mov    %eax,%edx
  10059d:	0f b6 45 ec          	movzbl -0x14(%ebp),%eax
  1005a1:	09 d0                	or     %edx,%eax
  1005a3:	88 45 f7             	mov    %al,-0x9(%ebp)
  1005a6:	8b 45 0c             	mov    0xc(%ebp),%eax
  1005a9:	89 45 fc             	mov    %eax,-0x4(%ebp)
  1005ac:	eb 56                	jmp    100604 <vga_draw_rect+0x7c>
  1005ae:	8b 45 08             	mov    0x8(%ebp),%eax
  1005b1:	89 45 f8             	mov    %eax,-0x8(%ebp)
  1005b4:	eb 37                	jmp    1005ed <vga_draw_rect+0x65>
  1005b6:	8b 55 fc             	mov    -0x4(%ebp),%edx
  1005b9:	89 d0                	mov    %edx,%eax
  1005bb:	c1 e0 02             	shl    $0x2,%eax
  1005be:	01 d0                	add    %edx,%eax
  1005c0:	c1 e0 04             	shl    $0x4,%eax
  1005c3:	89 c2                	mov    %eax,%edx
  1005c5:	8b 45 f8             	mov    -0x8(%ebp),%eax
  1005c8:	01 d0                	add    %edx,%eax
  1005ca:	89 45 f0             	mov    %eax,-0x10(%ebp)
  1005cd:	0f b6 45 f7          	movzbl -0x9(%ebp),%eax
  1005d1:	c1 e0 08             	shl    $0x8,%eax
  1005d4:	0c db                	or     $0xdb,%al
  1005d6:	89 c1                	mov    %eax,%ecx
  1005d8:	a1 14 70 10 00       	mov    0x107014,%eax
  1005dd:	8b 55 f0             	mov    -0x10(%ebp),%edx
  1005e0:	01 d2                	add    %edx,%edx
  1005e2:	01 d0                	add    %edx,%eax
  1005e4:	89 ca                	mov    %ecx,%edx
  1005e6:	66 89 10             	mov    %dx,(%eax)
  1005e9:	83 45 f8 01          	addl   $0x1,-0x8(%ebp)
  1005ed:	8b 55 08             	mov    0x8(%ebp),%edx
  1005f0:	8b 45 10             	mov    0x10(%ebp),%eax
  1005f3:	01 d0                	add    %edx,%eax
  1005f5:	39 45 f8             	cmp    %eax,-0x8(%ebp)
  1005f8:	7d 06                	jge    100600 <vga_draw_rect+0x78>
  1005fa:	83 7d f8 4f          	cmpl   $0x4f,-0x8(%ebp)
  1005fe:	7e b6                	jle    1005b6 <vga_draw_rect+0x2e>
  100600:	83 45 fc 01          	addl   $0x1,-0x4(%ebp)
  100604:	8b 55 0c             	mov    0xc(%ebp),%edx
  100607:	8b 45 14             	mov    0x14(%ebp),%eax
  10060a:	01 d0                	add    %edx,%eax
  10060c:	39 45 fc             	cmp    %eax,-0x4(%ebp)
  10060f:	7d 06                	jge    100617 <vga_draw_rect+0x8f>
  100611:	83 7d fc 18          	cmpl   $0x18,-0x4(%ebp)
  100615:	7e 97                	jle    1005ae <vga_draw_rect+0x26>
  100617:	90                   	nop
  100618:	c9                   	leave
  100619:	c3                   	ret

0010061a <vga_print>:
  10061a:	55                   	push   %ebp
  10061b:	89 e5                	mov    %esp,%ebp
  10061d:	83 ec 10             	sub    $0x10,%esp
  100620:	e9 cd 00 00 00       	jmp    1006f2 <vga_print+0xd8>
  100625:	8b 45 08             	mov    0x8(%ebp),%eax
  100628:	0f b6 00             	movzbl (%eax),%eax
  10062b:	3c 0a                	cmp    $0xa,%al
  10062d:	75 34                	jne    100663 <vga_print+0x49>
  10062f:	c7 05 08 80 11 00 00 	movl   $0x0,0x118008
  100636:	00 00 00 
  100639:	a1 0c 80 11 00       	mov    0x11800c,%eax
  10063e:	83 c0 01             	add    $0x1,%eax
  100641:	a3 0c 80 11 00       	mov    %eax,0x11800c
  100646:	a1 0c 80 11 00       	mov    0x11800c,%eax
  10064b:	83 f8 18             	cmp    $0x18,%eax
  10064e:	7e 0a                	jle    10065a <vga_print+0x40>
  100650:	c7 05 0c 80 11 00 18 	movl   $0x18,0x11800c
  100657:	00 00 00 
  10065a:	83 45 08 01          	addl   $0x1,0x8(%ebp)
  10065e:	e9 8f 00 00 00       	jmp    1006f2 <vga_print+0xd8>
  100663:	a1 08 80 11 00       	mov    0x118008,%eax
  100668:	83 f8 4f             	cmp    $0x4f,%eax
  10066b:	7e 2b                	jle    100698 <vga_print+0x7e>
  10066d:	c7 05 08 80 11 00 00 	movl   $0x0,0x118008
  100674:	00 00 00 
  100677:	a1 0c 80 11 00       	mov    0x11800c,%eax
  10067c:	83 c0 01             	add    $0x1,%eax
  10067f:	a3 0c 80 11 00       	mov    %eax,0x11800c
  100684:	a1 0c 80 11 00       	mov    0x11800c,%eax
  100689:	83 f8 18             	cmp    $0x18,%eax
  10068c:	7e 0a                	jle    100698 <vga_print+0x7e>
  10068e:	c7 05 0c 80 11 00 18 	movl   $0x18,0x11800c
  100695:	00 00 00 
  100698:	8b 15 0c 80 11 00    	mov    0x11800c,%edx
  10069e:	89 d0                	mov    %edx,%eax
  1006a0:	c1 e0 02             	shl    $0x2,%eax
  1006a3:	01 d0                	add    %edx,%eax
  1006a5:	c1 e0 04             	shl    $0x4,%eax
  1006a8:	89 c2                	mov    %eax,%edx
  1006aa:	a1 08 80 11 00       	mov    0x118008,%eax
  1006af:	01 d0                	add    %edx,%eax
  1006b1:	89 45 fc             	mov    %eax,-0x4(%ebp)
  1006b4:	0f b6 05 18 70 10 00 	movzbl 0x107018,%eax
  1006bb:	0f b6 c0             	movzbl %al,%eax
  1006be:	c1 e0 08             	shl    $0x8,%eax
  1006c1:	89 c2                	mov    %eax,%edx
  1006c3:	8b 45 08             	mov    0x8(%ebp),%eax
  1006c6:	0f b6 00             	movzbl (%eax),%eax
  1006c9:	0f b6 c0             	movzbl %al,%eax
  1006cc:	89 d1                	mov    %edx,%ecx
  1006ce:	09 c1                	or     %eax,%ecx
  1006d0:	a1 14 70 10 00       	mov    0x107014,%eax
  1006d5:	8b 55 fc             	mov    -0x4(%ebp),%edx
  1006d8:	01 d2                	add    %edx,%edx
  1006da:	01 d0                	add    %edx,%eax
  1006dc:	89 ca                	mov    %ecx,%edx
  1006de:	66 89 10             	mov    %dx,(%eax)
  1006e1:	a1 08 80 11 00       	mov    0x118008,%eax
  1006e6:	83 c0 01             	add    $0x1,%eax
  1006e9:	a3 08 80 11 00       	mov    %eax,0x118008
  1006ee:	83 45 08 01          	addl   $0x1,0x8(%ebp)
  1006f2:	8b 45 08             	mov    0x8(%ebp),%eax
  1006f5:	0f b6 00             	movzbl (%eax),%eax
  1006f8:	84 c0                	test   %al,%al
  1006fa:	0f 85 25 ff ff ff    	jne    100625 <vga_print+0xb>
  100700:	90                   	nop
  100701:	90                   	nop
  100702:	c9                   	leave
  100703:	c3                   	ret

00100704 <vga_putchar>:
  100704:	55                   	push   %ebp
  100705:	89 e5                	mov    %esp,%ebp
  100707:	83 ec 14             	sub    $0x14,%esp
  10070a:	8b 45 08             	mov    0x8(%ebp),%eax
  10070d:	88 45 ec             	mov    %al,-0x14(%ebp)
  100710:	80 7d ec 0a          	cmpb   $0xa,-0x14(%ebp)
  100714:	75 34                	jne    10074a <vga_putchar+0x46>
  100716:	c7 05 08 80 11 00 00 	movl   $0x0,0x118008
  10071d:	00 00 00 
  100720:	a1 0c 80 11 00       	mov    0x11800c,%eax
  100725:	83 c0 01             	add    $0x1,%eax
  100728:	a3 0c 80 11 00       	mov    %eax,0x11800c
  10072d:	a1 0c 80 11 00       	mov    0x11800c,%eax
  100732:	83 f8 18             	cmp    $0x18,%eax
  100735:	0f 8e 9a 00 00 00    	jle    1007d5 <vga_putchar+0xd1>
  10073b:	c7 05 0c 80 11 00 18 	movl   $0x18,0x11800c
  100742:	00 00 00 
  100745:	e9 8b 00 00 00       	jmp    1007d5 <vga_putchar+0xd1>
  10074a:	a1 08 80 11 00       	mov    0x118008,%eax
  10074f:	83 f8 4f             	cmp    $0x4f,%eax
  100752:	7e 2b                	jle    10077f <vga_putchar+0x7b>
  100754:	c7 05 08 80 11 00 00 	movl   $0x0,0x118008
  10075b:	00 00 00 
  10075e:	a1 0c 80 11 00       	mov    0x11800c,%eax
  100763:	83 c0 01             	add    $0x1,%eax
  100766:	a3 0c 80 11 00       	mov    %eax,0x11800c
  10076b:	a1 0c 80 11 00       	mov    0x11800c,%eax
  100770:	83 f8 18             	cmp    $0x18,%eax
  100773:	7e 0a                	jle    10077f <vga_putchar+0x7b>
  100775:	c7 05 0c 80 11 00 18 	movl   $0x18,0x11800c
  10077c:	00 00 00 
  10077f:	8b 15 0c 80 11 00    	mov    0x11800c,%edx
  100785:	89 d0                	mov    %edx,%eax
  100787:	c1 e0 02             	shl    $0x2,%eax
  10078a:	01 d0                	add    %edx,%eax
  10078c:	c1 e0 04             	shl    $0x4,%eax
  10078f:	89 c2                	mov    %eax,%edx
  100791:	a1 08 80 11 00       	mov    0x118008,%eax
  100796:	01 d0                	add    %edx,%eax
  100798:	89 45 fc             	mov    %eax,-0x4(%ebp)
  10079b:	0f b6 05 18 70 10 00 	movzbl 0x107018,%eax
  1007a2:	0f b6 c0             	movzbl %al,%eax
  1007a5:	c1 e0 08             	shl    $0x8,%eax
  1007a8:	89 c2                	mov    %eax,%edx
  1007aa:	0f b6 45 ec          	movzbl -0x14(%ebp),%eax
  1007ae:	0f b6 c0             	movzbl %al,%eax
  1007b1:	89 d1                	mov    %edx,%ecx
  1007b3:	09 c1                	or     %eax,%ecx
  1007b5:	a1 14 70 10 00       	mov    0x107014,%eax
  1007ba:	8b 55 fc             	mov    -0x4(%ebp),%edx
  1007bd:	01 d2                	add    %edx,%edx
  1007bf:	01 d0                	add    %edx,%eax
  1007c1:	89 ca                	mov    %ecx,%edx
  1007c3:	66 89 10             	mov    %dx,(%eax)
  1007c6:	a1 08 80 11 00       	mov    0x118008,%eax
  1007cb:	83 c0 01             	add    $0x1,%eax
  1007ce:	a3 08 80 11 00       	mov    %eax,0x118008
  1007d3:	eb 01                	jmp    1007d6 <vga_putchar+0xd2>
  1007d5:	90                   	nop
  1007d6:	c9                   	leave
  1007d7:	c3                   	ret

001007d8 <vga_putint>:
  1007d8:	55                   	push   %ebp
  1007d9:	89 e5                	mov    %esp,%ebp
  1007db:	83 ec 30             	sub    $0x30,%esp
  1007de:	8d 45 d0             	lea    -0x30(%ebp),%eax
  1007e1:	89 45 f0             	mov    %eax,-0x10(%ebp)
  1007e4:	83 7d 08 00          	cmpl   $0x0,0x8(%ebp)
  1007e8:	75 0f                	jne    1007f9 <vga_putint+0x21>
  1007ea:	6a 30                	push   $0x30
  1007ec:	e8 13 ff ff ff       	call   100704 <vga_putchar>
  1007f1:	83 c4 04             	add    $0x4,%esp
  1007f4:	e9 aa 00 00 00       	jmp    1008a3 <vga_putint+0xcb>
  1007f9:	8b 45 08             	mov    0x8(%ebp),%eax
  1007fc:	89 c2                	mov    %eax,%edx
  1007fe:	f7 da                	neg    %edx
  100800:	0f 49 c2             	cmovns %edx,%eax
  100803:	89 45 fc             	mov    %eax,-0x4(%ebp)
  100806:	c7 45 f8 00 00 00 00 	movl   $0x0,-0x8(%ebp)
  10080d:	eb 52                	jmp    100861 <vga_putint+0x89>
  10080f:	8b 4d fc             	mov    -0x4(%ebp),%ecx
  100812:	ba 67 66 66 66       	mov    $0x66666667,%edx
  100817:	89 c8                	mov    %ecx,%eax
  100819:	f7 ea                	imul   %edx
  10081b:	c1 fa 02             	sar    $0x2,%edx
  10081e:	89 c8                	mov    %ecx,%eax
  100820:	c1 f8 1f             	sar    $0x1f,%eax
  100823:	29 c2                	sub    %eax,%edx
  100825:	89 d0                	mov    %edx,%eax
  100827:	c1 e0 02             	shl    $0x2,%eax
  10082a:	01 d0                	add    %edx,%eax
  10082c:	01 c0                	add    %eax,%eax
  10082e:	29 c1                	sub    %eax,%ecx
  100830:	89 ca                	mov    %ecx,%edx
  100832:	89 d0                	mov    %edx,%eax
  100834:	8d 48 30             	lea    0x30(%eax),%ecx
  100837:	8b 45 f8             	mov    -0x8(%ebp),%eax
  10083a:	8d 50 01             	lea    0x1(%eax),%edx
  10083d:	89 55 f8             	mov    %edx,-0x8(%ebp)
  100840:	89 ca                	mov    %ecx,%edx
  100842:	88 54 05 d0          	mov    %dl,-0x30(%ebp,%eax,1)
  100846:	8b 4d fc             	mov    -0x4(%ebp),%ecx
  100849:	ba 67 66 66 66       	mov    $0x66666667,%edx
  10084e:	89 c8                	mov    %ecx,%eax
  100850:	f7 ea                	imul   %edx
  100852:	89 d0                	mov    %edx,%eax
  100854:	c1 f8 02             	sar    $0x2,%eax
  100857:	c1 f9 1f             	sar    $0x1f,%ecx
  10085a:	89 ca                	mov    %ecx,%edx
  10085c:	29 d0                	sub    %edx,%eax
  10085e:	89 45 fc             	mov    %eax,-0x4(%ebp)
  100861:	83 7d fc 00          	cmpl   $0x0,-0x4(%ebp)
  100865:	7f a8                	jg     10080f <vga_putint+0x37>
  100867:	83 7d 08 00          	cmpl   $0x0,0x8(%ebp)
  10086b:	79 0a                	jns    100877 <vga_putint+0x9f>
  10086d:	6a 2d                	push   $0x2d
  10086f:	e8 90 fe ff ff       	call   100704 <vga_putchar>
  100874:	83 c4 04             	add    $0x4,%esp
  100877:	8b 45 f8             	mov    -0x8(%ebp),%eax
  10087a:	83 e8 01             	sub    $0x1,%eax
  10087d:	89 45 f4             	mov    %eax,-0xc(%ebp)
  100880:	eb 1b                	jmp    10089d <vga_putint+0xc5>
  100882:	8d 55 d0             	lea    -0x30(%ebp),%edx
  100885:	8b 45 f4             	mov    -0xc(%ebp),%eax
  100888:	01 d0                	add    %edx,%eax
  10088a:	0f b6 00             	movzbl (%eax),%eax
  10088d:	0f be c0             	movsbl %al,%eax
  100890:	50                   	push   %eax
  100891:	e8 6e fe ff ff       	call   100704 <vga_putchar>
  100896:	83 c4 04             	add    $0x4,%esp
  100899:	83 6d f4 01          	subl   $0x1,-0xc(%ebp)
  10089d:	83 7d f4 00          	cmpl   $0x0,-0xc(%ebp)
  1008a1:	79 df                	jns    100882 <vga_putint+0xaa>
  1008a3:	c9                   	leave
  1008a4:	c3                   	ret

001008a5 <vga_put_hex>:
  1008a5:	55                   	push   %ebp
  1008a6:	89 e5                	mov    %esp,%ebp
  1008a8:	83 ec 20             	sub    $0x20,%esp
  1008ab:	c6 45 f7 00          	movb   $0x0,-0x9(%ebp)
  1008af:	c7 45 fc 07 00 00 00 	movl   $0x7,-0x4(%ebp)
  1008b6:	eb 33                	jmp    1008eb <vga_put_hex+0x46>
  1008b8:	8b 45 08             	mov    0x8(%ebp),%eax
  1008bb:	83 e0 0f             	and    $0xf,%eax
  1008be:	89 45 f8             	mov    %eax,-0x8(%ebp)
  1008c1:	83 7d f8 09          	cmpl   $0x9,-0x8(%ebp)
  1008c5:	77 0a                	ja     1008d1 <vga_put_hex+0x2c>
  1008c7:	8b 45 f8             	mov    -0x8(%ebp),%eax
  1008ca:	83 c0 30             	add    $0x30,%eax
  1008cd:	89 c1                	mov    %eax,%ecx
  1008cf:	eb 08                	jmp    1008d9 <vga_put_hex+0x34>
  1008d1:	8b 45 f8             	mov    -0x8(%ebp),%eax
  1008d4:	83 c0 57             	add    $0x57,%eax
  1008d7:	89 c1                	mov    %eax,%ecx
  1008d9:	8d 55 ef             	lea    -0x11(%ebp),%edx
  1008dc:	8b 45 fc             	mov    -0x4(%ebp),%eax
  1008df:	01 d0                	add    %edx,%eax
  1008e1:	88 08                	mov    %cl,(%eax)
  1008e3:	c1 6d 08 04          	shrl   $0x4,0x8(%ebp)
  1008e7:	83 6d fc 01          	subl   $0x1,-0x4(%ebp)
  1008eb:	83 7d fc 00          	cmpl   $0x0,-0x4(%ebp)
  1008ef:	79 c7                	jns    1008b8 <vga_put_hex+0x13>
  1008f1:	8d 45 ef             	lea    -0x11(%ebp),%eax
  1008f4:	50                   	push   %eax
  1008f5:	e8 20 fd ff ff       	call   10061a <vga_print>
  1008fa:	83 c4 04             	add    $0x4,%esp
  1008fd:	90                   	nop
  1008fe:	c9                   	leave
  1008ff:	c3                   	ret

00100900 <vga_puts>:
  100900:	55                   	push   %ebp
  100901:	89 e5                	mov    %esp,%ebp
  100903:	ff 75 08             	push   0x8(%ebp)
  100906:	e8 0f fd ff ff       	call   10061a <vga_print>
  10090b:	83 c4 04             	add    $0x4,%esp
  10090e:	90                   	nop
  10090f:	c9                   	leave
  100910:	c3                   	ret

00100911 <vga_set_cursor>:
  100911:	55                   	push   %ebp
  100912:	89 e5                	mov    %esp,%ebp
  100914:	83 7d 08 00          	cmpl   $0x0,0x8(%ebp)
  100918:	78 22                	js     10093c <vga_set_cursor+0x2b>
  10091a:	83 7d 08 4f          	cmpl   $0x4f,0x8(%ebp)
  10091e:	7f 1c                	jg     10093c <vga_set_cursor+0x2b>
  100920:	83 7d 0c 00          	cmpl   $0x0,0xc(%ebp)
  100924:	78 16                	js     10093c <vga_set_cursor+0x2b>
  100926:	83 7d 0c 18          	cmpl   $0x18,0xc(%ebp)
  10092a:	7f 10                	jg     10093c <vga_set_cursor+0x2b>
  10092c:	8b 45 08             	mov    0x8(%ebp),%eax
  10092f:	a3 08 80 11 00       	mov    %eax,0x118008
  100934:	8b 45 0c             	mov    0xc(%ebp),%eax
  100937:	a3 0c 80 11 00       	mov    %eax,0x11800c
  10093c:	90                   	nop
  10093d:	5d                   	pop    %ebp
  10093e:	c3                   	ret

0010093f <vga_print_at>:
  10093f:	55                   	push   %ebp
  100940:	89 e5                	mov    %esp,%ebp
  100942:	83 ec 10             	sub    $0x10,%esp
  100945:	83 7d 08 00          	cmpl   $0x0,0x8(%ebp)
  100949:	0f 88 cd 00 00 00    	js     100a1c <vga_print_at+0xdd>
  10094f:	83 7d 08 4f          	cmpl   $0x4f,0x8(%ebp)
  100953:	0f 8f c3 00 00 00    	jg     100a1c <vga_print_at+0xdd>
  100959:	83 7d 0c 00          	cmpl   $0x0,0xc(%ebp)
  10095d:	0f 88 b9 00 00 00    	js     100a1c <vga_print_at+0xdd>
  100963:	83 7d 0c 18          	cmpl   $0x18,0xc(%ebp)
  100967:	0f 8f af 00 00 00    	jg     100a1c <vga_print_at+0xdd>
  10096d:	a1 08 80 11 00       	mov    0x118008,%eax
  100972:	89 45 fc             	mov    %eax,-0x4(%ebp)
  100975:	a1 0c 80 11 00       	mov    0x11800c,%eax
  10097a:	89 45 f8             	mov    %eax,-0x8(%ebp)
  10097d:	8b 45 08             	mov    0x8(%ebp),%eax
  100980:	a3 08 80 11 00       	mov    %eax,0x118008
  100985:	8b 45 0c             	mov    0xc(%ebp),%eax
  100988:	a3 0c 80 11 00       	mov    %eax,0x11800c
  10098d:	eb 64                	jmp    1009f3 <vga_print_at+0xb4>
  10098f:	8b 45 10             	mov    0x10(%ebp),%eax
  100992:	0f b6 00             	movzbl (%eax),%eax
  100995:	3c 0a                	cmp    $0xa,%al
  100997:	74 70                	je     100a09 <vga_print_at+0xca>
  100999:	8b 15 0c 80 11 00    	mov    0x11800c,%edx
  10099f:	89 d0                	mov    %edx,%eax
  1009a1:	c1 e0 02             	shl    $0x2,%eax
  1009a4:	01 d0                	add    %edx,%eax
  1009a6:	c1 e0 04             	shl    $0x4,%eax
  1009a9:	89 c2                	mov    %eax,%edx
  1009ab:	a1 08 80 11 00       	mov    0x118008,%eax
  1009b0:	01 d0                	add    %edx,%eax
  1009b2:	89 45 f4             	mov    %eax,-0xc(%ebp)
  1009b5:	0f b6 05 18 70 10 00 	movzbl 0x107018,%eax
  1009bc:	0f b6 c0             	movzbl %al,%eax
  1009bf:	c1 e0 08             	shl    $0x8,%eax
  1009c2:	89 c2                	mov    %eax,%edx
  1009c4:	8b 45 10             	mov    0x10(%ebp),%eax
  1009c7:	0f b6 00             	movzbl (%eax),%eax
  1009ca:	0f b6 c0             	movzbl %al,%eax
  1009cd:	89 d1                	mov    %edx,%ecx
  1009cf:	09 c1                	or     %eax,%ecx
  1009d1:	a1 14 70 10 00       	mov    0x107014,%eax
  1009d6:	8b 55 f4             	mov    -0xc(%ebp),%edx
  1009d9:	01 d2                	add    %edx,%edx
  1009db:	01 d0                	add    %edx,%eax
  1009dd:	89 ca                	mov    %ecx,%edx
  1009df:	66 89 10             	mov    %dx,(%eax)
  1009e2:	a1 08 80 11 00       	mov    0x118008,%eax
  1009e7:	83 c0 01             	add    $0x1,%eax
  1009ea:	a3 08 80 11 00       	mov    %eax,0x118008
  1009ef:	83 45 10 01          	addl   $0x1,0x10(%ebp)
  1009f3:	8b 45 10             	mov    0x10(%ebp),%eax
  1009f6:	0f b6 00             	movzbl (%eax),%eax
  1009f9:	84 c0                	test   %al,%al
  1009fb:	74 0d                	je     100a0a <vga_print_at+0xcb>
  1009fd:	a1 08 80 11 00       	mov    0x118008,%eax
  100a02:	83 f8 4f             	cmp    $0x4f,%eax
  100a05:	7e 88                	jle    10098f <vga_print_at+0x50>
  100a07:	eb 01                	jmp    100a0a <vga_print_at+0xcb>
  100a09:	90                   	nop
  100a0a:	8b 45 fc             	mov    -0x4(%ebp),%eax
  100a0d:	a3 08 80 11 00       	mov    %eax,0x118008
  100a12:	8b 45 f8             	mov    -0x8(%ebp),%eax
  100a15:	a3 0c 80 11 00       	mov    %eax,0x11800c
  100a1a:	eb 01                	jmp    100a1d <vga_print_at+0xde>
  100a1c:	90                   	nop
  100a1d:	c9                   	leave
  100a1e:	c3                   	ret

00100a1f <vga_draw_box>:
  100a1f:	55                   	push   %ebp
  100a20:	89 e5                	mov    %esp,%ebp
  100a22:	83 ec 20             	sub    $0x20,%esp
  100a25:	83 7d 08 00          	cmpl   $0x0,0x8(%ebp)
  100a29:	0f 88 83 01 00 00    	js     100bb2 <vga_draw_box+0x193>
  100a2f:	83 7d 0c 00          	cmpl   $0x0,0xc(%ebp)
  100a33:	0f 88 79 01 00 00    	js     100bb2 <vga_draw_box+0x193>
  100a39:	8b 55 08             	mov    0x8(%ebp),%edx
  100a3c:	8b 45 10             	mov    0x10(%ebp),%eax
  100a3f:	01 d0                	add    %edx,%eax
  100a41:	83 f8 50             	cmp    $0x50,%eax
  100a44:	0f 8f 68 01 00 00    	jg     100bb2 <vga_draw_box+0x193>
  100a4a:	8b 55 0c             	mov    0xc(%ebp),%edx
  100a4d:	8b 45 14             	mov    0x14(%ebp),%eax
  100a50:	01 d0                	add    %edx,%eax
  100a52:	83 f8 19             	cmp    $0x19,%eax
  100a55:	0f 8f 57 01 00 00    	jg     100bb2 <vga_draw_box+0x193>
  100a5b:	c7 45 fc 00 00 00 00 	movl   $0x0,-0x4(%ebp)
  100a62:	eb 43                	jmp    100aa7 <vga_draw_box+0x88>
  100a64:	8b 55 0c             	mov    0xc(%ebp),%edx
  100a67:	89 d0                	mov    %edx,%eax
  100a69:	c1 e0 02             	shl    $0x2,%eax
  100a6c:	01 d0                	add    %edx,%eax
  100a6e:	c1 e0 04             	shl    $0x4,%eax
  100a71:	89 c1                	mov    %eax,%ecx
  100a73:	8b 55 08             	mov    0x8(%ebp),%edx
  100a76:	8b 45 fc             	mov    -0x4(%ebp),%eax
  100a79:	01 d0                	add    %edx,%eax
  100a7b:	01 c8                	add    %ecx,%eax
  100a7d:	89 45 e4             	mov    %eax,-0x1c(%ebp)
  100a80:	0f b6 05 18 70 10 00 	movzbl 0x107018,%eax
  100a87:	0f b6 c0             	movzbl %al,%eax
  100a8a:	c1 e0 08             	shl    $0x8,%eax
  100a8d:	83 c8 3d             	or     $0x3d,%eax
  100a90:	89 c1                	mov    %eax,%ecx
  100a92:	a1 14 70 10 00       	mov    0x107014,%eax
  100a97:	8b 55 e4             	mov    -0x1c(%ebp),%edx
  100a9a:	01 d2                	add    %edx,%edx
  100a9c:	01 d0                	add    %edx,%eax
  100a9e:	89 ca                	mov    %ecx,%edx
  100aa0:	66 89 10             	mov    %dx,(%eax)
  100aa3:	83 45 fc 01          	addl   $0x1,-0x4(%ebp)
  100aa7:	8b 45 fc             	mov    -0x4(%ebp),%eax
  100aaa:	3b 45 10             	cmp    0x10(%ebp),%eax
  100aad:	7c b5                	jl     100a64 <vga_draw_box+0x45>
  100aaf:	c7 45 f8 00 00 00 00 	movl   $0x0,-0x8(%ebp)
  100ab6:	eb 4b                	jmp    100b03 <vga_draw_box+0xe4>
  100ab8:	8b 55 0c             	mov    0xc(%ebp),%edx
  100abb:	8b 45 14             	mov    0x14(%ebp),%eax
  100abe:	01 d0                	add    %edx,%eax
  100ac0:	8d 50 ff             	lea    -0x1(%eax),%edx
  100ac3:	89 d0                	mov    %edx,%eax
  100ac5:	c1 e0 02             	shl    $0x2,%eax
  100ac8:	01 d0                	add    %edx,%eax
  100aca:	c1 e0 04             	shl    $0x4,%eax
  100acd:	89 c1                	mov    %eax,%ecx
  100acf:	8b 55 08             	mov    0x8(%ebp),%edx
  100ad2:	8b 45 f8             	mov    -0x8(%ebp),%eax
  100ad5:	01 d0                	add    %edx,%eax
  100ad7:	01 c8                	add    %ecx,%eax
  100ad9:	89 45 e8             	mov    %eax,-0x18(%ebp)
  100adc:	0f b6 05 18 70 10 00 	movzbl 0x107018,%eax
  100ae3:	0f b6 c0             	movzbl %al,%eax
  100ae6:	c1 e0 08             	shl    $0x8,%eax
  100ae9:	83 c8 3d             	or     $0x3d,%eax
  100aec:	89 c1                	mov    %eax,%ecx
  100aee:	a1 14 70 10 00       	mov    0x107014,%eax
  100af3:	8b 55 e8             	mov    -0x18(%ebp),%edx
  100af6:	01 d2                	add    %edx,%edx
  100af8:	01 d0                	add    %edx,%eax
  100afa:	89 ca                	mov    %ecx,%edx
  100afc:	66 89 10             	mov    %dx,(%eax)
  100aff:	83 45 f8 01          	addl   $0x1,-0x8(%ebp)
  100b03:	8b 45 f8             	mov    -0x8(%ebp),%eax
  100b06:	3b 45 10             	cmp    0x10(%ebp),%eax
  100b09:	7c ad                	jl     100ab8 <vga_draw_box+0x99>
  100b0b:	c7 45 f4 01 00 00 00 	movl   $0x1,-0xc(%ebp)
  100b12:	e9 8a 00 00 00       	jmp    100ba1 <vga_draw_box+0x182>
  100b17:	8b 55 0c             	mov    0xc(%ebp),%edx
  100b1a:	8b 45 f4             	mov    -0xc(%ebp),%eax
  100b1d:	01 c2                	add    %eax,%edx
  100b1f:	89 d0                	mov    %edx,%eax
  100b21:	c1 e0 02             	shl    $0x2,%eax
  100b24:	01 d0                	add    %edx,%eax
  100b26:	c1 e0 04             	shl    $0x4,%eax
  100b29:	89 c2                	mov    %eax,%edx
  100b2b:	8b 45 08             	mov    0x8(%ebp),%eax
  100b2e:	01 d0                	add    %edx,%eax
  100b30:	89 45 f0             	mov    %eax,-0x10(%ebp)
  100b33:	8b 55 0c             	mov    0xc(%ebp),%edx
  100b36:	8b 45 f4             	mov    -0xc(%ebp),%eax
  100b39:	01 c2                	add    %eax,%edx
  100b3b:	89 d0                	mov    %edx,%eax
  100b3d:	c1 e0 02             	shl    $0x2,%eax
  100b40:	01 d0                	add    %edx,%eax
  100b42:	c1 e0 04             	shl    $0x4,%eax
  100b45:	89 c1                	mov    %eax,%ecx
  100b47:	8b 55 08             	mov    0x8(%ebp),%edx
  100b4a:	8b 45 10             	mov    0x10(%ebp),%eax
  100b4d:	01 d0                	add    %edx,%eax
  100b4f:	83 e8 01             	sub    $0x1,%eax
  100b52:	01 c8                	add    %ecx,%eax
  100b54:	89 45 ec             	mov    %eax,-0x14(%ebp)
  100b57:	0f b6 05 18 70 10 00 	movzbl 0x107018,%eax
  100b5e:	0f b6 c0             	movzbl %al,%eax
  100b61:	c1 e0 08             	shl    $0x8,%eax
  100b64:	83 c8 7c             	or     $0x7c,%eax
  100b67:	89 c1                	mov    %eax,%ecx
  100b69:	a1 14 70 10 00       	mov    0x107014,%eax
  100b6e:	8b 55 f0             	mov    -0x10(%ebp),%edx
  100b71:	01 d2                	add    %edx,%edx
  100b73:	01 d0                	add    %edx,%eax
  100b75:	89 ca                	mov    %ecx,%edx
  100b77:	66 89 10             	mov    %dx,(%eax)
  100b7a:	0f b6 05 18 70 10 00 	movzbl 0x107018,%eax
  100b81:	0f b6 c0             	movzbl %al,%eax
  100b84:	c1 e0 08             	shl    $0x8,%eax
  100b87:	83 c8 7c             	or     $0x7c,%eax
  100b8a:	89 c1                	mov    %eax,%ecx
  100b8c:	a1 14 70 10 00       	mov    0x107014,%eax
  100b91:	8b 55 ec             	mov    -0x14(%ebp),%edx
  100b94:	01 d2                	add    %edx,%edx
  100b96:	01 d0                	add    %edx,%eax
  100b98:	89 ca                	mov    %ecx,%edx
  100b9a:	66 89 10             	mov    %dx,(%eax)
  100b9d:	83 45 f4 01          	addl   $0x1,-0xc(%ebp)
  100ba1:	8b 45 14             	mov    0x14(%ebp),%eax
  100ba4:	83 e8 01             	sub    $0x1,%eax
  100ba7:	39 45 f4             	cmp    %eax,-0xc(%ebp)
  100baa:	0f 8c 67 ff ff ff    	jl     100b17 <vga_draw_box+0xf8>
  100bb0:	eb 01                	jmp    100bb3 <vga_draw_box+0x194>
  100bb2:	90                   	nop
  100bb3:	c9                   	leave
  100bb4:	c3                   	ret

00100bb5 <outb>:
  100bb5:	55                   	push   %ebp
  100bb6:	89 e5                	mov    %esp,%ebp
  100bb8:	83 ec 08             	sub    $0x8,%esp
  100bbb:	8b 55 08             	mov    0x8(%ebp),%edx
  100bbe:	8b 45 0c             	mov    0xc(%ebp),%eax
  100bc1:	66 89 55 fc          	mov    %dx,-0x4(%ebp)
  100bc5:	88 45 f8             	mov    %al,-0x8(%ebp)
  100bc8:	0f b6 45 f8          	movzbl -0x8(%ebp),%eax
  100bcc:	0f b7 55 fc          	movzwl -0x4(%ebp),%edx
  100bd0:	ee                   	out    %al,(%dx)
  100bd1:	90                   	nop
  100bd2:	c9                   	leave
  100bd3:	c3                   	ret

00100bd4 <inb>:
  100bd4:	55                   	push   %ebp
  100bd5:	89 e5                	mov    %esp,%ebp
  100bd7:	83 ec 14             	sub    $0x14,%esp
  100bda:	8b 45 08             	mov    0x8(%ebp),%eax
  100bdd:	66 89 45 ec          	mov    %ax,-0x14(%ebp)
  100be1:	0f b7 45 ec          	movzwl -0x14(%ebp),%eax
  100be5:	89 c2                	mov    %eax,%edx
  100be7:	ec                   	in     (%dx),%al
  100be8:	88 45 ff             	mov    %al,-0x1(%ebp)
  100beb:	0f b6 45 ff          	movzbl -0x1(%ebp),%eax
  100bef:	c9                   	leave
  100bf0:	c3                   	ret

00100bf1 <graphics_mode_13h>:
  100bf1:	55                   	push   %ebp
  100bf2:	89 e5                	mov    %esp,%ebp
  100bf4:	83 ec 50             	sub    $0x50,%esp
  100bf7:	c7 45 eb 03 01 0f 00 	movl   $0xf0103,-0x15(%ebp)
  100bfe:	c6 45 ef 0e          	movb   $0xe,-0x11(%ebp)
  100c02:	c7 45 d2 5f 4f 50 82 	movl   $0x82504f5f,-0x2e(%ebp)
  100c09:	c7 45 d6 54 80 bf 1f 	movl   $0x1fbf8054,-0x2a(%ebp)
  100c10:	c7 45 da 00 41 00 00 	movl   $0x4100,-0x26(%ebp)
  100c17:	c7 45 de 00 00 00 00 	movl   $0x0,-0x22(%ebp)
  100c1e:	c7 45 e2 9c 0e 8f 28 	movl   $0x288f0e9c,-0x1e(%ebp)
  100c25:	c7 45 e6 40 96 b9 a3 	movl   $0xa3b99640,-0x1a(%ebp)
  100c2c:	c6 45 ea ff          	movb   $0xff,-0x16(%ebp)
  100c30:	c7 45 c9 00 00 00 00 	movl   $0x0,-0x37(%ebp)
  100c37:	c7 45 cd 00 40 05 0f 	movl   $0xf054000,-0x33(%ebp)
  100c3e:	c6 45 d1 ff          	movb   $0xff,-0x2f(%ebp)
  100c42:	c7 45 b4 00 01 02 03 	movl   $0x3020100,-0x4c(%ebp)
  100c49:	c7 45 b8 04 05 06 07 	movl   $0x7060504,-0x48(%ebp)
  100c50:	c7 45 bc 08 09 0a 0b 	movl   $0xb0a0908,-0x44(%ebp)
  100c57:	c7 45 c0 0c 0d 0e 0f 	movl   $0xf0e0d0c,-0x40(%ebp)
  100c5e:	c7 45 c4 41 00 0f 00 	movl   $0xf0041,-0x3c(%ebp)
  100c65:	c6 45 c8 00          	movb   $0x0,-0x38(%ebp)
  100c69:	6a 63                	push   $0x63
  100c6b:	68 c2 03 00 00       	push   $0x3c2
  100c70:	e8 40 ff ff ff       	call   100bb5 <outb>
  100c75:	83 c4 08             	add    $0x8,%esp
  100c78:	c7 45 fc 00 00 00 00 	movl   $0x0,-0x4(%ebp)
  100c7f:	eb 34                	jmp    100cb5 <graphics_mode_13h+0xc4>
  100c81:	8b 45 fc             	mov    -0x4(%ebp),%eax
  100c84:	0f b6 c0             	movzbl %al,%eax
  100c87:	50                   	push   %eax
  100c88:	68 c4 03 00 00       	push   $0x3c4
  100c8d:	e8 23 ff ff ff       	call   100bb5 <outb>
  100c92:	83 c4 08             	add    $0x8,%esp
  100c95:	8d 55 eb             	lea    -0x15(%ebp),%edx
  100c98:	8b 45 fc             	mov    -0x4(%ebp),%eax
  100c9b:	01 d0                	add    %edx,%eax
  100c9d:	0f b6 00             	movzbl (%eax),%eax
  100ca0:	0f b6 c0             	movzbl %al,%eax
  100ca3:	50                   	push   %eax
  100ca4:	68 c5 03 00 00       	push   $0x3c5
  100ca9:	e8 07 ff ff ff       	call   100bb5 <outb>
  100cae:	83 c4 08             	add    $0x8,%esp
  100cb1:	83 45 fc 01          	addl   $0x1,-0x4(%ebp)
  100cb5:	83 7d fc 04          	cmpl   $0x4,-0x4(%ebp)
  100cb9:	7e c6                	jle    100c81 <graphics_mode_13h+0x90>
  100cbb:	6a 03                	push   $0x3
  100cbd:	68 d4 03 00 00       	push   $0x3d4
  100cc2:	e8 ee fe ff ff       	call   100bb5 <outb>
  100cc7:	83 c4 08             	add    $0x8,%esp
  100cca:	68 d5 03 00 00       	push   $0x3d5
  100ccf:	e8 00 ff ff ff       	call   100bd4 <inb>
  100cd4:	83 c4 04             	add    $0x4,%esp
  100cd7:	83 c8 80             	or     $0xffffff80,%eax
  100cda:	0f b6 c0             	movzbl %al,%eax
  100cdd:	50                   	push   %eax
  100cde:	68 d5 03 00 00       	push   $0x3d5
  100ce3:	e8 cd fe ff ff       	call   100bb5 <outb>
  100ce8:	83 c4 08             	add    $0x8,%esp
  100ceb:	6a 11                	push   $0x11
  100ced:	68 d4 03 00 00       	push   $0x3d4
  100cf2:	e8 be fe ff ff       	call   100bb5 <outb>
  100cf7:	83 c4 08             	add    $0x8,%esp
  100cfa:	68 d5 03 00 00       	push   $0x3d5
  100cff:	e8 d0 fe ff ff       	call   100bd4 <inb>
  100d04:	83 c4 04             	add    $0x4,%esp
  100d07:	0f b6 c0             	movzbl %al,%eax
  100d0a:	83 e0 7f             	and    $0x7f,%eax
  100d0d:	50                   	push   %eax
  100d0e:	68 d5 03 00 00       	push   $0x3d5
  100d13:	e8 9d fe ff ff       	call   100bb5 <outb>
  100d18:	83 c4 08             	add    $0x8,%esp
  100d1b:	0f b6 45 d5          	movzbl -0x2b(%ebp),%eax
  100d1f:	83 c8 80             	or     $0xffffff80,%eax
  100d22:	88 45 d5             	mov    %al,-0x2b(%ebp)
  100d25:	0f b6 45 e3          	movzbl -0x1d(%ebp),%eax
  100d29:	83 e0 7f             	and    $0x7f,%eax
  100d2c:	88 45 e3             	mov    %al,-0x1d(%ebp)
  100d2f:	c7 45 f8 00 00 00 00 	movl   $0x0,-0x8(%ebp)
  100d36:	eb 34                	jmp    100d6c <graphics_mode_13h+0x17b>
  100d38:	8b 45 f8             	mov    -0x8(%ebp),%eax
  100d3b:	0f b6 c0             	movzbl %al,%eax
  100d3e:	50                   	push   %eax
  100d3f:	68 d4 03 00 00       	push   $0x3d4
  100d44:	e8 6c fe ff ff       	call   100bb5 <outb>
  100d49:	83 c4 08             	add    $0x8,%esp
  100d4c:	8d 55 d2             	lea    -0x2e(%ebp),%edx
  100d4f:	8b 45 f8             	mov    -0x8(%ebp),%eax
  100d52:	01 d0                	add    %edx,%eax
  100d54:	0f b6 00             	movzbl (%eax),%eax
  100d57:	0f b6 c0             	movzbl %al,%eax
  100d5a:	50                   	push   %eax
  100d5b:	68 d5 03 00 00       	push   $0x3d5
  100d60:	e8 50 fe ff ff       	call   100bb5 <outb>
  100d65:	83 c4 08             	add    $0x8,%esp
  100d68:	83 45 f8 01          	addl   $0x1,-0x8(%ebp)
  100d6c:	83 7d f8 18          	cmpl   $0x18,-0x8(%ebp)
  100d70:	7e c6                	jle    100d38 <graphics_mode_13h+0x147>
  100d72:	c7 45 f4 00 00 00 00 	movl   $0x0,-0xc(%ebp)
  100d79:	eb 34                	jmp    100daf <graphics_mode_13h+0x1be>
  100d7b:	8b 45 f4             	mov    -0xc(%ebp),%eax
  100d7e:	0f b6 c0             	movzbl %al,%eax
  100d81:	50                   	push   %eax
  100d82:	68 ce 03 00 00       	push   $0x3ce
  100d87:	e8 29 fe ff ff       	call   100bb5 <outb>
  100d8c:	83 c4 08             	add    $0x8,%esp
  100d8f:	8d 55 c9             	lea    -0x37(%ebp),%edx
  100d92:	8b 45 f4             	mov    -0xc(%ebp),%eax
  100d95:	01 d0                	add    %edx,%eax
  100d97:	0f b6 00             	movzbl (%eax),%eax
  100d9a:	0f b6 c0             	movzbl %al,%eax
  100d9d:	50                   	push   %eax
  100d9e:	68 cf 03 00 00       	push   $0x3cf
  100da3:	e8 0d fe ff ff       	call   100bb5 <outb>
  100da8:	83 c4 08             	add    $0x8,%esp
  100dab:	83 45 f4 01          	addl   $0x1,-0xc(%ebp)
  100daf:	83 7d f4 08          	cmpl   $0x8,-0xc(%ebp)
  100db3:	7e c6                	jle    100d7b <graphics_mode_13h+0x18a>
  100db5:	68 da 03 00 00       	push   $0x3da
  100dba:	e8 15 fe ff ff       	call   100bd4 <inb>
  100dbf:	83 c4 04             	add    $0x4,%esp
  100dc2:	c7 45 f0 00 00 00 00 	movl   $0x0,-0x10(%ebp)
  100dc9:	eb 34                	jmp    100dff <graphics_mode_13h+0x20e>
  100dcb:	8b 45 f0             	mov    -0x10(%ebp),%eax
  100dce:	0f b6 c0             	movzbl %al,%eax
  100dd1:	50                   	push   %eax
  100dd2:	68 c0 03 00 00       	push   $0x3c0
  100dd7:	e8 d9 fd ff ff       	call   100bb5 <outb>
  100ddc:	83 c4 08             	add    $0x8,%esp
  100ddf:	8d 55 b4             	lea    -0x4c(%ebp),%edx
  100de2:	8b 45 f0             	mov    -0x10(%ebp),%eax
  100de5:	01 d0                	add    %edx,%eax
  100de7:	0f b6 00             	movzbl (%eax),%eax
  100dea:	0f b6 c0             	movzbl %al,%eax
  100ded:	50                   	push   %eax
  100dee:	68 c0 03 00 00       	push   $0x3c0
  100df3:	e8 bd fd ff ff       	call   100bb5 <outb>
  100df8:	83 c4 08             	add    $0x8,%esp
  100dfb:	83 45 f0 01          	addl   $0x1,-0x10(%ebp)
  100dff:	83 7d f0 14          	cmpl   $0x14,-0x10(%ebp)
  100e03:	7e c6                	jle    100dcb <graphics_mode_13h+0x1da>
  100e05:	6a 20                	push   $0x20
  100e07:	68 c0 03 00 00       	push   $0x3c0
  100e0c:	e8 a4 fd ff ff       	call   100bb5 <outb>
  100e11:	83 c4 08             	add    $0x8,%esp
  100e14:	90                   	nop
  100e15:	c9                   	leave
  100e16:	c3                   	ret

00100e17 <put_pixel>:
  100e17:	55                   	push   %ebp
  100e18:	89 e5                	mov    %esp,%ebp
  100e1a:	83 ec 04             	sub    $0x4,%esp
  100e1d:	8b 45 10             	mov    0x10(%ebp),%eax
  100e20:	88 45 fc             	mov    %al,-0x4(%ebp)
  100e23:	83 7d 08 00          	cmpl   $0x0,0x8(%ebp)
  100e27:	78 3b                	js     100e64 <put_pixel+0x4d>
  100e29:	81 7d 08 3f 01 00 00 	cmpl   $0x13f,0x8(%ebp)
  100e30:	7f 32                	jg     100e64 <put_pixel+0x4d>
  100e32:	83 7d 0c 00          	cmpl   $0x0,0xc(%ebp)
  100e36:	78 2c                	js     100e64 <put_pixel+0x4d>
  100e38:	81 7d 0c c7 00 00 00 	cmpl   $0xc7,0xc(%ebp)
  100e3f:	7f 23                	jg     100e64 <put_pixel+0x4d>
  100e41:	8b 0d 1c 70 10 00    	mov    0x10701c,%ecx
  100e47:	8b 55 0c             	mov    0xc(%ebp),%edx
  100e4a:	89 d0                	mov    %edx,%eax
  100e4c:	c1 e0 02             	shl    $0x2,%eax
  100e4f:	01 d0                	add    %edx,%eax
  100e51:	c1 e0 06             	shl    $0x6,%eax
  100e54:	89 c2                	mov    %eax,%edx
  100e56:	8b 45 08             	mov    0x8(%ebp),%eax
  100e59:	01 d0                	add    %edx,%eax
  100e5b:	8d 14 01             	lea    (%ecx,%eax,1),%edx
  100e5e:	0f b6 45 fc          	movzbl -0x4(%ebp),%eax
  100e62:	88 02                	mov    %al,(%edx)
  100e64:	90                   	nop
  100e65:	c9                   	leave
  100e66:	c3                   	ret

00100e67 <draw_rect_filled>:
  100e67:	55                   	push   %ebp
  100e68:	89 e5                	mov    %esp,%ebp
  100e6a:	53                   	push   %ebx
  100e6b:	83 ec 14             	sub    $0x14,%esp
  100e6e:	8b 45 18             	mov    0x18(%ebp),%eax
  100e71:	88 45 e8             	mov    %al,-0x18(%ebp)
  100e74:	c7 45 f8 00 00 00 00 	movl   $0x0,-0x8(%ebp)
  100e7b:	eb 38                	jmp    100eb5 <draw_rect_filled+0x4e>
  100e7d:	c7 45 f4 00 00 00 00 	movl   $0x0,-0xc(%ebp)
  100e84:	eb 23                	jmp    100ea9 <draw_rect_filled+0x42>
  100e86:	0f b6 45 e8          	movzbl -0x18(%ebp),%eax
  100e8a:	8b 4d 0c             	mov    0xc(%ebp),%ecx
  100e8d:	8b 55 f8             	mov    -0x8(%ebp),%edx
  100e90:	01 d1                	add    %edx,%ecx
  100e92:	8b 5d 08             	mov    0x8(%ebp),%ebx
  100e95:	8b 55 f4             	mov    -0xc(%ebp),%edx
  100e98:	01 da                	add    %ebx,%edx
  100e9a:	50                   	push   %eax
  100e9b:	51                   	push   %ecx
  100e9c:	52                   	push   %edx
  100e9d:	e8 75 ff ff ff       	call   100e17 <put_pixel>
  100ea2:	83 c4 0c             	add    $0xc,%esp
  100ea5:	83 45 f4 01          	addl   $0x1,-0xc(%ebp)
  100ea9:	8b 45 f4             	mov    -0xc(%ebp),%eax
  100eac:	3b 45 10             	cmp    0x10(%ebp),%eax
  100eaf:	7c d5                	jl     100e86 <draw_rect_filled+0x1f>
  100eb1:	83 45 f8 01          	addl   $0x1,-0x8(%ebp)
  100eb5:	8b 45 f8             	mov    -0x8(%ebp),%eax
  100eb8:	3b 45 14             	cmp    0x14(%ebp),%eax
  100ebb:	7c c0                	jl     100e7d <draw_rect_filled+0x16>
  100ebd:	90                   	nop
  100ebe:	90                   	nop
  100ebf:	8b 5d fc             	mov    -0x4(%ebp),%ebx
  100ec2:	c9                   	leave
  100ec3:	c3                   	ret

00100ec4 <draw_line>:
  100ec4:	55                   	push   %ebp
  100ec5:	89 e5                	mov    %esp,%ebp
  100ec7:	83 ec 24             	sub    $0x24,%esp
  100eca:	8b 45 18             	mov    0x18(%ebp),%eax
  100ecd:	88 45 dc             	mov    %al,-0x24(%ebp)
  100ed0:	8b 45 0c             	mov    0xc(%ebp),%eax
  100ed3:	3b 45 14             	cmp    0x14(%ebp),%eax
  100ed6:	75 45                	jne    100f1d <draw_line+0x59>
  100ed8:	8b 55 10             	mov    0x10(%ebp),%edx
  100edb:	8b 45 08             	mov    0x8(%ebp),%eax
  100ede:	39 c2                	cmp    %eax,%edx
  100ee0:	0f 4e c2             	cmovle %edx,%eax
  100ee3:	89 45 ec             	mov    %eax,-0x14(%ebp)
  100ee6:	8b 55 08             	mov    0x8(%ebp),%edx
  100ee9:	8b 45 10             	mov    0x10(%ebp),%eax
  100eec:	39 c2                	cmp    %eax,%edx
  100eee:	0f 4d c2             	cmovge %edx,%eax
  100ef1:	89 45 e8             	mov    %eax,-0x18(%ebp)
  100ef4:	8b 45 ec             	mov    -0x14(%ebp),%eax
  100ef7:	89 45 fc             	mov    %eax,-0x4(%ebp)
  100efa:	eb 17                	jmp    100f13 <draw_line+0x4f>
  100efc:	0f b6 45 dc          	movzbl -0x24(%ebp),%eax
  100f00:	50                   	push   %eax
  100f01:	ff 75 0c             	push   0xc(%ebp)
  100f04:	ff 75 fc             	push   -0x4(%ebp)
  100f07:	e8 0b ff ff ff       	call   100e17 <put_pixel>
  100f0c:	83 c4 0c             	add    $0xc,%esp
  100f0f:	83 45 fc 01          	addl   $0x1,-0x4(%ebp)
  100f13:	8b 45 fc             	mov    -0x4(%ebp),%eax
  100f16:	3b 45 e8             	cmp    -0x18(%ebp),%eax
  100f19:	7e e1                	jle    100efc <draw_line+0x38>
  100f1b:	eb 4b                	jmp    100f68 <draw_line+0xa4>
  100f1d:	8b 45 08             	mov    0x8(%ebp),%eax
  100f20:	3b 45 10             	cmp    0x10(%ebp),%eax
  100f23:	75 43                	jne    100f68 <draw_line+0xa4>
  100f25:	8b 55 14             	mov    0x14(%ebp),%edx
  100f28:	8b 45 0c             	mov    0xc(%ebp),%eax
  100f2b:	39 c2                	cmp    %eax,%edx
  100f2d:	0f 4e c2             	cmovle %edx,%eax
  100f30:	89 45 f4             	mov    %eax,-0xc(%ebp)
  100f33:	8b 55 0c             	mov    0xc(%ebp),%edx
  100f36:	8b 45 14             	mov    0x14(%ebp),%eax
  100f39:	39 c2                	cmp    %eax,%edx
  100f3b:	0f 4d c2             	cmovge %edx,%eax
  100f3e:	89 45 f0             	mov    %eax,-0x10(%ebp)
  100f41:	8b 45 f4             	mov    -0xc(%ebp),%eax
  100f44:	89 45 f8             	mov    %eax,-0x8(%ebp)
  100f47:	eb 17                	jmp    100f60 <draw_line+0x9c>
  100f49:	0f b6 45 dc          	movzbl -0x24(%ebp),%eax
  100f4d:	50                   	push   %eax
  100f4e:	ff 75 f8             	push   -0x8(%ebp)
  100f51:	ff 75 08             	push   0x8(%ebp)
  100f54:	e8 be fe ff ff       	call   100e17 <put_pixel>
  100f59:	83 c4 0c             	add    $0xc,%esp
  100f5c:	83 45 f8 01          	addl   $0x1,-0x8(%ebp)
  100f60:	8b 45 f8             	mov    -0x8(%ebp),%eax
  100f63:	3b 45 f0             	cmp    -0x10(%ebp),%eax
  100f66:	7e e1                	jle    100f49 <draw_line+0x85>
  100f68:	90                   	nop
  100f69:	c9                   	leave
  100f6a:	c3                   	ret

00100f6b <clear_screen>:
  100f6b:	55                   	push   %ebp
  100f6c:	89 e5                	mov    %esp,%ebp
  100f6e:	83 ec 14             	sub    $0x14,%esp
  100f71:	8b 45 08             	mov    0x8(%ebp),%eax
  100f74:	88 45 ec             	mov    %al,-0x14(%ebp)
  100f77:	c7 45 fc 00 00 00 00 	movl   $0x0,-0x4(%ebp)
  100f7e:	eb 15                	jmp    100f95 <clear_screen+0x2a>
  100f80:	8b 15 1c 70 10 00    	mov    0x10701c,%edx
  100f86:	8b 45 fc             	mov    -0x4(%ebp),%eax
  100f89:	01 c2                	add    %eax,%edx
  100f8b:	0f b6 45 ec          	movzbl -0x14(%ebp),%eax
  100f8f:	88 02                	mov    %al,(%edx)
  100f91:	83 45 fc 01          	addl   $0x1,-0x4(%ebp)
  100f95:	81 7d fc ff f9 00 00 	cmpl   $0xf9ff,-0x4(%ebp)
  100f9c:	7e e2                	jle    100f80 <clear_screen+0x15>
  100f9e:	90                   	nop
  100f9f:	90                   	nop
  100fa0:	c9                   	leave
  100fa1:	c3                   	ret

00100fa2 <outb>:
  100fa2:	55                   	push   %ebp
  100fa3:	89 e5                	mov    %esp,%ebp
  100fa5:	83 ec 08             	sub    $0x8,%esp
  100fa8:	8b 55 08             	mov    0x8(%ebp),%edx
  100fab:	8b 45 0c             	mov    0xc(%ebp),%eax
  100fae:	66 89 55 fc          	mov    %dx,-0x4(%ebp)
  100fb2:	88 45 f8             	mov    %al,-0x8(%ebp)
  100fb5:	0f b6 45 f8          	movzbl -0x8(%ebp),%eax
  100fb9:	0f b7 55 fc          	movzwl -0x4(%ebp),%edx
  100fbd:	ee                   	out    %al,(%dx)
  100fbe:	90                   	nop
  100fbf:	c9                   	leave
  100fc0:	c3                   	ret

00100fc1 <inb>:
  100fc1:	55                   	push   %ebp
  100fc2:	89 e5                	mov    %esp,%ebp
  100fc4:	83 ec 14             	sub    $0x14,%esp
  100fc7:	8b 45 08             	mov    0x8(%ebp),%eax
  100fca:	66 89 45 ec          	mov    %ax,-0x14(%ebp)
  100fce:	0f b7 45 ec          	movzwl -0x14(%ebp),%eax
  100fd2:	89 c2                	mov    %eax,%edx
  100fd4:	ec                   	in     (%dx),%al
  100fd5:	88 45 ff             	mov    %al,-0x1(%ebp)
  100fd8:	0f b6 45 ff          	movzbl -0x1(%ebp),%eax
  100fdc:	c9                   	leave
  100fdd:	c3                   	ret

00100fde <vbe_init>:
  100fde:	55                   	push   %ebp
  100fdf:	89 e5                	mov    %esp,%ebp
  100fe1:	83 ec 08             	sub    $0x8,%esp
  100fe4:	a1 00 70 10 00       	mov    0x107000,%eax
  100fe9:	a3 10 80 11 00       	mov    %eax,0x118010
  100fee:	a1 04 70 10 00       	mov    0x107004,%eax
  100ff3:	a3 14 80 11 00       	mov    %eax,0x118014
  100ff8:	a1 08 70 10 00       	mov    0x107008,%eax
  100ffd:	a3 18 80 11 00       	mov    %eax,0x118018
  101002:	a1 0c 70 10 00       	mov    0x10700c,%eax
  101007:	a3 1c 80 11 00       	mov    %eax,0x11801c
  10100c:	a1 10 70 10 00       	mov    0x107010,%eax
  101011:	a3 20 80 11 00       	mov    %eax,0x118020
  101016:	c7 05 24 80 11 00 00 	movl   $0x0,0x118024
  10101d:	00 00 00 
  101020:	c7 05 28 80 11 00 00 	movl   $0x0,0x118028
  101027:	00 00 00 
  10102a:	a1 10 80 11 00       	mov    0x118010,%eax
  10102f:	85 c0                	test   %eax,%eax
  101031:	74 1b                	je     10104e <vbe_init+0x70>
  101033:	a1 14 80 11 00       	mov    0x118014,%eax
  101038:	85 c0                	test   %eax,%eax
  10103a:	74 12                	je     10104e <vbe_init+0x70>
  10103c:	a1 18 80 11 00       	mov    0x118018,%eax
  101041:	85 c0                	test   %eax,%eax
  101043:	74 09                	je     10104e <vbe_init+0x70>
  101045:	a1 1c 80 11 00       	mov    0x11801c,%eax
  10104a:	85 c0                	test   %eax,%eax
  10104c:	75 23                	jne    101071 <vbe_init+0x93>
  10104e:	e8 5c 03 00 00       	call   1013af <vbe_emergency_text_mode>
  101053:	c7 05 10 80 11 00 00 	movl   $0x0,0x118010
  10105a:	00 00 00 
  10105d:	c7 05 14 80 11 00 00 	movl   $0x0,0x118014
  101064:	00 00 00 
  101067:	c7 05 18 80 11 00 00 	movl   $0x0,0x118018
  10106e:	00 00 00 
  101071:	90                   	nop
  101072:	c9                   	leave
  101073:	c3                   	ret

00101074 <vbe_get_framebuffer_addr>:
  101074:	55                   	push   %ebp
  101075:	89 e5                	mov    %esp,%ebp
  101077:	a1 10 80 11 00       	mov    0x118010,%eax
  10107c:	5d                   	pop    %ebp
  10107d:	c3                   	ret

0010107e <vbe_get_framebuffer_size>:
  10107e:	55                   	push   %ebp
  10107f:	89 e5                	mov    %esp,%ebp
  101081:	8b 15 1c 80 11 00    	mov    0x11801c,%edx
  101087:	a1 18 80 11 00       	mov    0x118018,%eax
  10108c:	0f af c2             	imul   %edx,%eax
  10108f:	5d                   	pop    %ebp
  101090:	c3                   	ret

00101091 <vbe_get_width>:
  101091:	55                   	push   %ebp
  101092:	89 e5                	mov    %esp,%ebp
  101094:	a1 14 80 11 00       	mov    0x118014,%eax
  101099:	5d                   	pop    %ebp
  10109a:	c3                   	ret

0010109b <vbe_get_height>:
  10109b:	55                   	push   %ebp
  10109c:	89 e5                	mov    %esp,%ebp
  10109e:	a1 18 80 11 00       	mov    0x118018,%eax
  1010a3:	5d                   	pop    %ebp
  1010a4:	c3                   	ret

001010a5 <vbe_putpixel>:
  1010a5:	55                   	push   %ebp
  1010a6:	89 e5                	mov    %esp,%ebp
  1010a8:	83 ec 10             	sub    $0x10,%esp
  1010ab:	83 7d 08 00          	cmpl   $0x0,0x8(%ebp)
  1010af:	78 47                	js     1010f8 <vbe_putpixel+0x53>
  1010b1:	a1 14 80 11 00       	mov    0x118014,%eax
  1010b6:	39 45 08             	cmp    %eax,0x8(%ebp)
  1010b9:	7d 3d                	jge    1010f8 <vbe_putpixel+0x53>
  1010bb:	83 7d 0c 00          	cmpl   $0x0,0xc(%ebp)
  1010bf:	78 37                	js     1010f8 <vbe_putpixel+0x53>
  1010c1:	a1 18 80 11 00       	mov    0x118018,%eax
  1010c6:	39 45 0c             	cmp    %eax,0xc(%ebp)
  1010c9:	7d 2d                	jge    1010f8 <vbe_putpixel+0x53>
  1010cb:	8b 15 10 80 11 00    	mov    0x118010,%edx
  1010d1:	a1 1c 80 11 00       	mov    0x11801c,%eax
  1010d6:	c1 e8 02             	shr    $0x2,%eax
  1010d9:	89 c1                	mov    %eax,%ecx
  1010db:	8b 45 0c             	mov    0xc(%ebp),%eax
  1010de:	0f af c8             	imul   %eax,%ecx
  1010e1:	8b 45 08             	mov    0x8(%ebp),%eax
  1010e4:	01 c8                	add    %ecx,%eax
  1010e6:	c1 e0 02             	shl    $0x2,%eax
  1010e9:	01 d0                	add    %edx,%eax
  1010eb:	89 45 fc             	mov    %eax,-0x4(%ebp)
  1010ee:	8b 45 fc             	mov    -0x4(%ebp),%eax
  1010f1:	8b 55 10             	mov    0x10(%ebp),%edx
  1010f4:	89 10                	mov    %edx,(%eax)
  1010f6:	eb 01                	jmp    1010f9 <vbe_putpixel+0x54>
  1010f8:	90                   	nop
  1010f9:	c9                   	leave
  1010fa:	c3                   	ret

001010fb <vbe_clear>:
  1010fb:	55                   	push   %ebp
  1010fc:	89 e5                	mov    %esp,%ebp
  1010fe:	83 ec 18             	sub    $0x18,%esp
  101101:	a1 10 80 11 00       	mov    0x118010,%eax
  101106:	85 c0                	test   %eax,%eax
  101108:	74 09                	je     101113 <vbe_clear+0x18>
  10110a:	a1 14 80 11 00       	mov    0x118014,%eax
  10110f:	85 c0                	test   %eax,%eax
  101111:	75 07                	jne    10111a <vbe_clear+0x1f>
  101113:	e8 ee f3 ff ff       	call   100506 <vga_clear>
  101118:	eb 3c                	jmp    101156 <vbe_clear+0x5b>
  10111a:	a1 1c 80 11 00       	mov    0x11801c,%eax
  10111f:	c1 e8 02             	shr    $0x2,%eax
  101122:	89 c2                	mov    %eax,%edx
  101124:	a1 18 80 11 00       	mov    0x118018,%eax
  101129:	0f af c2             	imul   %edx,%eax
  10112c:	89 45 f0             	mov    %eax,-0x10(%ebp)
  10112f:	c7 45 f4 00 00 00 00 	movl   $0x0,-0xc(%ebp)
  101136:	eb 16                	jmp    10114e <vbe_clear+0x53>
  101138:	a1 10 80 11 00       	mov    0x118010,%eax
  10113d:	8b 55 f4             	mov    -0xc(%ebp),%edx
  101140:	c1 e2 02             	shl    $0x2,%edx
  101143:	01 c2                	add    %eax,%edx
  101145:	8b 45 08             	mov    0x8(%ebp),%eax
  101148:	89 02                	mov    %eax,(%edx)
  10114a:	83 45 f4 01          	addl   $0x1,-0xc(%ebp)
  10114e:	8b 45 f4             	mov    -0xc(%ebp),%eax
  101151:	3b 45 f0             	cmp    -0x10(%ebp),%eax
  101154:	72 e2                	jb     101138 <vbe_clear+0x3d>
  101156:	c9                   	leave
  101157:	c3                   	ret

00101158 <vbe_draw_rect>:
  101158:	55                   	push   %ebp
  101159:	89 e5                	mov    %esp,%ebp
  10115b:	83 ec 10             	sub    $0x10,%esp
  10115e:	c7 45 fc 00 00 00 00 	movl   $0x0,-0x4(%ebp)
  101165:	eb 36                	jmp    10119d <vbe_draw_rect+0x45>
  101167:	c7 45 f8 00 00 00 00 	movl   $0x0,-0x8(%ebp)
  10116e:	eb 21                	jmp    101191 <vbe_draw_rect+0x39>
  101170:	8b 55 0c             	mov    0xc(%ebp),%edx
  101173:	8b 45 fc             	mov    -0x4(%ebp),%eax
  101176:	01 c2                	add    %eax,%edx
  101178:	8b 4d 08             	mov    0x8(%ebp),%ecx
  10117b:	8b 45 f8             	mov    -0x8(%ebp),%eax
  10117e:	01 c8                	add    %ecx,%eax
  101180:	ff 75 18             	push   0x18(%ebp)
  101183:	52                   	push   %edx
  101184:	50                   	push   %eax
  101185:	e8 1b ff ff ff       	call   1010a5 <vbe_putpixel>
  10118a:	83 c4 0c             	add    $0xc,%esp
  10118d:	83 45 f8 01          	addl   $0x1,-0x8(%ebp)
  101191:	8b 45 f8             	mov    -0x8(%ebp),%eax
  101194:	3b 45 10             	cmp    0x10(%ebp),%eax
  101197:	7c d7                	jl     101170 <vbe_draw_rect+0x18>
  101199:	83 45 fc 01          	addl   $0x1,-0x4(%ebp)
  10119d:	8b 45 fc             	mov    -0x4(%ebp),%eax
  1011a0:	3b 45 14             	cmp    0x14(%ebp),%eax
  1011a3:	7c c2                	jl     101167 <vbe_draw_rect+0xf>
  1011a5:	90                   	nop
  1011a6:	90                   	nop
  1011a7:	c9                   	leave
  1011a8:	c3                   	ret

001011a9 <vbe_putchar>:
  1011a9:	55                   	push   %ebp
  1011aa:	89 e5                	mov    %esp,%ebp
  1011ac:	53                   	push   %ebx
  1011ad:	83 ec 24             	sub    $0x24,%esp
  1011b0:	8b 45 10             	mov    0x10(%ebp),%eax
  1011b3:	88 45 d8             	mov    %al,-0x28(%ebp)
  1011b6:	0f b6 45 d8          	movzbl -0x28(%ebp),%eax
  1011ba:	88 45 fb             	mov    %al,-0x5(%ebp)
  1011bd:	0f b6 45 fb          	movzbl -0x5(%ebp),%eax
  1011c1:	84 c0                	test   %al,%al
  1011c3:	79 04                	jns    1011c9 <vbe_putchar+0x20>
  1011c5:	c6 45 fb 00          	movb   $0x0,-0x5(%ebp)
  1011c9:	0f b6 45 fb          	movzbl -0x5(%ebp),%eax
  1011cd:	c1 e0 04             	shl    $0x4,%eax
  1011d0:	05 00 50 10 00       	add    $0x105000,%eax
  1011d5:	89 45 ec             	mov    %eax,-0x14(%ebp)
  1011d8:	c7 45 f4 00 00 00 00 	movl   $0x0,-0xc(%ebp)
  1011df:	eb 65                	jmp    101246 <vbe_putchar+0x9d>
  1011e1:	8b 55 f4             	mov    -0xc(%ebp),%edx
  1011e4:	8b 45 ec             	mov    -0x14(%ebp),%eax
  1011e7:	01 d0                	add    %edx,%eax
  1011e9:	0f b6 00             	movzbl (%eax),%eax
  1011ec:	88 45 eb             	mov    %al,-0x15(%ebp)
  1011ef:	c7 45 f0 00 00 00 00 	movl   $0x0,-0x10(%ebp)
  1011f6:	eb 44                	jmp    10123c <vbe_putchar+0x93>
  1011f8:	0f b6 55 eb          	movzbl -0x15(%ebp),%edx
  1011fc:	8b 45 f0             	mov    -0x10(%ebp),%eax
  1011ff:	bb 80 00 00 00       	mov    $0x80,%ebx
  101204:	89 c1                	mov    %eax,%ecx
  101206:	d3 fb                	sar    %cl,%ebx
  101208:	89 d8                	mov    %ebx,%eax
  10120a:	21 d0                	and    %edx,%eax
  10120c:	85 c0                	test   %eax,%eax
  10120e:	74 05                	je     101215 <vbe_putchar+0x6c>
  101210:	8b 45 14             	mov    0x14(%ebp),%eax
  101213:	eb 03                	jmp    101218 <vbe_putchar+0x6f>
  101215:	8b 45 18             	mov    0x18(%ebp),%eax
  101218:	89 45 e4             	mov    %eax,-0x1c(%ebp)
  10121b:	8b 55 0c             	mov    0xc(%ebp),%edx
  10121e:	8b 45 f4             	mov    -0xc(%ebp),%eax
  101221:	01 c2                	add    %eax,%edx
  101223:	8b 4d 08             	mov    0x8(%ebp),%ecx
  101226:	8b 45 f0             	mov    -0x10(%ebp),%eax
  101229:	01 c8                	add    %ecx,%eax
  10122b:	ff 75 e4             	push   -0x1c(%ebp)
  10122e:	52                   	push   %edx
  10122f:	50                   	push   %eax
  101230:	e8 70 fe ff ff       	call   1010a5 <vbe_putpixel>
  101235:	83 c4 0c             	add    $0xc,%esp
  101238:	83 45 f0 01          	addl   $0x1,-0x10(%ebp)
  10123c:	83 7d f0 07          	cmpl   $0x7,-0x10(%ebp)
  101240:	7e b6                	jle    1011f8 <vbe_putchar+0x4f>
  101242:	83 45 f4 01          	addl   $0x1,-0xc(%ebp)
  101246:	83 7d f4 0f          	cmpl   $0xf,-0xc(%ebp)
  10124a:	7e 95                	jle    1011e1 <vbe_putchar+0x38>
  10124c:	90                   	nop
  10124d:	90                   	nop
  10124e:	8b 5d fc             	mov    -0x4(%ebp),%ebx
  101251:	c9                   	leave
  101252:	c3                   	ret

00101253 <vbe_print_at>:
  101253:	55                   	push   %ebp
  101254:	89 e5                	mov    %esp,%ebp
  101256:	83 ec 10             	sub    $0x10,%esp
  101259:	8b 45 08             	mov    0x8(%ebp),%eax
  10125c:	89 45 fc             	mov    %eax,-0x4(%ebp)
  10125f:	8b 45 0c             	mov    0xc(%ebp),%eax
  101262:	89 45 f8             	mov    %eax,-0x8(%ebp)
  101265:	eb 59                	jmp    1012c0 <vbe_print_at+0x6d>
  101267:	8b 45 10             	mov    0x10(%ebp),%eax
  10126a:	0f b6 00             	movzbl (%eax),%eax
  10126d:	3c 0a                	cmp    $0xa,%al
  10126f:	75 10                	jne    101281 <vbe_print_at+0x2e>
  101271:	8b 45 08             	mov    0x8(%ebp),%eax
  101274:	89 45 fc             	mov    %eax,-0x4(%ebp)
  101277:	83 45 f8 10          	addl   $0x10,-0x8(%ebp)
  10127b:	83 45 10 01          	addl   $0x1,0x10(%ebp)
  10127f:	eb 3f                	jmp    1012c0 <vbe_print_at+0x6d>
  101281:	8b 45 10             	mov    0x10(%ebp),%eax
  101284:	0f b6 00             	movzbl (%eax),%eax
  101287:	0f be c0             	movsbl %al,%eax
  10128a:	ff 75 18             	push   0x18(%ebp)
  10128d:	ff 75 14             	push   0x14(%ebp)
  101290:	50                   	push   %eax
  101291:	ff 75 f8             	push   -0x8(%ebp)
  101294:	ff 75 fc             	push   -0x4(%ebp)
  101297:	e8 0d ff ff ff       	call   1011a9 <vbe_putchar>
  10129c:	83 c4 14             	add    $0x14,%esp
  10129f:	83 45 fc 08          	addl   $0x8,-0x4(%ebp)
  1012a3:	8b 45 fc             	mov    -0x4(%ebp),%eax
  1012a6:	8d 50 07             	lea    0x7(%eax),%edx
  1012a9:	a1 14 80 11 00       	mov    0x118014,%eax
  1012ae:	39 c2                	cmp    %eax,%edx
  1012b0:	7c 0a                	jl     1012bc <vbe_print_at+0x69>
  1012b2:	8b 45 08             	mov    0x8(%ebp),%eax
  1012b5:	89 45 fc             	mov    %eax,-0x4(%ebp)
  1012b8:	83 45 f8 10          	addl   $0x10,-0x8(%ebp)
  1012bc:	83 45 10 01          	addl   $0x1,0x10(%ebp)
  1012c0:	8b 45 10             	mov    0x10(%ebp),%eax
  1012c3:	0f b6 00             	movzbl (%eax),%eax
  1012c6:	84 c0                	test   %al,%al
  1012c8:	75 9d                	jne    101267 <vbe_print_at+0x14>
  1012ca:	90                   	nop
  1012cb:	90                   	nop
  1012cc:	c9                   	leave
  1012cd:	c3                   	ret

001012ce <vbe_print>:
  1012ce:	55                   	push   %ebp
  1012cf:	89 e5                	mov    %esp,%ebp
  1012d1:	83 ec 08             	sub    $0x8,%esp
  1012d4:	a1 10 80 11 00       	mov    0x118010,%eax
  1012d9:	85 c0                	test   %eax,%eax
  1012db:	74 0d                	je     1012ea <vbe_print+0x1c>
  1012dd:	a1 14 80 11 00       	mov    0x118014,%eax
  1012e2:	85 c0                	test   %eax,%eax
  1012e4:	0f 85 b5 00 00 00    	jne    10139f <vbe_print+0xd1>
  1012ea:	83 ec 0c             	sub    $0xc,%esp
  1012ed:	ff 75 08             	push   0x8(%ebp)
  1012f0:	e8 25 f3 ff ff       	call   10061a <vga_print>
  1012f5:	83 c4 10             	add    $0x10,%esp
  1012f8:	e9 b0 00 00 00       	jmp    1013ad <vbe_print+0xdf>
  1012fd:	8b 45 08             	mov    0x8(%ebp),%eax
  101300:	0f b6 00             	movzbl (%eax),%eax
  101303:	3c 0a                	cmp    $0xa,%al
  101305:	75 19                	jne    101320 <vbe_print+0x52>
  101307:	c7 05 24 80 11 00 00 	movl   $0x0,0x118024
  10130e:	00 00 00 
  101311:	a1 28 80 11 00       	mov    0x118028,%eax
  101316:	83 c0 10             	add    $0x10,%eax
  101319:	a3 28 80 11 00       	mov    %eax,0x118028
  10131e:	eb 5d                	jmp    10137d <vbe_print+0xaf>
  101320:	8b 45 08             	mov    0x8(%ebp),%eax
  101323:	0f b6 00             	movzbl (%eax),%eax
  101326:	0f be c8             	movsbl %al,%ecx
  101329:	8b 15 28 80 11 00    	mov    0x118028,%edx
  10132f:	a1 24 80 11 00       	mov    0x118024,%eax
  101334:	83 ec 0c             	sub    $0xc,%esp
  101337:	ff 75 10             	push   0x10(%ebp)
  10133a:	ff 75 0c             	push   0xc(%ebp)
  10133d:	51                   	push   %ecx
  10133e:	52                   	push   %edx
  10133f:	50                   	push   %eax
  101340:	e8 64 fe ff ff       	call   1011a9 <vbe_putchar>
  101345:	83 c4 20             	add    $0x20,%esp
  101348:	a1 24 80 11 00       	mov    0x118024,%eax
  10134d:	83 c0 08             	add    $0x8,%eax
  101350:	a3 24 80 11 00       	mov    %eax,0x118024
  101355:	a1 24 80 11 00       	mov    0x118024,%eax
  10135a:	8d 50 07             	lea    0x7(%eax),%edx
  10135d:	a1 14 80 11 00       	mov    0x118014,%eax
  101362:	39 c2                	cmp    %eax,%edx
  101364:	7c 17                	jl     10137d <vbe_print+0xaf>
  101366:	c7 05 24 80 11 00 00 	movl   $0x0,0x118024
  10136d:	00 00 00 
  101370:	a1 28 80 11 00       	mov    0x118028,%eax
  101375:	83 c0 10             	add    $0x10,%eax
  101378:	a3 28 80 11 00       	mov    %eax,0x118028
  10137d:	a1 28 80 11 00       	mov    0x118028,%eax
  101382:	8d 50 0f             	lea    0xf(%eax),%edx
  101385:	a1 18 80 11 00       	mov    0x118018,%eax
  10138a:	39 c2                	cmp    %eax,%edx
  10138c:	7c 0d                	jl     10139b <vbe_print+0xcd>
  10138e:	a1 18 80 11 00       	mov    0x118018,%eax
  101393:	83 e8 10             	sub    $0x10,%eax
  101396:	a3 28 80 11 00       	mov    %eax,0x118028
  10139b:	83 45 08 01          	addl   $0x1,0x8(%ebp)
  10139f:	8b 45 08             	mov    0x8(%ebp),%eax
  1013a2:	0f b6 00             	movzbl (%eax),%eax
  1013a5:	84 c0                	test   %al,%al
  1013a7:	0f 85 50 ff ff ff    	jne    1012fd <vbe_print+0x2f>
  1013ad:	c9                   	leave
  1013ae:	c3                   	ret

001013af <vbe_emergency_text_mode>:
  1013af:	55                   	push   %ebp
  1013b0:	89 e5                	mov    %esp,%ebp
  1013b2:	83 ec 08             	sub    $0x8,%esp
  1013b5:	6a 00                	push   $0x0
  1013b7:	68 c4 03 00 00       	push   $0x3c4
  1013bc:	e8 e1 fb ff ff       	call   100fa2 <outb>
  1013c1:	83 c4 08             	add    $0x8,%esp
  1013c4:	6a 03                	push   $0x3
  1013c6:	68 c5 03 00 00       	push   $0x3c5
  1013cb:	e8 d2 fb ff ff       	call   100fa2 <outb>
  1013d0:	83 c4 08             	add    $0x8,%esp
  1013d3:	6a 01                	push   $0x1
  1013d5:	68 c4 03 00 00       	push   $0x3c4
  1013da:	e8 c3 fb ff ff       	call   100fa2 <outb>
  1013df:	83 c4 08             	add    $0x8,%esp
  1013e2:	6a 00                	push   $0x0
  1013e4:	68 c5 03 00 00       	push   $0x3c5
  1013e9:	e8 b4 fb ff ff       	call   100fa2 <outb>
  1013ee:	83 c4 08             	add    $0x8,%esp
  1013f1:	6a 02                	push   $0x2
  1013f3:	68 c4 03 00 00       	push   $0x3c4
  1013f8:	e8 a5 fb ff ff       	call   100fa2 <outb>
  1013fd:	83 c4 08             	add    $0x8,%esp
  101400:	6a 03                	push   $0x3
  101402:	68 c5 03 00 00       	push   $0x3c5
  101407:	e8 96 fb ff ff       	call   100fa2 <outb>
  10140c:	83 c4 08             	add    $0x8,%esp
  10140f:	6a 03                	push   $0x3
  101411:	68 c4 03 00 00       	push   $0x3c4
  101416:	e8 87 fb ff ff       	call   100fa2 <outb>
  10141b:	83 c4 08             	add    $0x8,%esp
  10141e:	6a 00                	push   $0x0
  101420:	68 c5 03 00 00       	push   $0x3c5
  101425:	e8 78 fb ff ff       	call   100fa2 <outb>
  10142a:	83 c4 08             	add    $0x8,%esp
  10142d:	6a 04                	push   $0x4
  10142f:	68 c4 03 00 00       	push   $0x3c4
  101434:	e8 69 fb ff ff       	call   100fa2 <outb>
  101439:	83 c4 08             	add    $0x8,%esp
  10143c:	6a 02                	push   $0x2
  10143e:	68 c5 03 00 00       	push   $0x3c5
  101443:	e8 5a fb ff ff       	call   100fa2 <outb>
  101448:	83 c4 08             	add    $0x8,%esp
  10144b:	6a 67                	push   $0x67
  10144d:	68 c2 03 00 00       	push   $0x3c2
  101452:	e8 4b fb ff ff       	call   100fa2 <outb>
  101457:	83 c4 08             	add    $0x8,%esp
  10145a:	6a 11                	push   $0x11
  10145c:	68 d4 03 00 00       	push   $0x3d4
  101461:	e8 3c fb ff ff       	call   100fa2 <outb>
  101466:	83 c4 08             	add    $0x8,%esp
  101469:	68 d5 03 00 00       	push   $0x3d5
  10146e:	e8 4e fb ff ff       	call   100fc1 <inb>
  101473:	83 c4 04             	add    $0x4,%esp
  101476:	0f b6 c0             	movzbl %al,%eax
  101479:	83 e0 7f             	and    $0x7f,%eax
  10147c:	50                   	push   %eax
  10147d:	68 d5 03 00 00       	push   $0x3d5
  101482:	e8 1b fb ff ff       	call   100fa2 <outb>
  101487:	83 c4 08             	add    $0x8,%esp
  10148a:	6a 05                	push   $0x5
  10148c:	68 ce 03 00 00       	push   $0x3ce
  101491:	e8 0c fb ff ff       	call   100fa2 <outb>
  101496:	83 c4 08             	add    $0x8,%esp
  101499:	6a 10                	push   $0x10
  10149b:	68 cf 03 00 00       	push   $0x3cf
  1014a0:	e8 fd fa ff ff       	call   100fa2 <outb>
  1014a5:	83 c4 08             	add    $0x8,%esp
  1014a8:	6a 06                	push   $0x6
  1014aa:	68 ce 03 00 00       	push   $0x3ce
  1014af:	e8 ee fa ff ff       	call   100fa2 <outb>
  1014b4:	83 c4 08             	add    $0x8,%esp
  1014b7:	6a 0e                	push   $0xe
  1014b9:	68 cf 03 00 00       	push   $0x3cf
  1014be:	e8 df fa ff ff       	call   100fa2 <outb>
  1014c3:	83 c4 08             	add    $0x8,%esp
  1014c6:	e8 3b f0 ff ff       	call   100506 <vga_clear>
  1014cb:	90                   	nop
  1014cc:	c9                   	leave
  1014cd:	c3                   	ret

001014ce <outw>:
  1014ce:	55                   	push   %ebp
  1014cf:	89 e5                	mov    %esp,%ebp
  1014d1:	83 ec 08             	sub    $0x8,%esp
  1014d4:	8b 55 08             	mov    0x8(%ebp),%edx
  1014d7:	8b 45 0c             	mov    0xc(%ebp),%eax
  1014da:	66 89 55 fc          	mov    %dx,-0x4(%ebp)
  1014de:	66 89 45 f8          	mov    %ax,-0x8(%ebp)
  1014e2:	0f b7 45 f8          	movzwl -0x8(%ebp),%eax
  1014e6:	0f b7 55 fc          	movzwl -0x4(%ebp),%edx
  1014ea:	66 ef                	out    %ax,(%dx)
  1014ec:	90                   	nop
  1014ed:	c9                   	leave
  1014ee:	c3                   	ret

001014ef <inw>:
  1014ef:	55                   	push   %ebp
  1014f0:	89 e5                	mov    %esp,%ebp
  1014f2:	83 ec 14             	sub    $0x14,%esp
  1014f5:	8b 45 08             	mov    0x8(%ebp),%eax
  1014f8:	66 89 45 ec          	mov    %ax,-0x14(%ebp)
  1014fc:	0f b7 45 ec          	movzwl -0x14(%ebp),%eax
  101500:	89 c2                	mov    %eax,%edx
  101502:	66 ed                	in     (%dx),%ax
  101504:	66 89 45 fe          	mov    %ax,-0x2(%ebp)
  101508:	0f b7 45 fe          	movzwl -0x2(%ebp),%eax
  10150c:	c9                   	leave
  10150d:	c3                   	ret

0010150e <outl>:
  10150e:	55                   	push   %ebp
  10150f:	89 e5                	mov    %esp,%ebp
  101511:	83 ec 04             	sub    $0x4,%esp
  101514:	8b 45 08             	mov    0x8(%ebp),%eax
  101517:	66 89 45 fc          	mov    %ax,-0x4(%ebp)
  10151b:	8b 45 0c             	mov    0xc(%ebp),%eax
  10151e:	0f b7 55 fc          	movzwl -0x4(%ebp),%edx
  101522:	ef                   	out    %eax,(%dx)
  101523:	90                   	nop
  101524:	c9                   	leave
  101525:	c3                   	ret

00101526 <inl>:
  101526:	55                   	push   %ebp
  101527:	89 e5                	mov    %esp,%ebp
  101529:	83 ec 14             	sub    $0x14,%esp
  10152c:	8b 45 08             	mov    0x8(%ebp),%eax
  10152f:	66 89 45 ec          	mov    %ax,-0x14(%ebp)
  101533:	0f b7 45 ec          	movzwl -0x14(%ebp),%eax
  101537:	89 c2                	mov    %eax,%edx
  101539:	ed                   	in     (%dx),%eax
  10153a:	89 45 fc             	mov    %eax,-0x4(%ebp)
  10153d:	8b 45 fc             	mov    -0x4(%ebp),%eax
  101540:	c9                   	leave
  101541:	c3                   	ret

00101542 <bga_write_register>:
  101542:	55                   	push   %ebp
  101543:	89 e5                	mov    %esp,%ebp
  101545:	83 ec 08             	sub    $0x8,%esp
  101548:	8b 55 08             	mov    0x8(%ebp),%edx
  10154b:	8b 45 0c             	mov    0xc(%ebp),%eax
  10154e:	66 89 55 fc          	mov    %dx,-0x4(%ebp)
  101552:	66 89 45 f8          	mov    %ax,-0x8(%ebp)
  101556:	0f b7 45 fc          	movzwl -0x4(%ebp),%eax
  10155a:	50                   	push   %eax
  10155b:	68 ce 01 00 00       	push   $0x1ce
  101560:	e8 69 ff ff ff       	call   1014ce <outw>
  101565:	83 c4 08             	add    $0x8,%esp
  101568:	0f b7 45 f8          	movzwl -0x8(%ebp),%eax
  10156c:	50                   	push   %eax
  10156d:	68 cf 01 00 00       	push   $0x1cf
  101572:	e8 57 ff ff ff       	call   1014ce <outw>
  101577:	83 c4 08             	add    $0x8,%esp
  10157a:	90                   	nop
  10157b:	c9                   	leave
  10157c:	c3                   	ret

0010157d <bga_read_register>:
  10157d:	55                   	push   %ebp
  10157e:	89 e5                	mov    %esp,%ebp
  101580:	83 ec 04             	sub    $0x4,%esp
  101583:	8b 45 08             	mov    0x8(%ebp),%eax
  101586:	66 89 45 fc          	mov    %ax,-0x4(%ebp)
  10158a:	0f b7 45 fc          	movzwl -0x4(%ebp),%eax
  10158e:	50                   	push   %eax
  10158f:	68 ce 01 00 00       	push   $0x1ce
  101594:	e8 35 ff ff ff       	call   1014ce <outw>
  101599:	83 c4 08             	add    $0x8,%esp
  10159c:	68 cf 01 00 00       	push   $0x1cf
  1015a1:	e8 49 ff ff ff       	call   1014ef <inw>
  1015a6:	83 c4 04             	add    $0x4,%esp
  1015a9:	c9                   	leave
  1015aa:	c3                   	ret

001015ab <bga_is_available>:
  1015ab:	55                   	push   %ebp
  1015ac:	89 e5                	mov    %esp,%ebp
  1015ae:	83 ec 10             	sub    $0x10,%esp
  1015b1:	6a 00                	push   $0x0
  1015b3:	e8 c5 ff ff ff       	call   10157d <bga_read_register>
  1015b8:	83 c4 04             	add    $0x4,%esp
  1015bb:	66 89 45 fe          	mov    %ax,-0x2(%ebp)
  1015bf:	66 81 7d fe bf b0    	cmpw   $0xb0bf,-0x2(%ebp)
  1015c5:	76 0f                	jbe    1015d6 <bga_is_available+0x2b>
  1015c7:	66 81 7d fe c5 b0    	cmpw   $0xb0c5,-0x2(%ebp)
  1015cd:	77 07                	ja     1015d6 <bga_is_available+0x2b>
  1015cf:	b8 01 00 00 00       	mov    $0x1,%eax
  1015d4:	eb 05                	jmp    1015db <bga_is_available+0x30>
  1015d6:	b8 00 00 00 00       	mov    $0x0,%eax
  1015db:	c9                   	leave
  1015dc:	c3                   	ret

001015dd <bga_set_video_mode>:
  1015dd:	55                   	push   %ebp
  1015de:	89 e5                	mov    %esp,%ebp
  1015e0:	83 ec 0c             	sub    $0xc,%esp
  1015e3:	8b 4d 08             	mov    0x8(%ebp),%ecx
  1015e6:	8b 55 0c             	mov    0xc(%ebp),%edx
  1015e9:	8b 45 10             	mov    0x10(%ebp),%eax
  1015ec:	66 89 4d fc          	mov    %cx,-0x4(%ebp)
  1015f0:	66 89 55 f8          	mov    %dx,-0x8(%ebp)
  1015f4:	66 89 45 f4          	mov    %ax,-0xc(%ebp)
  1015f8:	6a 00                	push   $0x0
  1015fa:	6a 04                	push   $0x4
  1015fc:	e8 41 ff ff ff       	call   101542 <bga_write_register>
  101601:	83 c4 08             	add    $0x8,%esp
  101604:	0f b7 45 fc          	movzwl -0x4(%ebp),%eax
  101608:	50                   	push   %eax
  101609:	6a 01                	push   $0x1
  10160b:	e8 32 ff ff ff       	call   101542 <bga_write_register>
  101610:	83 c4 08             	add    $0x8,%esp
  101613:	0f b7 45 f8          	movzwl -0x8(%ebp),%eax
  101617:	50                   	push   %eax
  101618:	6a 02                	push   $0x2
  10161a:	e8 23 ff ff ff       	call   101542 <bga_write_register>
  10161f:	83 c4 08             	add    $0x8,%esp
  101622:	0f b7 45 f4          	movzwl -0xc(%ebp),%eax
  101626:	50                   	push   %eax
  101627:	6a 03                	push   $0x3
  101629:	e8 14 ff ff ff       	call   101542 <bga_write_register>
  10162e:	83 c4 08             	add    $0x8,%esp
  101631:	6a 41                	push   $0x41
  101633:	6a 04                	push   $0x4
  101635:	e8 08 ff ff ff       	call   101542 <bga_write_register>
  10163a:	83 c4 08             	add    $0x8,%esp
  10163d:	90                   	nop
  10163e:	c9                   	leave
  10163f:	c3                   	ret

00101640 <pci_read_config>:
  101640:	55                   	push   %ebp
  101641:	89 e5                	mov    %esp,%ebp
  101643:	53                   	push   %ebx
  101644:	83 ec 20             	sub    $0x20,%esp
  101647:	8b 5d 08             	mov    0x8(%ebp),%ebx
  10164a:	8b 4d 0c             	mov    0xc(%ebp),%ecx
  10164d:	8b 55 10             	mov    0x10(%ebp),%edx
  101650:	8b 45 14             	mov    0x14(%ebp),%eax
  101653:	88 5d e8             	mov    %bl,-0x18(%ebp)
  101656:	88 4d e4             	mov    %cl,-0x1c(%ebp)
  101659:	88 55 e0             	mov    %dl,-0x20(%ebp)
  10165c:	88 45 dc             	mov    %al,-0x24(%ebp)
  10165f:	0f b6 45 e8          	movzbl -0x18(%ebp),%eax
  101663:	c1 e0 10             	shl    $0x10,%eax
  101666:	89 c2                	mov    %eax,%edx
  101668:	0f b6 45 e4          	movzbl -0x1c(%ebp),%eax
  10166c:	c1 e0 0b             	shl    $0xb,%eax
  10166f:	09 c2                	or     %eax,%edx
  101671:	0f b6 45 e0          	movzbl -0x20(%ebp),%eax
  101675:	c1 e0 08             	shl    $0x8,%eax
  101678:	09 c2                	or     %eax,%edx
  10167a:	0f b6 45 dc          	movzbl -0x24(%ebp),%eax
  10167e:	25 fc 00 00 00       	and    $0xfc,%eax
  101683:	09 d0                	or     %edx,%eax
  101685:	0d 00 00 00 80       	or     $0x80000000,%eax
  10168a:	89 45 f8             	mov    %eax,-0x8(%ebp)
  10168d:	ff 75 f8             	push   -0x8(%ebp)
  101690:	68 f8 0c 00 00       	push   $0xcf8
  101695:	e8 74 fe ff ff       	call   10150e <outl>
  10169a:	83 c4 08             	add    $0x8,%esp
  10169d:	68 fc 0c 00 00       	push   $0xcfc
  1016a2:	e8 7f fe ff ff       	call   101526 <inl>
  1016a7:	83 c4 04             	add    $0x4,%esp
  1016aa:	8b 5d fc             	mov    -0x4(%ebp),%ebx
  1016ad:	c9                   	leave
  1016ae:	c3                   	ret

001016af <bga_get_framebuffer_addr>:
  1016af:	55                   	push   %ebp
  1016b0:	89 e5                	mov    %esp,%ebp
  1016b2:	83 ec 10             	sub    $0x10,%esp
  1016b5:	c6 45 ff 00          	movb   $0x0,-0x1(%ebp)
  1016b9:	eb 53                	jmp    10170e <bga_get_framebuffer_addr+0x5f>
  1016bb:	0f b6 45 ff          	movzbl -0x1(%ebp),%eax
  1016bf:	6a 00                	push   $0x0
  1016c1:	6a 00                	push   $0x0
  1016c3:	50                   	push   %eax
  1016c4:	6a 00                	push   $0x0
  1016c6:	e8 75 ff ff ff       	call   101640 <pci_read_config>
  1016cb:	83 c4 10             	add    $0x10,%esp
  1016ce:	89 45 f8             	mov    %eax,-0x8(%ebp)
  1016d1:	81 7d f8 34 12 11 11 	cmpl   $0x11111234,-0x8(%ebp)
  1016d8:	75 2a                	jne    101704 <bga_get_framebuffer_addr+0x55>
  1016da:	0f b6 45 ff          	movzbl -0x1(%ebp),%eax
  1016de:	6a 10                	push   $0x10
  1016e0:	6a 00                	push   $0x0
  1016e2:	50                   	push   %eax
  1016e3:	6a 00                	push   $0x0
  1016e5:	e8 56 ff ff ff       	call   101640 <pci_read_config>
  1016ea:	83 c4 10             	add    $0x10,%esp
  1016ed:	89 45 f4             	mov    %eax,-0xc(%ebp)
  1016f0:	83 7d f4 00          	cmpl   $0x0,-0xc(%ebp)
  1016f4:	74 0e                	je     101704 <bga_get_framebuffer_addr+0x55>
  1016f6:	83 7d f4 ff          	cmpl   $0xffffffff,-0xc(%ebp)
  1016fa:	74 08                	je     101704 <bga_get_framebuffer_addr+0x55>
  1016fc:	8b 45 f4             	mov    -0xc(%ebp),%eax
  1016ff:	83 e0 f0             	and    $0xfffffff0,%eax
  101702:	eb 15                	jmp    101719 <bga_get_framebuffer_addr+0x6a>
  101704:	0f b6 45 ff          	movzbl -0x1(%ebp),%eax
  101708:	83 c0 01             	add    $0x1,%eax
  10170b:	88 45 ff             	mov    %al,-0x1(%ebp)
  10170e:	80 7d ff 1f          	cmpb   $0x1f,-0x1(%ebp)
  101712:	76 a7                	jbe    1016bb <bga_get_framebuffer_addr+0xc>
  101714:	b8 00 00 00 fd       	mov    $0xfd000000,%eax
  101719:	c9                   	leave
  10171a:	c3                   	ret

0010171b <bga_get_framebuffer_size>:
  10171b:	55                   	push   %ebp
  10171c:	89 e5                	mov    %esp,%ebp
  10171e:	0f b7 05 30 80 11 00 	movzwl 0x118030,%eax
  101725:	0f b7 d0             	movzwl %ax,%edx
  101728:	0f b7 05 32 80 11 00 	movzwl 0x118032,%eax
  10172f:	0f b7 c0             	movzwl %ax,%eax
  101732:	0f af d0             	imul   %eax,%edx
  101735:	0f b7 05 34 80 11 00 	movzwl 0x118034,%eax
  10173c:	66 c1 e8 03          	shr    $0x3,%ax
  101740:	0f b7 c0             	movzwl %ax,%eax
  101743:	0f af c2             	imul   %edx,%eax
  101746:	5d                   	pop    %ebp
  101747:	c3                   	ret

00101748 <bga_get_width>:
  101748:	55                   	push   %ebp
  101749:	89 e5                	mov    %esp,%ebp
  10174b:	0f b7 05 30 80 11 00 	movzwl 0x118030,%eax
  101752:	5d                   	pop    %ebp
  101753:	c3                   	ret

00101754 <bga_get_height>:
  101754:	55                   	push   %ebp
  101755:	89 e5                	mov    %esp,%ebp
  101757:	0f b7 05 32 80 11 00 	movzwl 0x118032,%eax
  10175e:	5d                   	pop    %ebp
  10175f:	c3                   	ret

00101760 <bga_init>:
  101760:	55                   	push   %ebp
  101761:	89 e5                	mov    %esp,%ebp
  101763:	83 ec 1c             	sub    $0x1c,%esp
  101766:	8b 4d 08             	mov    0x8(%ebp),%ecx
  101769:	8b 55 0c             	mov    0xc(%ebp),%edx
  10176c:	8b 45 10             	mov    0x10(%ebp),%eax
  10176f:	66 89 4d ec          	mov    %cx,-0x14(%ebp)
  101773:	66 89 55 e8          	mov    %dx,-0x18(%ebp)
  101777:	66 89 45 e4          	mov    %ax,-0x1c(%ebp)
  10177b:	e8 2b fe ff ff       	call   1015ab <bga_is_available>
  101780:	85 c0                	test   %eax,%eax
  101782:	75 0a                	jne    10178e <bga_init+0x2e>
  101784:	b8 00 00 00 00       	mov    $0x0,%eax
  101789:	e9 82 00 00 00       	jmp    101810 <bga_init+0xb0>
  10178e:	0f b7 4d e4          	movzwl -0x1c(%ebp),%ecx
  101792:	0f b7 55 e8          	movzwl -0x18(%ebp),%edx
  101796:	0f b7 45 ec          	movzwl -0x14(%ebp),%eax
  10179a:	51                   	push   %ecx
  10179b:	52                   	push   %edx
  10179c:	50                   	push   %eax
  10179d:	e8 3b fe ff ff       	call   1015dd <bga_set_video_mode>
  1017a2:	83 c4 0c             	add    $0xc,%esp
  1017a5:	6a 01                	push   $0x1
  1017a7:	e8 d1 fd ff ff       	call   10157d <bga_read_register>
  1017ac:	83 c4 04             	add    $0x4,%esp
  1017af:	66 89 45 fe          	mov    %ax,-0x2(%ebp)
  1017b3:	6a 02                	push   $0x2
  1017b5:	e8 c3 fd ff ff       	call   10157d <bga_read_register>
  1017ba:	83 c4 04             	add    $0x4,%esp
  1017bd:	66 89 45 fc          	mov    %ax,-0x4(%ebp)
  1017c1:	6a 03                	push   $0x3
  1017c3:	e8 b5 fd ff ff       	call   10157d <bga_read_register>
  1017c8:	83 c4 04             	add    $0x4,%esp
  1017cb:	66 89 45 fa          	mov    %ax,-0x6(%ebp)
  1017cf:	0f b7 45 fe          	movzwl -0x2(%ebp),%eax
  1017d3:	66 a3 30 80 11 00    	mov    %ax,0x118030
  1017d9:	0f b7 45 fc          	movzwl -0x4(%ebp),%eax
  1017dd:	66 a3 32 80 11 00    	mov    %ax,0x118032
  1017e3:	0f b7 45 fa          	movzwl -0x6(%ebp),%eax
  1017e7:	66 a3 34 80 11 00    	mov    %ax,0x118034
  1017ed:	e8 bd fe ff ff       	call   1016af <bga_get_framebuffer_addr>
  1017f2:	a3 2c 80 11 00       	mov    %eax,0x11802c
  1017f7:	c7 05 38 80 11 00 00 	movl   $0x0,0x118038
  1017fe:	00 00 00 
  101801:	c7 05 3c 80 11 00 00 	movl   $0x0,0x11803c
  101808:	00 00 00 
  10180b:	b8 01 00 00 00       	mov    $0x1,%eax
  101810:	c9                   	leave
  101811:	c3                   	ret

00101812 <bga_clear>:
  101812:	55                   	push   %ebp
  101813:	89 e5                	mov    %esp,%ebp
  101815:	83 ec 10             	sub    $0x10,%esp
  101818:	a1 2c 80 11 00       	mov    0x11802c,%eax
  10181d:	85 c0                	test   %eax,%eax
  10181f:	74 49                	je     10186a <bga_clear+0x58>
  101821:	0f b7 05 30 80 11 00 	movzwl 0x118030,%eax
  101828:	0f b7 d0             	movzwl %ax,%edx
  10182b:	0f b7 05 32 80 11 00 	movzwl 0x118032,%eax
  101832:	0f b7 c0             	movzwl %ax,%eax
  101835:	0f af c2             	imul   %edx,%eax
  101838:	89 45 f8             	mov    %eax,-0x8(%ebp)
  10183b:	c7 45 fc 00 00 00 00 	movl   $0x0,-0x4(%ebp)
  101842:	eb 1c                	jmp    101860 <bga_clear+0x4e>
  101844:	a1 2c 80 11 00       	mov    0x11802c,%eax
  101849:	8b 55 fc             	mov    -0x4(%ebp),%edx
  10184c:	c1 e2 02             	shl    $0x2,%edx
  10184f:	01 d0                	add    %edx,%eax
  101851:	8b 55 08             	mov    0x8(%ebp),%edx
  101854:	81 e2 ff ff ff 00    	and    $0xffffff,%edx
  10185a:	89 10                	mov    %edx,(%eax)
  10185c:	83 45 fc 01          	addl   $0x1,-0x4(%ebp)
  101860:	8b 45 fc             	mov    -0x4(%ebp),%eax
  101863:	3b 45 f8             	cmp    -0x8(%ebp),%eax
  101866:	72 dc                	jb     101844 <bga_clear+0x32>
  101868:	eb 01                	jmp    10186b <bga_clear+0x59>
  10186a:	90                   	nop
  10186b:	c9                   	leave
  10186c:	c3                   	ret

0010186d <bga_putpixel>:
  10186d:	55                   	push   %ebp
  10186e:	89 e5                	mov    %esp,%ebp
  101870:	a1 2c 80 11 00       	mov    0x11802c,%eax
  101875:	85 c0                	test   %eax,%eax
  101877:	74 57                	je     1018d0 <bga_putpixel+0x63>
  101879:	83 7d 08 00          	cmpl   $0x0,0x8(%ebp)
  10187d:	78 54                	js     1018d3 <bga_putpixel+0x66>
  10187f:	0f b7 05 30 80 11 00 	movzwl 0x118030,%eax
  101886:	0f b7 c0             	movzwl %ax,%eax
  101889:	39 45 08             	cmp    %eax,0x8(%ebp)
  10188c:	7d 45                	jge    1018d3 <bga_putpixel+0x66>
  10188e:	83 7d 0c 00          	cmpl   $0x0,0xc(%ebp)
  101892:	78 3f                	js     1018d3 <bga_putpixel+0x66>
  101894:	0f b7 05 32 80 11 00 	movzwl 0x118032,%eax
  10189b:	0f b7 c0             	movzwl %ax,%eax
  10189e:	39 45 0c             	cmp    %eax,0xc(%ebp)
  1018a1:	7d 30                	jge    1018d3 <bga_putpixel+0x66>
  1018a3:	8b 15 2c 80 11 00    	mov    0x11802c,%edx
  1018a9:	0f b7 05 30 80 11 00 	movzwl 0x118030,%eax
  1018b0:	0f b7 c0             	movzwl %ax,%eax
  1018b3:	0f af 45 0c          	imul   0xc(%ebp),%eax
  1018b7:	89 c1                	mov    %eax,%ecx
  1018b9:	8b 45 08             	mov    0x8(%ebp),%eax
  1018bc:	01 c8                	add    %ecx,%eax
  1018be:	c1 e0 02             	shl    $0x2,%eax
  1018c1:	01 d0                	add    %edx,%eax
  1018c3:	8b 55 10             	mov    0x10(%ebp),%edx
  1018c6:	81 e2 ff ff ff 00    	and    $0xffffff,%edx
  1018cc:	89 10                	mov    %edx,(%eax)
  1018ce:	eb 04                	jmp    1018d4 <bga_putpixel+0x67>
  1018d0:	90                   	nop
  1018d1:	eb 01                	jmp    1018d4 <bga_putpixel+0x67>
  1018d3:	90                   	nop
  1018d4:	5d                   	pop    %ebp
  1018d5:	c3                   	ret

001018d6 <bga_putchar>:
  1018d6:	55                   	push   %ebp
  1018d7:	89 e5                	mov    %esp,%ebp
  1018d9:	53                   	push   %ebx
  1018da:	83 ec 24             	sub    $0x24,%esp
  1018dd:	8b 45 10             	mov    0x10(%ebp),%eax
  1018e0:	88 45 d8             	mov    %al,-0x28(%ebp)
  1018e3:	0f b6 45 d8          	movzbl -0x28(%ebp),%eax
  1018e7:	88 45 fb             	mov    %al,-0x5(%ebp)
  1018ea:	0f b6 45 fb          	movzbl -0x5(%ebp),%eax
  1018ee:	84 c0                	test   %al,%al
  1018f0:	79 04                	jns    1018f6 <bga_putchar+0x20>
  1018f2:	c6 45 fb 00          	movb   $0x0,-0x5(%ebp)
  1018f6:	0f b6 45 fb          	movzbl -0x5(%ebp),%eax
  1018fa:	c1 e0 04             	shl    $0x4,%eax
  1018fd:	05 00 58 10 00       	add    $0x105800,%eax
  101902:	89 45 ec             	mov    %eax,-0x14(%ebp)
  101905:	c7 45 f4 00 00 00 00 	movl   $0x0,-0xc(%ebp)
  10190c:	eb 5a                	jmp    101968 <bga_putchar+0x92>
  10190e:	8b 55 f4             	mov    -0xc(%ebp),%edx
  101911:	8b 45 ec             	mov    -0x14(%ebp),%eax
  101914:	01 d0                	add    %edx,%eax
  101916:	0f b6 00             	movzbl (%eax),%eax
  101919:	88 45 eb             	mov    %al,-0x15(%ebp)
  10191c:	c7 45 f0 00 00 00 00 	movl   $0x0,-0x10(%ebp)
  101923:	eb 39                	jmp    10195e <bga_putchar+0x88>
  101925:	0f b6 55 eb          	movzbl -0x15(%ebp),%edx
  101929:	8b 45 f0             	mov    -0x10(%ebp),%eax
  10192c:	bb 80 00 00 00       	mov    $0x80,%ebx
  101931:	89 c1                	mov    %eax,%ecx
  101933:	d3 fb                	sar    %cl,%ebx
  101935:	89 d8                	mov    %ebx,%eax
  101937:	21 d0                	and    %edx,%eax
  101939:	85 c0                	test   %eax,%eax
  10193b:	74 1d                	je     10195a <bga_putchar+0x84>
  10193d:	8b 55 0c             	mov    0xc(%ebp),%edx
  101940:	8b 45 f4             	mov    -0xc(%ebp),%eax
  101943:	01 c2                	add    %eax,%edx
  101945:	8b 4d 08             	mov    0x8(%ebp),%ecx
  101948:	8b 45 f0             	mov    -0x10(%ebp),%eax
  10194b:	01 c8                	add    %ecx,%eax
  10194d:	ff 75 14             	push   0x14(%ebp)
  101950:	52                   	push   %edx
  101951:	50                   	push   %eax
  101952:	e8 16 ff ff ff       	call   10186d <bga_putpixel>
  101957:	83 c4 0c             	add    $0xc,%esp
  10195a:	83 45 f0 01          	addl   $0x1,-0x10(%ebp)
  10195e:	83 7d f0 07          	cmpl   $0x7,-0x10(%ebp)
  101962:	7e c1                	jle    101925 <bga_putchar+0x4f>
  101964:	83 45 f4 01          	addl   $0x1,-0xc(%ebp)
  101968:	83 7d f4 0f          	cmpl   $0xf,-0xc(%ebp)
  10196c:	7e a0                	jle    10190e <bga_putchar+0x38>
  10196e:	90                   	nop
  10196f:	90                   	nop
  101970:	8b 5d fc             	mov    -0x4(%ebp),%ebx
  101973:	c9                   	leave
  101974:	c3                   	ret

00101975 <bga_print>:
  101975:	55                   	push   %ebp
  101976:	89 e5                	mov    %esp,%ebp
  101978:	a1 2c 80 11 00       	mov    0x11802c,%eax
  10197d:	85 c0                	test   %eax,%eax
  10197f:	0f 84 dc 00 00 00    	je     101a61 <bga_print+0xec>
  101985:	e9 c7 00 00 00       	jmp    101a51 <bga_print+0xdc>
  10198a:	8b 45 08             	mov    0x8(%ebp),%eax
  10198d:	0f b6 00             	movzbl (%eax),%eax
  101990:	3c 0a                	cmp    $0xa,%al
  101992:	75 3d                	jne    1019d1 <bga_print+0x5c>
  101994:	c7 05 38 80 11 00 00 	movl   $0x0,0x118038
  10199b:	00 00 00 
  10199e:	a1 3c 80 11 00       	mov    0x11803c,%eax
  1019a3:	83 c0 10             	add    $0x10,%eax
  1019a6:	a3 3c 80 11 00       	mov    %eax,0x11803c
  1019ab:	0f b7 05 32 80 11 00 	movzwl 0x118032,%eax
  1019b2:	0f b7 d0             	movzwl %ax,%edx
  1019b5:	a1 3c 80 11 00       	mov    0x11803c,%eax
  1019ba:	39 c2                	cmp    %eax,%edx
  1019bc:	7f 0a                	jg     1019c8 <bga_print+0x53>
  1019be:	c7 05 3c 80 11 00 00 	movl   $0x0,0x11803c
  1019c5:	00 00 00 
  1019c8:	83 45 08 01          	addl   $0x1,0x8(%ebp)
  1019cc:	e9 80 00 00 00       	jmp    101a51 <bga_print+0xdc>
  1019d1:	8b 45 08             	mov    0x8(%ebp),%eax
  1019d4:	0f b6 00             	movzbl (%eax),%eax
  1019d7:	0f be c8             	movsbl %al,%ecx
  1019da:	8b 15 3c 80 11 00    	mov    0x11803c,%edx
  1019e0:	a1 38 80 11 00       	mov    0x118038,%eax
  1019e5:	ff 75 10             	push   0x10(%ebp)
  1019e8:	ff 75 0c             	push   0xc(%ebp)
  1019eb:	51                   	push   %ecx
  1019ec:	52                   	push   %edx
  1019ed:	50                   	push   %eax
  1019ee:	e8 e3 fe ff ff       	call   1018d6 <bga_putchar>
  1019f3:	83 c4 14             	add    $0x14,%esp
  1019f6:	a1 38 80 11 00       	mov    0x118038,%eax
  1019fb:	83 c0 08             	add    $0x8,%eax
  1019fe:	a3 38 80 11 00       	mov    %eax,0x118038
  101a03:	a1 38 80 11 00       	mov    0x118038,%eax
  101a08:	8d 50 07             	lea    0x7(%eax),%edx
  101a0b:	0f b7 05 30 80 11 00 	movzwl 0x118030,%eax
  101a12:	0f b7 c0             	movzwl %ax,%eax
  101a15:	39 c2                	cmp    %eax,%edx
  101a17:	7c 34                	jl     101a4d <bga_print+0xd8>
  101a19:	c7 05 38 80 11 00 00 	movl   $0x0,0x118038
  101a20:	00 00 00 
  101a23:	a1 3c 80 11 00       	mov    0x11803c,%eax
  101a28:	83 c0 10             	add    $0x10,%eax
  101a2b:	a3 3c 80 11 00       	mov    %eax,0x11803c
  101a30:	0f b7 05 32 80 11 00 	movzwl 0x118032,%eax
  101a37:	0f b7 d0             	movzwl %ax,%edx
  101a3a:	a1 3c 80 11 00       	mov    0x11803c,%eax
  101a3f:	39 c2                	cmp    %eax,%edx
  101a41:	7f 0a                	jg     101a4d <bga_print+0xd8>
  101a43:	c7 05 3c 80 11 00 00 	movl   $0x0,0x11803c
  101a4a:	00 00 00 
  101a4d:	83 45 08 01          	addl   $0x1,0x8(%ebp)
  101a51:	8b 45 08             	mov    0x8(%ebp),%eax
  101a54:	0f b6 00             	movzbl (%eax),%eax
  101a57:	84 c0                	test   %al,%al
  101a59:	0f 85 2b ff ff ff    	jne    10198a <bga_print+0x15>
  101a5f:	eb 01                	jmp    101a62 <bga_print+0xed>
  101a61:	90                   	nop
  101a62:	c9                   	leave
  101a63:	c3                   	ret

00101a64 <bga_print_at>:
  101a64:	55                   	push   %ebp
  101a65:	89 e5                	mov    %esp,%ebp
  101a67:	83 ec 10             	sub    $0x10,%esp
  101a6a:	a1 2c 80 11 00       	mov    0x11802c,%eax
  101a6f:	85 c0                	test   %eax,%eax
  101a71:	74 78                	je     101aeb <bga_print_at+0x87>
  101a73:	8b 45 08             	mov    0x8(%ebp),%eax
  101a76:	89 45 fc             	mov    %eax,-0x4(%ebp)
  101a79:	8b 45 0c             	mov    0xc(%ebp),%eax
  101a7c:	89 45 f8             	mov    %eax,-0x8(%ebp)
  101a7f:	eb 5e                	jmp    101adf <bga_print_at+0x7b>
  101a81:	8b 45 10             	mov    0x10(%ebp),%eax
  101a84:	0f b6 00             	movzbl (%eax),%eax
  101a87:	3c 0a                	cmp    $0xa,%al
  101a89:	75 10                	jne    101a9b <bga_print_at+0x37>
  101a8b:	8b 45 08             	mov    0x8(%ebp),%eax
  101a8e:	89 45 fc             	mov    %eax,-0x4(%ebp)
  101a91:	83 45 f8 10          	addl   $0x10,-0x8(%ebp)
  101a95:	83 45 10 01          	addl   $0x1,0x10(%ebp)
  101a99:	eb 44                	jmp    101adf <bga_print_at+0x7b>
  101a9b:	8b 45 10             	mov    0x10(%ebp),%eax
  101a9e:	0f b6 00             	movzbl (%eax),%eax
  101aa1:	0f be c0             	movsbl %al,%eax
  101aa4:	ff 75 18             	push   0x18(%ebp)
  101aa7:	ff 75 14             	push   0x14(%ebp)
  101aaa:	50                   	push   %eax
  101aab:	ff 75 f8             	push   -0x8(%ebp)
  101aae:	ff 75 fc             	push   -0x4(%ebp)
  101ab1:	e8 20 fe ff ff       	call   1018d6 <bga_putchar>
  101ab6:	83 c4 14             	add    $0x14,%esp
  101ab9:	83 45 fc 08          	addl   $0x8,-0x4(%ebp)
  101abd:	8b 45 fc             	mov    -0x4(%ebp),%eax
  101ac0:	8d 50 07             	lea    0x7(%eax),%edx
  101ac3:	0f b7 05 30 80 11 00 	movzwl 0x118030,%eax
  101aca:	0f b7 c0             	movzwl %ax,%eax
  101acd:	39 c2                	cmp    %eax,%edx
  101acf:	7c 0a                	jl     101adb <bga_print_at+0x77>
  101ad1:	8b 45 08             	mov    0x8(%ebp),%eax
  101ad4:	89 45 fc             	mov    %eax,-0x4(%ebp)
  101ad7:	83 45 f8 10          	addl   $0x10,-0x8(%ebp)
  101adb:	83 45 10 01          	addl   $0x1,0x10(%ebp)
  101adf:	8b 45 10             	mov    0x10(%ebp),%eax
  101ae2:	0f b6 00             	movzbl (%eax),%eax
  101ae5:	84 c0                	test   %al,%al
  101ae7:	75 98                	jne    101a81 <bga_print_at+0x1d>
  101ae9:	eb 01                	jmp    101aec <bga_print_at+0x88>
  101aeb:	90                   	nop
  101aec:	c9                   	leave
  101aed:	c3                   	ret

00101aee <bga_set_cursor>:
  101aee:	55                   	push   %ebp
  101aef:	89 e5                	mov    %esp,%ebp
  101af1:	8b 45 08             	mov    0x8(%ebp),%eax
  101af4:	a3 38 80 11 00       	mov    %eax,0x118038
  101af9:	8b 45 0c             	mov    0xc(%ebp),%eax
  101afc:	a3 3c 80 11 00       	mov    %eax,0x11803c
  101b01:	90                   	nop
  101b02:	5d                   	pop    %ebp
  101b03:	c3                   	ret

00101b04 <bga_get_cursor>:
  101b04:	55                   	push   %ebp
  101b05:	89 e5                	mov    %esp,%ebp
  101b07:	83 7d 08 00          	cmpl   $0x0,0x8(%ebp)
  101b0b:	74 0b                	je     101b18 <bga_get_cursor+0x14>
  101b0d:	8b 15 38 80 11 00    	mov    0x118038,%edx
  101b13:	8b 45 08             	mov    0x8(%ebp),%eax
  101b16:	89 10                	mov    %edx,(%eax)
  101b18:	83 7d 0c 00          	cmpl   $0x0,0xc(%ebp)
  101b1c:	74 0b                	je     101b29 <bga_get_cursor+0x25>
  101b1e:	8b 15 3c 80 11 00    	mov    0x11803c,%edx
  101b24:	8b 45 0c             	mov    0xc(%ebp),%eax
  101b27:	89 10                	mov    %edx,(%eax)
  101b29:	90                   	nop
  101b2a:	5d                   	pop    %ebp
  101b2b:	c3                   	ret

00101b2c <bga_fill_rect>:
  101b2c:	55                   	push   %ebp
  101b2d:	89 e5                	mov    %esp,%ebp
  101b2f:	83 ec 10             	sub    $0x10,%esp
  101b32:	a1 2c 80 11 00       	mov    0x11802c,%eax
  101b37:	85 c0                	test   %eax,%eax
  101b39:	0f 84 8e 00 00 00    	je     101bcd <bga_fill_rect+0xa1>
  101b3f:	8b 45 18             	mov    0x18(%ebp),%eax
  101b42:	25 ff ff ff 00       	and    $0xffffff,%eax
  101b47:	89 45 f4             	mov    %eax,-0xc(%ebp)
  101b4a:	8b 45 0c             	mov    0xc(%ebp),%eax
  101b4d:	89 45 fc             	mov    %eax,-0x4(%ebp)
  101b50:	eb 5d                	jmp    101baf <bga_fill_rect+0x83>
  101b52:	8b 45 08             	mov    0x8(%ebp),%eax
  101b55:	89 45 f8             	mov    %eax,-0x8(%ebp)
  101b58:	eb 35                	jmp    101b8f <bga_fill_rect+0x63>
  101b5a:	83 7d fc 00          	cmpl   $0x0,-0x4(%ebp)
  101b5e:	78 2b                	js     101b8b <bga_fill_rect+0x5f>
  101b60:	83 7d f8 00          	cmpl   $0x0,-0x8(%ebp)
  101b64:	78 25                	js     101b8b <bga_fill_rect+0x5f>
  101b66:	8b 15 2c 80 11 00    	mov    0x11802c,%edx
  101b6c:	0f b7 05 30 80 11 00 	movzwl 0x118030,%eax
  101b73:	0f b7 c0             	movzwl %ax,%eax
  101b76:	0f af 45 fc          	imul   -0x4(%ebp),%eax
  101b7a:	89 c1                	mov    %eax,%ecx
  101b7c:	8b 45 f8             	mov    -0x8(%ebp),%eax
  101b7f:	01 c8                	add    %ecx,%eax
  101b81:	c1 e0 02             	shl    $0x2,%eax
  101b84:	01 c2                	add    %eax,%edx
  101b86:	8b 45 f4             	mov    -0xc(%ebp),%eax
  101b89:	89 02                	mov    %eax,(%edx)
  101b8b:	83 45 f8 01          	addl   $0x1,-0x8(%ebp)
  101b8f:	8b 55 08             	mov    0x8(%ebp),%edx
  101b92:	8b 45 10             	mov    0x10(%ebp),%eax
  101b95:	01 d0                	add    %edx,%eax
  101b97:	39 45 f8             	cmp    %eax,-0x8(%ebp)
  101b9a:	7d 0f                	jge    101bab <bga_fill_rect+0x7f>
  101b9c:	0f b7 05 30 80 11 00 	movzwl 0x118030,%eax
  101ba3:	0f b7 c0             	movzwl %ax,%eax
  101ba6:	39 45 f8             	cmp    %eax,-0x8(%ebp)
  101ba9:	7c af                	jl     101b5a <bga_fill_rect+0x2e>
  101bab:	83 45 fc 01          	addl   $0x1,-0x4(%ebp)
  101baf:	8b 55 0c             	mov    0xc(%ebp),%edx
  101bb2:	8b 45 14             	mov    0x14(%ebp),%eax
  101bb5:	01 d0                	add    %edx,%eax
  101bb7:	39 45 fc             	cmp    %eax,-0x4(%ebp)
  101bba:	7d 12                	jge    101bce <bga_fill_rect+0xa2>
  101bbc:	0f b7 05 32 80 11 00 	movzwl 0x118032,%eax
  101bc3:	0f b7 c0             	movzwl %ax,%eax
  101bc6:	39 45 fc             	cmp    %eax,-0x4(%ebp)
  101bc9:	7c 87                	jl     101b52 <bga_fill_rect+0x26>
  101bcb:	eb 01                	jmp    101bce <bga_fill_rect+0xa2>
  101bcd:	90                   	nop
  101bce:	c9                   	leave
  101bcf:	c3                   	ret

00101bd0 <bga_draw_rect>:
  101bd0:	55                   	push   %ebp
  101bd1:	89 e5                	mov    %esp,%ebp
  101bd3:	83 ec 10             	sub    $0x10,%esp
  101bd6:	a1 2c 80 11 00       	mov    0x11802c,%eax
  101bdb:	85 c0                	test   %eax,%eax
  101bdd:	0f 84 2a 01 00 00    	je     101d0d <bga_draw_rect+0x13d>
  101be3:	8b 45 08             	mov    0x8(%ebp),%eax
  101be6:	89 45 fc             	mov    %eax,-0x4(%ebp)
  101be9:	eb 6c                	jmp    101c57 <bga_draw_rect+0x87>
  101beb:	83 7d fc 00          	cmpl   $0x0,-0x4(%ebp)
  101bef:	78 62                	js     101c53 <bga_draw_rect+0x83>
  101bf1:	83 7d 0c 00          	cmpl   $0x0,0xc(%ebp)
  101bf5:	78 20                	js     101c17 <bga_draw_rect+0x47>
  101bf7:	0f b7 05 32 80 11 00 	movzwl 0x118032,%eax
  101bfe:	0f b7 c0             	movzwl %ax,%eax
  101c01:	39 45 0c             	cmp    %eax,0xc(%ebp)
  101c04:	7d 11                	jge    101c17 <bga_draw_rect+0x47>
  101c06:	ff 75 18             	push   0x18(%ebp)
  101c09:	ff 75 0c             	push   0xc(%ebp)
  101c0c:	ff 75 fc             	push   -0x4(%ebp)
  101c0f:	e8 59 fc ff ff       	call   10186d <bga_putpixel>
  101c14:	83 c4 0c             	add    $0xc,%esp
  101c17:	8b 55 0c             	mov    0xc(%ebp),%edx
  101c1a:	8b 45 14             	mov    0x14(%ebp),%eax
  101c1d:	01 d0                	add    %edx,%eax
  101c1f:	85 c0                	test   %eax,%eax
  101c21:	7e 30                	jle    101c53 <bga_draw_rect+0x83>
  101c23:	8b 55 0c             	mov    0xc(%ebp),%edx
  101c26:	8b 45 14             	mov    0x14(%ebp),%eax
  101c29:	01 c2                	add    %eax,%edx
  101c2b:	0f b7 05 32 80 11 00 	movzwl 0x118032,%eax
  101c32:	0f b7 c0             	movzwl %ax,%eax
  101c35:	39 c2                	cmp    %eax,%edx
  101c37:	7f 1a                	jg     101c53 <bga_draw_rect+0x83>
  101c39:	8b 55 0c             	mov    0xc(%ebp),%edx
  101c3c:	8b 45 14             	mov    0x14(%ebp),%eax
  101c3f:	01 d0                	add    %edx,%eax
  101c41:	83 e8 01             	sub    $0x1,%eax
  101c44:	ff 75 18             	push   0x18(%ebp)
  101c47:	50                   	push   %eax
  101c48:	ff 75 fc             	push   -0x4(%ebp)
  101c4b:	e8 1d fc ff ff       	call   10186d <bga_putpixel>
  101c50:	83 c4 0c             	add    $0xc,%esp
  101c53:	83 45 fc 01          	addl   $0x1,-0x4(%ebp)
  101c57:	8b 55 08             	mov    0x8(%ebp),%edx
  101c5a:	8b 45 10             	mov    0x10(%ebp),%eax
  101c5d:	01 d0                	add    %edx,%eax
  101c5f:	39 45 fc             	cmp    %eax,-0x4(%ebp)
  101c62:	7d 13                	jge    101c77 <bga_draw_rect+0xa7>
  101c64:	0f b7 05 30 80 11 00 	movzwl 0x118030,%eax
  101c6b:	0f b7 c0             	movzwl %ax,%eax
  101c6e:	39 45 fc             	cmp    %eax,-0x4(%ebp)
  101c71:	0f 8c 74 ff ff ff    	jl     101beb <bga_draw_rect+0x1b>
  101c77:	8b 45 0c             	mov    0xc(%ebp),%eax
  101c7a:	89 45 f8             	mov    %eax,-0x8(%ebp)
  101c7d:	eb 6c                	jmp    101ceb <bga_draw_rect+0x11b>
  101c7f:	83 7d f8 00          	cmpl   $0x0,-0x8(%ebp)
  101c83:	78 62                	js     101ce7 <bga_draw_rect+0x117>
  101c85:	83 7d 08 00          	cmpl   $0x0,0x8(%ebp)
  101c89:	78 20                	js     101cab <bga_draw_rect+0xdb>
  101c8b:	0f b7 05 30 80 11 00 	movzwl 0x118030,%eax
  101c92:	0f b7 c0             	movzwl %ax,%eax
  101c95:	39 45 08             	cmp    %eax,0x8(%ebp)
  101c98:	7d 11                	jge    101cab <bga_draw_rect+0xdb>
  101c9a:	ff 75 18             	push   0x18(%ebp)
  101c9d:	ff 75 f8             	push   -0x8(%ebp)
  101ca0:	ff 75 08             	push   0x8(%ebp)
  101ca3:	e8 c5 fb ff ff       	call   10186d <bga_putpixel>
  101ca8:	83 c4 0c             	add    $0xc,%esp
  101cab:	8b 55 08             	mov    0x8(%ebp),%edx
  101cae:	8b 45 10             	mov    0x10(%ebp),%eax
  101cb1:	01 d0                	add    %edx,%eax
  101cb3:	85 c0                	test   %eax,%eax
  101cb5:	7e 30                	jle    101ce7 <bga_draw_rect+0x117>
  101cb7:	8b 55 08             	mov    0x8(%ebp),%edx
  101cba:	8b 45 10             	mov    0x10(%ebp),%eax
  101cbd:	01 c2                	add    %eax,%edx
  101cbf:	0f b7 05 30 80 11 00 	movzwl 0x118030,%eax
  101cc6:	0f b7 c0             	movzwl %ax,%eax
  101cc9:	39 c2                	cmp    %eax,%edx
  101ccb:	7f 1a                	jg     101ce7 <bga_draw_rect+0x117>
  101ccd:	8b 55 08             	mov    0x8(%ebp),%edx
  101cd0:	8b 45 10             	mov    0x10(%ebp),%eax
  101cd3:	01 d0                	add    %edx,%eax
  101cd5:	83 e8 01             	sub    $0x1,%eax
  101cd8:	ff 75 18             	push   0x18(%ebp)
  101cdb:	ff 75 f8             	push   -0x8(%ebp)
  101cde:	50                   	push   %eax
  101cdf:	e8 89 fb ff ff       	call   10186d <bga_putpixel>
  101ce4:	83 c4 0c             	add    $0xc,%esp
  101ce7:	83 45 f8 01          	addl   $0x1,-0x8(%ebp)
  101ceb:	8b 55 0c             	mov    0xc(%ebp),%edx
  101cee:	8b 45 14             	mov    0x14(%ebp),%eax
  101cf1:	01 d0                	add    %edx,%eax
  101cf3:	39 45 f8             	cmp    %eax,-0x8(%ebp)
  101cf6:	7d 16                	jge    101d0e <bga_draw_rect+0x13e>
  101cf8:	0f b7 05 32 80 11 00 	movzwl 0x118032,%eax
  101cff:	0f b7 c0             	movzwl %ax,%eax
  101d02:	39 45 f8             	cmp    %eax,-0x8(%ebp)
  101d05:	0f 8c 74 ff ff ff    	jl     101c7f <bga_draw_rect+0xaf>
  101d0b:	eb 01                	jmp    101d0e <bga_draw_rect+0x13e>
  101d0d:	90                   	nop
  101d0e:	c9                   	leave
  101d0f:	c3                   	ret

00101d10 <bga_draw_bmp>:
  101d10:	55                   	push   %ebp
  101d11:	89 e5                	mov    %esp,%ebp
  101d13:	83 ec 30             	sub    $0x30,%esp
  101d16:	a1 2c 80 11 00       	mov    0x11802c,%eax
  101d1b:	85 c0                	test   %eax,%eax
  101d1d:	0f 84 e2 01 00 00    	je     101f05 <bga_draw_bmp+0x1f5>
  101d23:	83 7d 10 00          	cmpl   $0x0,0x10(%ebp)
  101d27:	0f 84 d8 01 00 00    	je     101f05 <bga_draw_bmp+0x1f5>
  101d2d:	8b 45 10             	mov    0x10(%ebp),%eax
  101d30:	0f b6 00             	movzbl (%eax),%eax
  101d33:	3c 42                	cmp    $0x42,%al
  101d35:	75 0d                	jne    101d44 <bga_draw_bmp+0x34>
  101d37:	8b 45 10             	mov    0x10(%ebp),%eax
  101d3a:	83 c0 01             	add    $0x1,%eax
  101d3d:	0f b6 00             	movzbl (%eax),%eax
  101d40:	3c 4d                	cmp    $0x4d,%al
  101d42:	74 1c                	je     101d60 <bga_draw_bmp+0x50>
  101d44:	68 00 00 ff 00       	push   $0xff0000
  101d49:	6a 20                	push   $0x20
  101d4b:	6a 20                	push   $0x20
  101d4d:	ff 75 0c             	push   0xc(%ebp)
  101d50:	ff 75 08             	push   0x8(%ebp)
  101d53:	e8 d4 fd ff ff       	call   101b2c <bga_fill_rect>
  101d58:	83 c4 14             	add    $0x14,%esp
  101d5b:	e9 a6 01 00 00       	jmp    101f06 <bga_draw_bmp+0x1f6>
  101d60:	8b 45 10             	mov    0x10(%ebp),%eax
  101d63:	83 c0 12             	add    $0x12,%eax
  101d66:	0f b6 00             	movzbl (%eax),%eax
  101d69:	0f b6 c0             	movzbl %al,%eax
  101d6c:	8b 55 10             	mov    0x10(%ebp),%edx
  101d6f:	83 c2 13             	add    $0x13,%edx
  101d72:	0f b6 12             	movzbl (%edx),%edx
  101d75:	0f b6 d2             	movzbl %dl,%edx
  101d78:	c1 e2 08             	shl    $0x8,%edx
  101d7b:	09 c2                	or     %eax,%edx
  101d7d:	8b 45 10             	mov    0x10(%ebp),%eax
  101d80:	83 c0 14             	add    $0x14,%eax
  101d83:	0f b6 00             	movzbl (%eax),%eax
  101d86:	0f b6 c0             	movzbl %al,%eax
  101d89:	c1 e0 10             	shl    $0x10,%eax
  101d8c:	09 c2                	or     %eax,%edx
  101d8e:	8b 45 10             	mov    0x10(%ebp),%eax
  101d91:	83 c0 15             	add    $0x15,%eax
  101d94:	0f b6 00             	movzbl (%eax),%eax
  101d97:	0f b6 c0             	movzbl %al,%eax
  101d9a:	c1 e0 18             	shl    $0x18,%eax
  101d9d:	09 d0                	or     %edx,%eax
  101d9f:	89 45 f4             	mov    %eax,-0xc(%ebp)
  101da2:	8b 45 10             	mov    0x10(%ebp),%eax
  101da5:	83 c0 16             	add    $0x16,%eax
  101da8:	0f b6 00             	movzbl (%eax),%eax
  101dab:	0f b6 c0             	movzbl %al,%eax
  101dae:	8b 55 10             	mov    0x10(%ebp),%edx
  101db1:	83 c2 17             	add    $0x17,%edx
  101db4:	0f b6 12             	movzbl (%edx),%edx
  101db7:	0f b6 d2             	movzbl %dl,%edx
  101dba:	c1 e2 08             	shl    $0x8,%edx
  101dbd:	09 c2                	or     %eax,%edx
  101dbf:	8b 45 10             	mov    0x10(%ebp),%eax
  101dc2:	83 c0 18             	add    $0x18,%eax
  101dc5:	0f b6 00             	movzbl (%eax),%eax
  101dc8:	0f b6 c0             	movzbl %al,%eax
  101dcb:	c1 e0 10             	shl    $0x10,%eax
  101dce:	09 c2                	or     %eax,%edx
  101dd0:	8b 45 10             	mov    0x10(%ebp),%eax
  101dd3:	83 c0 19             	add    $0x19,%eax
  101dd6:	0f b6 00             	movzbl (%eax),%eax
  101dd9:	0f b6 c0             	movzbl %al,%eax
  101ddc:	c1 e0 18             	shl    $0x18,%eax
  101ddf:	09 d0                	or     %edx,%eax
  101de1:	89 45 f0             	mov    %eax,-0x10(%ebp)
  101de4:	81 7d f4 80 00 00 00 	cmpl   $0x80,-0xc(%ebp)
  101deb:	77 15                	ja     101e02 <bga_draw_bmp+0xf2>
  101ded:	81 7d f0 80 00 00 00 	cmpl   $0x80,-0x10(%ebp)
  101df4:	77 0c                	ja     101e02 <bga_draw_bmp+0xf2>
  101df6:	83 7d f4 00          	cmpl   $0x0,-0xc(%ebp)
  101dfa:	74 06                	je     101e02 <bga_draw_bmp+0xf2>
  101dfc:	83 7d f0 00          	cmpl   $0x0,-0x10(%ebp)
  101e00:	75 1c                	jne    101e1e <bga_draw_bmp+0x10e>
  101e02:	68 00 ff ff 00       	push   $0xffff00
  101e07:	6a 20                	push   $0x20
  101e09:	6a 20                	push   $0x20
  101e0b:	ff 75 0c             	push   0xc(%ebp)
  101e0e:	ff 75 08             	push   0x8(%ebp)
  101e11:	e8 16 fd ff ff       	call   101b2c <bga_fill_rect>
  101e16:	83 c4 14             	add    $0x14,%esp
  101e19:	e9 e8 00 00 00       	jmp    101f06 <bga_draw_bmp+0x1f6>
  101e1e:	8b 45 10             	mov    0x10(%ebp),%eax
  101e21:	83 c0 36             	add    $0x36,%eax
  101e24:	89 45 ec             	mov    %eax,-0x14(%ebp)
  101e27:	c7 45 fc 00 00 00 00 	movl   $0x0,-0x4(%ebp)
  101e2e:	e9 c4 00 00 00       	jmp    101ef7 <bga_draw_bmp+0x1e7>
  101e33:	c7 45 f8 00 00 00 00 	movl   $0x0,-0x8(%ebp)
  101e3a:	e9 a8 00 00 00       	jmp    101ee7 <bga_draw_bmp+0x1d7>
  101e3f:	8b 45 f0             	mov    -0x10(%ebp),%eax
  101e42:	2b 45 fc             	sub    -0x4(%ebp),%eax
  101e45:	83 e8 01             	sub    $0x1,%eax
  101e48:	89 45 e8             	mov    %eax,-0x18(%ebp)
  101e4b:	8b 45 e8             	mov    -0x18(%ebp),%eax
  101e4e:	0f af 45 f4          	imul   -0xc(%ebp),%eax
  101e52:	89 c2                	mov    %eax,%edx
  101e54:	8b 45 f8             	mov    -0x8(%ebp),%eax
  101e57:	01 d0                	add    %edx,%eax
  101e59:	c1 e0 02             	shl    $0x2,%eax
  101e5c:	89 45 e4             	mov    %eax,-0x1c(%ebp)
  101e5f:	8b 55 ec             	mov    -0x14(%ebp),%edx
  101e62:	8b 45 e4             	mov    -0x1c(%ebp),%eax
  101e65:	01 d0                	add    %edx,%eax
  101e67:	0f b6 00             	movzbl (%eax),%eax
  101e6a:	88 45 e3             	mov    %al,-0x1d(%ebp)
  101e6d:	8b 45 e4             	mov    -0x1c(%ebp),%eax
  101e70:	8d 50 01             	lea    0x1(%eax),%edx
  101e73:	8b 45 ec             	mov    -0x14(%ebp),%eax
  101e76:	01 d0                	add    %edx,%eax
  101e78:	0f b6 00             	movzbl (%eax),%eax
  101e7b:	88 45 e2             	mov    %al,-0x1e(%ebp)
  101e7e:	8b 45 e4             	mov    -0x1c(%ebp),%eax
  101e81:	8d 50 02             	lea    0x2(%eax),%edx
  101e84:	8b 45 ec             	mov    -0x14(%ebp),%eax
  101e87:	01 d0                	add    %edx,%eax
  101e89:	0f b6 00             	movzbl (%eax),%eax
  101e8c:	88 45 e1             	mov    %al,-0x1f(%ebp)
  101e8f:	8b 45 e4             	mov    -0x1c(%ebp),%eax
  101e92:	8d 50 03             	lea    0x3(%eax),%edx
  101e95:	8b 45 ec             	mov    -0x14(%ebp),%eax
  101e98:	01 d0                	add    %edx,%eax
  101e9a:	0f b6 00             	movzbl (%eax),%eax
  101e9d:	88 45 e0             	mov    %al,-0x20(%ebp)
  101ea0:	80 7d e0 00          	cmpb   $0x0,-0x20(%ebp)
  101ea4:	74 3c                	je     101ee2 <bga_draw_bmp+0x1d2>
  101ea6:	0f b6 45 e1          	movzbl -0x1f(%ebp),%eax
  101eaa:	c1 e0 10             	shl    $0x10,%eax
  101ead:	89 c2                	mov    %eax,%edx
  101eaf:	0f b6 45 e2          	movzbl -0x1e(%ebp),%eax
  101eb3:	c1 e0 08             	shl    $0x8,%eax
  101eb6:	09 c2                	or     %eax,%edx
  101eb8:	0f b6 45 e3          	movzbl -0x1d(%ebp),%eax
  101ebc:	09 d0                	or     %edx,%eax
  101ebe:	89 45 dc             	mov    %eax,-0x24(%ebp)
  101ec1:	8b 55 0c             	mov    0xc(%ebp),%edx
  101ec4:	8b 45 fc             	mov    -0x4(%ebp),%eax
  101ec7:	01 d0                	add    %edx,%eax
  101ec9:	89 c1                	mov    %eax,%ecx
  101ecb:	8b 55 08             	mov    0x8(%ebp),%edx
  101ece:	8b 45 f8             	mov    -0x8(%ebp),%eax
  101ed1:	01 d0                	add    %edx,%eax
  101ed3:	ff 75 dc             	push   -0x24(%ebp)
  101ed6:	51                   	push   %ecx
  101ed7:	50                   	push   %eax
  101ed8:	e8 90 f9 ff ff       	call   10186d <bga_putpixel>
  101edd:	83 c4 0c             	add    $0xc,%esp
  101ee0:	eb 01                	jmp    101ee3 <bga_draw_bmp+0x1d3>
  101ee2:	90                   	nop
  101ee3:	83 45 f8 01          	addl   $0x1,-0x8(%ebp)
  101ee7:	8b 45 f8             	mov    -0x8(%ebp),%eax
  101eea:	3b 45 f4             	cmp    -0xc(%ebp),%eax
  101eed:	0f 82 4c ff ff ff    	jb     101e3f <bga_draw_bmp+0x12f>
  101ef3:	83 45 fc 01          	addl   $0x1,-0x4(%ebp)
  101ef7:	8b 45 fc             	mov    -0x4(%ebp),%eax
  101efa:	3b 45 f0             	cmp    -0x10(%ebp),%eax
  101efd:	0f 82 30 ff ff ff    	jb     101e33 <bga_draw_bmp+0x123>
  101f03:	eb 01                	jmp    101f06 <bga_draw_bmp+0x1f6>
  101f05:	90                   	nop
  101f06:	c9                   	leave
  101f07:	c3                   	ret

00101f08 <outb>:
  101f08:	55                   	push   %ebp
  101f09:	89 e5                	mov    %esp,%ebp
  101f0b:	83 ec 08             	sub    $0x8,%esp
  101f0e:	8b 55 08             	mov    0x8(%ebp),%edx
  101f11:	8b 45 0c             	mov    0xc(%ebp),%eax
  101f14:	66 89 55 fc          	mov    %dx,-0x4(%ebp)
  101f18:	88 45 f8             	mov    %al,-0x8(%ebp)
  101f1b:	0f b6 45 f8          	movzbl -0x8(%ebp),%eax
  101f1f:	0f b7 55 fc          	movzwl -0x4(%ebp),%edx
  101f23:	ee                   	out    %al,(%dx)
  101f24:	90                   	nop
  101f25:	c9                   	leave
  101f26:	c3                   	ret

00101f27 <inb>:
  101f27:	55                   	push   %ebp
  101f28:	89 e5                	mov    %esp,%ebp
  101f2a:	83 ec 14             	sub    $0x14,%esp
  101f2d:	8b 45 08             	mov    0x8(%ebp),%eax
  101f30:	66 89 45 ec          	mov    %ax,-0x14(%ebp)
  101f34:	0f b7 45 ec          	movzwl -0x14(%ebp),%eax
  101f38:	89 c2                	mov    %eax,%edx
  101f3a:	ec                   	in     (%dx),%al
  101f3b:	88 45 ff             	mov    %al,-0x1(%ebp)
  101f3e:	0f b6 45 ff          	movzbl -0x1(%ebp),%eax
  101f42:	c9                   	leave
  101f43:	c3                   	ret

00101f44 <mouse_wait_input>:
  101f44:	55                   	push   %ebp
  101f45:	89 e5                	mov    %esp,%ebp
  101f47:	83 ec 10             	sub    $0x10,%esp
  101f4a:	c7 45 fc a0 86 01 00 	movl   $0x186a0,-0x4(%ebp)
  101f51:	eb 14                	jmp    101f67 <mouse_wait_input+0x23>
  101f53:	6a 64                	push   $0x64
  101f55:	e8 cd ff ff ff       	call   101f27 <inb>
  101f5a:	83 c4 04             	add    $0x4,%esp
  101f5d:	0f b6 c0             	movzbl %al,%eax
  101f60:	83 e0 01             	and    $0x1,%eax
  101f63:	85 c0                	test   %eax,%eax
  101f65:	75 0f                	jne    101f76 <mouse_wait_input+0x32>
  101f67:	8b 45 fc             	mov    -0x4(%ebp),%eax
  101f6a:	8d 50 ff             	lea    -0x1(%eax),%edx
  101f6d:	89 55 fc             	mov    %edx,-0x4(%ebp)
  101f70:	85 c0                	test   %eax,%eax
  101f72:	75 df                	jne    101f53 <mouse_wait_input+0xf>
  101f74:	eb 01                	jmp    101f77 <mouse_wait_input+0x33>
  101f76:	90                   	nop
  101f77:	c9                   	leave
  101f78:	c3                   	ret

00101f79 <mouse_wait_output>:
  101f79:	55                   	push   %ebp
  101f7a:	89 e5                	mov    %esp,%ebp
  101f7c:	83 ec 10             	sub    $0x10,%esp
  101f7f:	c7 45 fc a0 86 01 00 	movl   $0x186a0,-0x4(%ebp)
  101f86:	eb 14                	jmp    101f9c <mouse_wait_output+0x23>
  101f88:	6a 64                	push   $0x64
  101f8a:	e8 98 ff ff ff       	call   101f27 <inb>
  101f8f:	83 c4 04             	add    $0x4,%esp
  101f92:	0f b6 c0             	movzbl %al,%eax
  101f95:	83 e0 02             	and    $0x2,%eax
  101f98:	85 c0                	test   %eax,%eax
  101f9a:	74 0f                	je     101fab <mouse_wait_output+0x32>
  101f9c:	8b 45 fc             	mov    -0x4(%ebp),%eax
  101f9f:	8d 50 ff             	lea    -0x1(%eax),%edx
  101fa2:	89 55 fc             	mov    %edx,-0x4(%ebp)
  101fa5:	85 c0                	test   %eax,%eax
  101fa7:	75 df                	jne    101f88 <mouse_wait_output+0xf>
  101fa9:	eb 01                	jmp    101fac <mouse_wait_output+0x33>
  101fab:	90                   	nop
  101fac:	c9                   	leave
  101fad:	c3                   	ret

00101fae <mouse_write>:
  101fae:	55                   	push   %ebp
  101faf:	89 e5                	mov    %esp,%ebp
  101fb1:	83 ec 04             	sub    $0x4,%esp
  101fb4:	8b 45 08             	mov    0x8(%ebp),%eax
  101fb7:	88 45 fc             	mov    %al,-0x4(%ebp)
  101fba:	e8 ba ff ff ff       	call   101f79 <mouse_wait_output>
  101fbf:	68 d4 00 00 00       	push   $0xd4
  101fc4:	6a 64                	push   $0x64
  101fc6:	e8 3d ff ff ff       	call   101f08 <outb>
  101fcb:	83 c4 08             	add    $0x8,%esp
  101fce:	e8 a6 ff ff ff       	call   101f79 <mouse_wait_output>
  101fd3:	0f b6 45 fc          	movzbl -0x4(%ebp),%eax
  101fd7:	50                   	push   %eax
  101fd8:	6a 60                	push   $0x60
  101fda:	e8 29 ff ff ff       	call   101f08 <outb>
  101fdf:	83 c4 08             	add    $0x8,%esp
  101fe2:	90                   	nop
  101fe3:	c9                   	leave
  101fe4:	c3                   	ret

00101fe5 <mouse_read>:
  101fe5:	55                   	push   %ebp
  101fe6:	89 e5                	mov    %esp,%ebp
  101fe8:	e8 57 ff ff ff       	call   101f44 <mouse_wait_input>
  101fed:	6a 60                	push   $0x60
  101fef:	e8 33 ff ff ff       	call   101f27 <inb>
  101ff4:	83 c4 04             	add    $0x4,%esp
  101ff7:	c9                   	leave
  101ff8:	c3                   	ret

00101ff9 <mouse_is_available>:
  101ff9:	55                   	push   %ebp
  101ffa:	89 e5                	mov    %esp,%ebp
  101ffc:	83 ec 10             	sub    $0x10,%esp
  101fff:	6a 64                	push   $0x64
  102001:	e8 21 ff ff ff       	call   101f27 <inb>
  102006:	83 c4 04             	add    $0x4,%esp
  102009:	88 45 ff             	mov    %al,-0x1(%ebp)
  10200c:	80 7d ff ff          	cmpb   $0xff,-0x1(%ebp)
  102010:	75 07                	jne    102019 <mouse_is_available+0x20>
  102012:	b8 00 00 00 00       	mov    $0x0,%eax
  102017:	eb 05                	jmp    10201e <mouse_is_available+0x25>
  102019:	b8 01 00 00 00       	mov    $0x1,%eax
  10201e:	c9                   	leave
  10201f:	c3                   	ret

00102020 <mouse_init>:
  102020:	55                   	push   %ebp
  102021:	89 e5                	mov    %esp,%ebp
  102023:	83 ec 18             	sub    $0x18,%esp
  102026:	a1 28 70 10 00       	mov    0x107028,%eax
  10202b:	89 c2                	mov    %eax,%edx
  10202d:	c1 ea 1f             	shr    $0x1f,%edx
  102030:	01 d0                	add    %edx,%eax
  102032:	d1 f8                	sar    $1,%eax
  102034:	a3 20 70 10 00       	mov    %eax,0x107020
  102039:	a1 2c 70 10 00       	mov    0x10702c,%eax
  10203e:	89 c2                	mov    %eax,%edx
  102040:	c1 ea 1f             	shr    $0x1f,%edx
  102043:	01 d0                	add    %edx,%eax
  102045:	d1 f8                	sar    $1,%eax
  102047:	a3 24 70 10 00       	mov    %eax,0x107024
  10204c:	c6 05 40 80 11 00 00 	movb   $0x0,0x118040
  102053:	c7 05 44 80 11 00 00 	movl   $0x0,0x118044
  10205a:	00 00 00 
  10205d:	83 ec 0c             	sub    $0xc,%esp
  102060:	68 00 60 10 00       	push   $0x106000
  102065:	e8 c3 e0 ff ff       	call   10012d <serial_puts>
  10206a:	83 c4 10             	add    $0x10,%esp
  10206d:	83 ec 0c             	sub    $0xc,%esp
  102070:	68 28 60 10 00       	push   $0x106028
  102075:	e8 b3 e0 ff ff       	call   10012d <serial_puts>
  10207a:	83 c4 10             	add    $0x10,%esp
  10207d:	e8 f7 fe ff ff       	call   101f79 <mouse_wait_output>
  102082:	83 ec 08             	sub    $0x8,%esp
  102085:	68 a8 00 00 00       	push   $0xa8
  10208a:	6a 64                	push   $0x64
  10208c:	e8 77 fe ff ff       	call   101f08 <outb>
  102091:	83 c4 10             	add    $0x10,%esp
  102094:	83 ec 0c             	sub    $0xc,%esp
  102097:	68 4a 60 10 00       	push   $0x10604a
  10209c:	e8 8c e0 ff ff       	call   10012d <serial_puts>
  1020a1:	83 c4 10             	add    $0x10,%esp
  1020a4:	83 ec 0c             	sub    $0xc,%esp
  1020a7:	68 68 60 10 00       	push   $0x106068
  1020ac:	e8 7c e0 ff ff       	call   10012d <serial_puts>
  1020b1:	83 c4 10             	add    $0x10,%esp
  1020b4:	83 ec 0c             	sub    $0xc,%esp
  1020b7:	68 f6 00 00 00       	push   $0xf6
  1020bc:	e8 ed fe ff ff       	call   101fae <mouse_write>
  1020c1:	83 c4 10             	add    $0x10,%esp
  1020c4:	83 ec 0c             	sub    $0xc,%esp
  1020c7:	68 8c 60 10 00       	push   $0x10608c
  1020cc:	e8 5c e0 ff ff       	call   10012d <serial_puts>
  1020d1:	83 c4 10             	add    $0x10,%esp
  1020d4:	e8 0c ff ff ff       	call   101fe5 <mouse_read>
  1020d9:	88 45 f7             	mov    %al,-0x9(%ebp)
  1020dc:	80 7d f7 fa          	cmpb   $0xfa,-0x9(%ebp)
  1020e0:	75 12                	jne    1020f4 <mouse_init+0xd4>
  1020e2:	83 ec 0c             	sub    $0xc,%esp
  1020e5:	68 a9 60 10 00       	push   $0x1060a9
  1020ea:	e8 3e e0 ff ff       	call   10012d <serial_puts>
  1020ef:	83 c4 10             	add    $0x10,%esp
  1020f2:	eb 10                	jmp    102104 <mouse_init+0xe4>
  1020f4:	83 ec 0c             	sub    $0xc,%esp
  1020f7:	68 c2 60 10 00       	push   $0x1060c2
  1020fc:	e8 2c e0 ff ff       	call   10012d <serial_puts>
  102101:	83 c4 10             	add    $0x10,%esp
  102104:	83 ec 0c             	sub    $0xc,%esp
  102107:	68 d8 60 10 00       	push   $0x1060d8
  10210c:	e8 1c e0 ff ff       	call   10012d <serial_puts>
  102111:	83 c4 10             	add    $0x10,%esp
  102114:	83 ec 0c             	sub    $0xc,%esp
  102117:	68 f4 00 00 00       	push   $0xf4
  10211c:	e8 8d fe ff ff       	call   101fae <mouse_write>
  102121:	83 c4 10             	add    $0x10,%esp
  102124:	83 ec 0c             	sub    $0xc,%esp
  102127:	68 8c 60 10 00       	push   $0x10608c
  10212c:	e8 fc df ff ff       	call   10012d <serial_puts>
  102131:	83 c4 10             	add    $0x10,%esp
  102134:	e8 ac fe ff ff       	call   101fe5 <mouse_read>
  102139:	88 45 f7             	mov    %al,-0x9(%ebp)
  10213c:	80 7d f7 fa          	cmpb   $0xfa,-0x9(%ebp)
  102140:	75 12                	jne    102154 <mouse_init+0x134>
  102142:	83 ec 0c             	sub    $0xc,%esp
  102145:	68 a9 60 10 00       	push   $0x1060a9
  10214a:	e8 de df ff ff       	call   10012d <serial_puts>
  10214f:	83 c4 10             	add    $0x10,%esp
  102152:	eb 10                	jmp    102164 <mouse_init+0x144>
  102154:	83 ec 0c             	sub    $0xc,%esp
  102157:	68 c2 60 10 00       	push   $0x1060c2
  10215c:	e8 cc df ff ff       	call   10012d <serial_puts>
  102161:	83 c4 10             	add    $0x10,%esp
  102164:	83 ec 0c             	sub    $0xc,%esp
  102167:	68 00 61 10 00       	push   $0x106100
  10216c:	e8 bc df ff ff       	call   10012d <serial_puts>
  102171:	83 c4 10             	add    $0x10,%esp
  102174:	e8 00 fe ff ff       	call   101f79 <mouse_wait_output>
  102179:	83 ec 08             	sub    $0x8,%esp
  10217c:	6a 20                	push   $0x20
  10217e:	6a 64                	push   $0x64
  102180:	e8 83 fd ff ff       	call   101f08 <outb>
  102185:	83 c4 10             	add    $0x10,%esp
  102188:	e8 b7 fd ff ff       	call   101f44 <mouse_wait_input>
  10218d:	83 ec 0c             	sub    $0xc,%esp
  102190:	6a 60                	push   $0x60
  102192:	e8 90 fd ff ff       	call   101f27 <inb>
  102197:	83 c4 10             	add    $0x10,%esp
  10219a:	88 45 f6             	mov    %al,-0xa(%ebp)
  10219d:	83 ec 0c             	sub    $0xc,%esp
  1021a0:	68 31 61 10 00       	push   $0x106131
  1021a5:	e8 83 df ff ff       	call   10012d <serial_puts>
  1021aa:	83 c4 10             	add    $0x10,%esp
  1021ad:	80 4d f6 02          	orb    $0x2,-0xa(%ebp)
  1021b1:	80 65 f6 df          	andb   $0xdf,-0xa(%ebp)
  1021b5:	e8 bf fd ff ff       	call   101f79 <mouse_wait_output>
  1021ba:	83 ec 08             	sub    $0x8,%esp
  1021bd:	6a 60                	push   $0x60
  1021bf:	6a 64                	push   $0x64
  1021c1:	e8 42 fd ff ff       	call   101f08 <outb>
  1021c6:	83 c4 10             	add    $0x10,%esp
  1021c9:	e8 ab fd ff ff       	call   101f79 <mouse_wait_output>
  1021ce:	0f b6 45 f6          	movzbl -0xa(%ebp),%eax
  1021d2:	83 ec 08             	sub    $0x8,%esp
  1021d5:	50                   	push   %eax
  1021d6:	6a 60                	push   $0x60
  1021d8:	e8 2b fd ff ff       	call   101f08 <outb>
  1021dd:	83 c4 10             	add    $0x10,%esp
  1021e0:	83 ec 0c             	sub    $0xc,%esp
  1021e3:	68 50 61 10 00       	push   $0x106150
  1021e8:	e8 40 df ff ff       	call   10012d <serial_puts>
  1021ed:	83 c4 10             	add    $0x10,%esp
  1021f0:	83 ec 0c             	sub    $0xc,%esp
  1021f3:	68 7c 61 10 00       	push   $0x10617c
  1021f8:	e8 30 df ff ff       	call   10012d <serial_puts>
  1021fd:	83 c4 10             	add    $0x10,%esp
  102200:	c7 05 4c 80 11 00 01 	movl   $0x1,0x11804c
  102207:	00 00 00 
  10220a:	b8 01 00 00 00       	mov    $0x1,%eax
  10220f:	c9                   	leave
  102210:	c3                   	ret

00102211 <mouse_handler>:
  102211:	55                   	push   %ebp
  102212:	89 e5                	mov    %esp,%ebp
  102214:	83 ec 10             	sub    $0x10,%esp
  102217:	6a 60                	push   $0x60
  102219:	e8 09 fd ff ff       	call   101f27 <inb>
  10221e:	83 c4 04             	add    $0x4,%esp
  102221:	88 45 f7             	mov    %al,-0x9(%ebp)
  102224:	a1 44 80 11 00       	mov    0x118044,%eax
  102229:	83 f8 02             	cmp    $0x2,%eax
  10222c:	74 5c                	je     10228a <mouse_handler+0x79>
  10222e:	83 f8 02             	cmp    $0x2,%eax
  102231:	0f 8f 5c 01 00 00    	jg     102393 <mouse_handler+0x182>
  102237:	85 c0                	test   %eax,%eax
  102239:	74 0a                	je     102245 <mouse_handler+0x34>
  10223b:	83 f8 01             	cmp    $0x1,%eax
  10223e:	74 2f                	je     10226f <mouse_handler+0x5e>
  102240:	e9 4e 01 00 00       	jmp    102393 <mouse_handler+0x182>
  102245:	0f b6 45 f7          	movzbl -0x9(%ebp),%eax
  102249:	83 e0 08             	and    $0x8,%eax
  10224c:	85 c0                	test   %eax,%eax
  10224e:	0f 84 3b 01 00 00    	je     10238f <mouse_handler+0x17e>
  102254:	0f b6 45 f7          	movzbl -0x9(%ebp),%eax
  102258:	a2 48 80 11 00       	mov    %al,0x118048
  10225d:	a1 44 80 11 00       	mov    0x118044,%eax
  102262:	83 c0 01             	add    $0x1,%eax
  102265:	a3 44 80 11 00       	mov    %eax,0x118044
  10226a:	e9 24 01 00 00       	jmp    102393 <mouse_handler+0x182>
  10226f:	0f b6 45 f7          	movzbl -0x9(%ebp),%eax
  102273:	a2 49 80 11 00       	mov    %al,0x118049
  102278:	a1 44 80 11 00       	mov    0x118044,%eax
  10227d:	83 c0 01             	add    $0x1,%eax
  102280:	a3 44 80 11 00       	mov    %eax,0x118044
  102285:	e9 09 01 00 00       	jmp    102393 <mouse_handler+0x182>
  10228a:	0f b6 45 f7          	movzbl -0x9(%ebp),%eax
  10228e:	a2 4a 80 11 00       	mov    %al,0x11804a
  102293:	c7 05 44 80 11 00 00 	movl   $0x0,0x118044
  10229a:	00 00 00 
  10229d:	0f b6 05 48 80 11 00 	movzbl 0x118048,%eax
  1022a4:	88 45 f6             	mov    %al,-0xa(%ebp)
  1022a7:	0f b6 05 49 80 11 00 	movzbl 0x118049,%eax
  1022ae:	0f b6 c0             	movzbl %al,%eax
  1022b1:	89 45 fc             	mov    %eax,-0x4(%ebp)
  1022b4:	0f b6 05 4a 80 11 00 	movzbl 0x11804a,%eax
  1022bb:	0f b6 c0             	movzbl %al,%eax
  1022be:	89 45 f8             	mov    %eax,-0x8(%ebp)
  1022c1:	0f b6 45 f6          	movzbl -0xa(%ebp),%eax
  1022c5:	83 e0 07             	and    $0x7,%eax
  1022c8:	a2 40 80 11 00       	mov    %al,0x118040
  1022cd:	0f b6 45 f6          	movzbl -0xa(%ebp),%eax
  1022d1:	83 e0 10             	and    $0x10,%eax
  1022d4:	85 c0                	test   %eax,%eax
  1022d6:	74 07                	je     1022df <mouse_handler+0xce>
  1022d8:	81 6d fc 00 01 00 00 	subl   $0x100,-0x4(%ebp)
  1022df:	0f b6 45 f6          	movzbl -0xa(%ebp),%eax
  1022e3:	83 e0 20             	and    $0x20,%eax
  1022e6:	85 c0                	test   %eax,%eax
  1022e8:	74 07                	je     1022f1 <mouse_handler+0xe0>
  1022ea:	81 6d f8 00 01 00 00 	subl   $0x100,-0x8(%ebp)
  1022f1:	0f b6 45 f6          	movzbl -0xa(%ebp),%eax
  1022f5:	83 e0 40             	and    $0x40,%eax
  1022f8:	85 c0                	test   %eax,%eax
  1022fa:	74 07                	je     102303 <mouse_handler+0xf2>
  1022fc:	c7 45 fc 00 00 00 00 	movl   $0x0,-0x4(%ebp)
  102303:	0f b6 45 f6          	movzbl -0xa(%ebp),%eax
  102307:	84 c0                	test   %al,%al
  102309:	79 07                	jns    102312 <mouse_handler+0x101>
  10230b:	c7 45 f8 00 00 00 00 	movl   $0x0,-0x8(%ebp)
  102312:	8b 15 20 70 10 00    	mov    0x107020,%edx
  102318:	8b 45 fc             	mov    -0x4(%ebp),%eax
  10231b:	01 d0                	add    %edx,%eax
  10231d:	a3 20 70 10 00       	mov    %eax,0x107020
  102322:	a1 24 70 10 00       	mov    0x107024,%eax
  102327:	2b 45 f8             	sub    -0x8(%ebp),%eax
  10232a:	a3 24 70 10 00       	mov    %eax,0x107024
  10232f:	a1 20 70 10 00       	mov    0x107020,%eax
  102334:	85 c0                	test   %eax,%eax
  102336:	79 0a                	jns    102342 <mouse_handler+0x131>
  102338:	c7 05 20 70 10 00 00 	movl   $0x0,0x107020
  10233f:	00 00 00 
  102342:	8b 15 20 70 10 00    	mov    0x107020,%edx
  102348:	a1 28 70 10 00       	mov    0x107028,%eax
  10234d:	39 c2                	cmp    %eax,%edx
  10234f:	7c 0d                	jl     10235e <mouse_handler+0x14d>
  102351:	a1 28 70 10 00       	mov    0x107028,%eax
  102356:	83 e8 01             	sub    $0x1,%eax
  102359:	a3 20 70 10 00       	mov    %eax,0x107020
  10235e:	a1 24 70 10 00       	mov    0x107024,%eax
  102363:	85 c0                	test   %eax,%eax
  102365:	79 0a                	jns    102371 <mouse_handler+0x160>
  102367:	c7 05 24 70 10 00 00 	movl   $0x0,0x107024
  10236e:	00 00 00 
  102371:	8b 15 24 70 10 00    	mov    0x107024,%edx
  102377:	a1 2c 70 10 00       	mov    0x10702c,%eax
  10237c:	39 c2                	cmp    %eax,%edx
  10237e:	7c 12                	jl     102392 <mouse_handler+0x181>
  102380:	a1 2c 70 10 00       	mov    0x10702c,%eax
  102385:	83 e8 01             	sub    $0x1,%eax
  102388:	a3 24 70 10 00       	mov    %eax,0x107024
  10238d:	eb 03                	jmp    102392 <mouse_handler+0x181>
  10238f:	90                   	nop
  102390:	eb 01                	jmp    102393 <mouse_handler+0x182>
  102392:	90                   	nop
  102393:	c9                   	leave
  102394:	c3                   	ret

00102395 <mouse_get_x>:
  102395:	55                   	push   %ebp
  102396:	89 e5                	mov    %esp,%ebp
  102398:	83 ec 18             	sub    $0x18,%esp
  10239b:	e8 f2 09 00 00       	call   102d92 <usb_is_tablet_present>
  1023a0:	85 c0                	test   %eax,%eax
  1023a2:	74 20                	je     1023c4 <mouse_get_x+0x2f>
  1023a4:	83 ec 04             	sub    $0x4,%esp
  1023a7:	8d 45 ef             	lea    -0x11(%ebp),%eax
  1023aa:	50                   	push   %eax
  1023ab:	8d 45 f0             	lea    -0x10(%ebp),%eax
  1023ae:	50                   	push   %eax
  1023af:	8d 45 f4             	lea    -0xc(%ebp),%eax
  1023b2:	50                   	push   %eax
  1023b3:	e8 e4 09 00 00       	call   102d9c <usb_tablet_get_report>
  1023b8:	83 c4 10             	add    $0x10,%esp
  1023bb:	85 c0                	test   %eax,%eax
  1023bd:	74 05                	je     1023c4 <mouse_get_x+0x2f>
  1023bf:	8b 45 f4             	mov    -0xc(%ebp),%eax
  1023c2:	eb 1e                	jmp    1023e2 <mouse_get_x+0x4d>
  1023c4:	a1 4c 80 11 00       	mov    0x11804c,%eax
  1023c9:	85 c0                	test   %eax,%eax
  1023cb:	75 10                	jne    1023dd <mouse_get_x+0x48>
  1023cd:	a1 28 70 10 00       	mov    0x107028,%eax
  1023d2:	89 c2                	mov    %eax,%edx
  1023d4:	c1 ea 1f             	shr    $0x1f,%edx
  1023d7:	01 d0                	add    %edx,%eax
  1023d9:	d1 f8                	sar    $1,%eax
  1023db:	eb 05                	jmp    1023e2 <mouse_get_x+0x4d>
  1023dd:	a1 20 70 10 00       	mov    0x107020,%eax
  1023e2:	c9                   	leave
  1023e3:	c3                   	ret

001023e4 <mouse_get_y>:
  1023e4:	55                   	push   %ebp
  1023e5:	89 e5                	mov    %esp,%ebp
  1023e7:	83 ec 18             	sub    $0x18,%esp
  1023ea:	e8 a3 09 00 00       	call   102d92 <usb_is_tablet_present>
  1023ef:	85 c0                	test   %eax,%eax
  1023f1:	74 20                	je     102413 <mouse_get_y+0x2f>
  1023f3:	83 ec 04             	sub    $0x4,%esp
  1023f6:	8d 45 ef             	lea    -0x11(%ebp),%eax
  1023f9:	50                   	push   %eax
  1023fa:	8d 45 f0             	lea    -0x10(%ebp),%eax
  1023fd:	50                   	push   %eax
  1023fe:	8d 45 f4             	lea    -0xc(%ebp),%eax
  102401:	50                   	push   %eax
  102402:	e8 95 09 00 00       	call   102d9c <usb_tablet_get_report>
  102407:	83 c4 10             	add    $0x10,%esp
  10240a:	85 c0                	test   %eax,%eax
  10240c:	74 05                	je     102413 <mouse_get_y+0x2f>
  10240e:	8b 45 f0             	mov    -0x10(%ebp),%eax
  102411:	eb 1e                	jmp    102431 <mouse_get_y+0x4d>
  102413:	a1 4c 80 11 00       	mov    0x11804c,%eax
  102418:	85 c0                	test   %eax,%eax
  10241a:	75 10                	jne    10242c <mouse_get_y+0x48>
  10241c:	a1 2c 70 10 00       	mov    0x10702c,%eax
  102421:	89 c2                	mov    %eax,%edx
  102423:	c1 ea 1f             	shr    $0x1f,%edx
  102426:	01 d0                	add    %edx,%eax
  102428:	d1 f8                	sar    $1,%eax
  10242a:	eb 05                	jmp    102431 <mouse_get_y+0x4d>
  10242c:	a1 24 70 10 00       	mov    0x107024,%eax
  102431:	c9                   	leave
  102432:	c3                   	ret

00102433 <mouse_get_buttons>:
  102433:	55                   	push   %ebp
  102434:	89 e5                	mov    %esp,%ebp
  102436:	83 ec 18             	sub    $0x18,%esp
  102439:	e8 54 09 00 00       	call   102d92 <usb_is_tablet_present>
  10243e:	85 c0                	test   %eax,%eax
  102440:	74 21                	je     102463 <mouse_get_buttons+0x30>
  102442:	83 ec 04             	sub    $0x4,%esp
  102445:	8d 45 ef             	lea    -0x11(%ebp),%eax
  102448:	50                   	push   %eax
  102449:	8d 45 f0             	lea    -0x10(%ebp),%eax
  10244c:	50                   	push   %eax
  10244d:	8d 45 f4             	lea    -0xc(%ebp),%eax
  102450:	50                   	push   %eax
  102451:	e8 46 09 00 00       	call   102d9c <usb_tablet_get_report>
  102456:	83 c4 10             	add    $0x10,%esp
  102459:	85 c0                	test   %eax,%eax
  10245b:	74 06                	je     102463 <mouse_get_buttons+0x30>
  10245d:	0f b6 45 ef          	movzbl -0x11(%ebp),%eax
  102461:	eb 17                	jmp    10247a <mouse_get_buttons+0x47>
  102463:	a1 4c 80 11 00       	mov    0x11804c,%eax
  102468:	85 c0                	test   %eax,%eax
  10246a:	75 07                	jne    102473 <mouse_get_buttons+0x40>
  10246c:	b8 00 00 00 00       	mov    $0x0,%eax
  102471:	eb 07                	jmp    10247a <mouse_get_buttons+0x47>
  102473:	0f b6 05 40 80 11 00 	movzbl 0x118040,%eax
  10247a:	c9                   	leave
  10247b:	c3                   	ret

0010247c <mouse_set_bounds>:
  10247c:	55                   	push   %ebp
  10247d:	89 e5                	mov    %esp,%ebp
  10247f:	8b 45 08             	mov    0x8(%ebp),%eax
  102482:	a3 28 70 10 00       	mov    %eax,0x107028
  102487:	8b 45 0c             	mov    0xc(%ebp),%eax
  10248a:	a3 2c 70 10 00       	mov    %eax,0x10702c
  10248f:	8b 15 20 70 10 00    	mov    0x107020,%edx
  102495:	a1 28 70 10 00       	mov    0x107028,%eax
  10249a:	39 c2                	cmp    %eax,%edx
  10249c:	7c 0d                	jl     1024ab <mouse_set_bounds+0x2f>
  10249e:	a1 28 70 10 00       	mov    0x107028,%eax
  1024a3:	83 e8 01             	sub    $0x1,%eax
  1024a6:	a3 20 70 10 00       	mov    %eax,0x107020
  1024ab:	8b 15 24 70 10 00    	mov    0x107024,%edx
  1024b1:	a1 2c 70 10 00       	mov    0x10702c,%eax
  1024b6:	39 c2                	cmp    %eax,%edx
  1024b8:	7c 0d                	jl     1024c7 <mouse_set_bounds+0x4b>
  1024ba:	a1 2c 70 10 00       	mov    0x10702c,%eax
  1024bf:	83 e8 01             	sub    $0x1,%eax
  1024c2:	a3 24 70 10 00       	mov    %eax,0x107024
  1024c7:	90                   	nop
  1024c8:	5d                   	pop    %ebp
  1024c9:	c3                   	ret

001024ca <mouse_reset_position>:
  1024ca:	55                   	push   %ebp
  1024cb:	89 e5                	mov    %esp,%ebp
  1024cd:	8b 45 08             	mov    0x8(%ebp),%eax
  1024d0:	a3 20 70 10 00       	mov    %eax,0x107020
  1024d5:	8b 45 0c             	mov    0xc(%ebp),%eax
  1024d8:	a3 24 70 10 00       	mov    %eax,0x107024
  1024dd:	a1 20 70 10 00       	mov    0x107020,%eax
  1024e2:	85 c0                	test   %eax,%eax
  1024e4:	79 0a                	jns    1024f0 <mouse_reset_position+0x26>
  1024e6:	c7 05 20 70 10 00 00 	movl   $0x0,0x107020
  1024ed:	00 00 00 
  1024f0:	8b 15 20 70 10 00    	mov    0x107020,%edx
  1024f6:	a1 28 70 10 00       	mov    0x107028,%eax
  1024fb:	39 c2                	cmp    %eax,%edx
  1024fd:	7c 0d                	jl     10250c <mouse_reset_position+0x42>
  1024ff:	a1 28 70 10 00       	mov    0x107028,%eax
  102504:	83 e8 01             	sub    $0x1,%eax
  102507:	a3 20 70 10 00       	mov    %eax,0x107020
  10250c:	a1 24 70 10 00       	mov    0x107024,%eax
  102511:	85 c0                	test   %eax,%eax
  102513:	79 0a                	jns    10251f <mouse_reset_position+0x55>
  102515:	c7 05 24 70 10 00 00 	movl   $0x0,0x107024
  10251c:	00 00 00 
  10251f:	8b 15 24 70 10 00    	mov    0x107024,%edx
  102525:	a1 2c 70 10 00       	mov    0x10702c,%eax
  10252a:	39 c2                	cmp    %eax,%edx
  10252c:	7c 0d                	jl     10253b <mouse_reset_position+0x71>
  10252e:	a1 2c 70 10 00       	mov    0x10702c,%eax
  102533:	83 e8 01             	sub    $0x1,%eax
  102536:	a3 24 70 10 00       	mov    %eax,0x107024
  10253b:	90                   	nop
  10253c:	5d                   	pop    %ebp
  10253d:	c3                   	ret

0010253e <outl>:
  10253e:	55                   	push   %ebp
  10253f:	89 e5                	mov    %esp,%ebp
  102541:	83 ec 04             	sub    $0x4,%esp
  102544:	8b 45 08             	mov    0x8(%ebp),%eax
  102547:	66 89 45 fc          	mov    %ax,-0x4(%ebp)
  10254b:	8b 45 0c             	mov    0xc(%ebp),%eax
  10254e:	0f b7 55 fc          	movzwl -0x4(%ebp),%edx
  102552:	ef                   	out    %eax,(%dx)
  102553:	90                   	nop
  102554:	c9                   	leave
  102555:	c3                   	ret

00102556 <inl>:
  102556:	55                   	push   %ebp
  102557:	89 e5                	mov    %esp,%ebp
  102559:	83 ec 14             	sub    $0x14,%esp
  10255c:	8b 45 08             	mov    0x8(%ebp),%eax
  10255f:	66 89 45 ec          	mov    %ax,-0x14(%ebp)
  102563:	0f b7 45 ec          	movzwl -0x14(%ebp),%eax
  102567:	89 c2                	mov    %eax,%edx
  102569:	ed                   	in     (%dx),%eax
  10256a:	89 45 fc             	mov    %eax,-0x4(%ebp)
  10256d:	8b 45 fc             	mov    -0x4(%ebp),%eax
  102570:	c9                   	leave
  102571:	c3                   	ret

00102572 <pci_config_address>:
  102572:	55                   	push   %ebp
  102573:	89 e5                	mov    %esp,%ebp
  102575:	53                   	push   %ebx
  102576:	83 ec 10             	sub    $0x10,%esp
  102579:	8b 5d 08             	mov    0x8(%ebp),%ebx
  10257c:	8b 4d 0c             	mov    0xc(%ebp),%ecx
  10257f:	8b 55 10             	mov    0x10(%ebp),%edx
  102582:	8b 45 14             	mov    0x14(%ebp),%eax
  102585:	88 5d f8             	mov    %bl,-0x8(%ebp)
  102588:	88 4d f4             	mov    %cl,-0xc(%ebp)
  10258b:	88 55 f0             	mov    %dl,-0x10(%ebp)
  10258e:	88 45 ec             	mov    %al,-0x14(%ebp)
  102591:	0f b6 45 f8          	movzbl -0x8(%ebp),%eax
  102595:	c1 e0 10             	shl    $0x10,%eax
  102598:	89 c2                	mov    %eax,%edx
  10259a:	0f b6 45 f4          	movzbl -0xc(%ebp),%eax
  10259e:	c1 e0 0b             	shl    $0xb,%eax
  1025a1:	09 c2                	or     %eax,%edx
  1025a3:	0f b6 45 f0          	movzbl -0x10(%ebp),%eax
  1025a7:	c1 e0 08             	shl    $0x8,%eax
  1025aa:	09 c2                	or     %eax,%edx
  1025ac:	0f b6 45 ec          	movzbl -0x14(%ebp),%eax
  1025b0:	25 fc 00 00 00       	and    $0xfc,%eax
  1025b5:	09 d0                	or     %edx,%eax
  1025b7:	0d 00 00 00 80       	or     $0x80000000,%eax
  1025bc:	8b 5d fc             	mov    -0x4(%ebp),%ebx
  1025bf:	c9                   	leave
  1025c0:	c3                   	ret

001025c1 <pci_config_read_byte>:
  1025c1:	55                   	push   %ebp
  1025c2:	89 e5                	mov    %esp,%ebp
  1025c4:	53                   	push   %ebx
  1025c5:	83 ec 20             	sub    $0x20,%esp
  1025c8:	8b 5d 08             	mov    0x8(%ebp),%ebx
  1025cb:	8b 4d 0c             	mov    0xc(%ebp),%ecx
  1025ce:	8b 55 10             	mov    0x10(%ebp),%edx
  1025d1:	8b 45 14             	mov    0x14(%ebp),%eax
  1025d4:	88 5d e8             	mov    %bl,-0x18(%ebp)
  1025d7:	88 4d e4             	mov    %cl,-0x1c(%ebp)
  1025da:	88 55 e0             	mov    %dl,-0x20(%ebp)
  1025dd:	88 45 dc             	mov    %al,-0x24(%ebp)
  1025e0:	0f b6 5d dc          	movzbl -0x24(%ebp),%ebx
  1025e4:	0f b6 4d e0          	movzbl -0x20(%ebp),%ecx
  1025e8:	0f b6 55 e4          	movzbl -0x1c(%ebp),%edx
  1025ec:	0f b6 45 e8          	movzbl -0x18(%ebp),%eax
  1025f0:	53                   	push   %ebx
  1025f1:	51                   	push   %ecx
  1025f2:	52                   	push   %edx
  1025f3:	50                   	push   %eax
  1025f4:	e8 79 ff ff ff       	call   102572 <pci_config_address>
  1025f9:	83 c4 10             	add    $0x10,%esp
  1025fc:	89 45 f8             	mov    %eax,-0x8(%ebp)
  1025ff:	ff 75 f8             	push   -0x8(%ebp)
  102602:	68 f8 0c 00 00       	push   $0xcf8
  102607:	e8 32 ff ff ff       	call   10253e <outl>
  10260c:	83 c4 08             	add    $0x8,%esp
  10260f:	68 fc 0c 00 00       	push   $0xcfc
  102614:	e8 3d ff ff ff       	call   102556 <inl>
  102619:	83 c4 04             	add    $0x4,%esp
  10261c:	0f b6 55 dc          	movzbl -0x24(%ebp),%edx
  102620:	83 e2 03             	and    $0x3,%edx
  102623:	c1 e2 03             	shl    $0x3,%edx
  102626:	89 d1                	mov    %edx,%ecx
  102628:	d3 e8                	shr    %cl,%eax
  10262a:	8b 5d fc             	mov    -0x4(%ebp),%ebx
  10262d:	c9                   	leave
  10262e:	c3                   	ret

0010262f <pci_config_read_word>:
  10262f:	55                   	push   %ebp
  102630:	89 e5                	mov    %esp,%ebp
  102632:	53                   	push   %ebx
  102633:	83 ec 20             	sub    $0x20,%esp
  102636:	8b 5d 08             	mov    0x8(%ebp),%ebx
  102639:	8b 4d 0c             	mov    0xc(%ebp),%ecx
  10263c:	8b 55 10             	mov    0x10(%ebp),%edx
  10263f:	8b 45 14             	mov    0x14(%ebp),%eax
  102642:	88 5d e8             	mov    %bl,-0x18(%ebp)
  102645:	88 4d e4             	mov    %cl,-0x1c(%ebp)
  102648:	88 55 e0             	mov    %dl,-0x20(%ebp)
  10264b:	88 45 dc             	mov    %al,-0x24(%ebp)
  10264e:	0f b6 5d dc          	movzbl -0x24(%ebp),%ebx
  102652:	0f b6 4d e0          	movzbl -0x20(%ebp),%ecx
  102656:	0f b6 55 e4          	movzbl -0x1c(%ebp),%edx
  10265a:	0f b6 45 e8          	movzbl -0x18(%ebp),%eax
  10265e:	53                   	push   %ebx
  10265f:	51                   	push   %ecx
  102660:	52                   	push   %edx
  102661:	50                   	push   %eax
  102662:	e8 0b ff ff ff       	call   102572 <pci_config_address>
  102667:	83 c4 10             	add    $0x10,%esp
  10266a:	89 45 f8             	mov    %eax,-0x8(%ebp)
  10266d:	ff 75 f8             	push   -0x8(%ebp)
  102670:	68 f8 0c 00 00       	push   $0xcf8
  102675:	e8 c4 fe ff ff       	call   10253e <outl>
  10267a:	83 c4 08             	add    $0x8,%esp
  10267d:	68 fc 0c 00 00       	push   $0xcfc
  102682:	e8 cf fe ff ff       	call   102556 <inl>
  102687:	83 c4 04             	add    $0x4,%esp
  10268a:	0f b6 55 dc          	movzbl -0x24(%ebp),%edx
  10268e:	83 e2 02             	and    $0x2,%edx
  102691:	c1 e2 03             	shl    $0x3,%edx
  102694:	89 d1                	mov    %edx,%ecx
  102696:	d3 e8                	shr    %cl,%eax
  102698:	8b 5d fc             	mov    -0x4(%ebp),%ebx
  10269b:	c9                   	leave
  10269c:	c3                   	ret

0010269d <pci_config_read_dword>:
  10269d:	55                   	push   %ebp
  10269e:	89 e5                	mov    %esp,%ebp
  1026a0:	53                   	push   %ebx
  1026a1:	83 ec 20             	sub    $0x20,%esp
  1026a4:	8b 5d 08             	mov    0x8(%ebp),%ebx
  1026a7:	8b 4d 0c             	mov    0xc(%ebp),%ecx
  1026aa:	8b 55 10             	mov    0x10(%ebp),%edx
  1026ad:	8b 45 14             	mov    0x14(%ebp),%eax
  1026b0:	88 5d e8             	mov    %bl,-0x18(%ebp)
  1026b3:	88 4d e4             	mov    %cl,-0x1c(%ebp)
  1026b6:	88 55 e0             	mov    %dl,-0x20(%ebp)
  1026b9:	88 45 dc             	mov    %al,-0x24(%ebp)
  1026bc:	0f b6 5d dc          	movzbl -0x24(%ebp),%ebx
  1026c0:	0f b6 4d e0          	movzbl -0x20(%ebp),%ecx
  1026c4:	0f b6 55 e4          	movzbl -0x1c(%ebp),%edx
  1026c8:	0f b6 45 e8          	movzbl -0x18(%ebp),%eax
  1026cc:	53                   	push   %ebx
  1026cd:	51                   	push   %ecx
  1026ce:	52                   	push   %edx
  1026cf:	50                   	push   %eax
  1026d0:	e8 9d fe ff ff       	call   102572 <pci_config_address>
  1026d5:	83 c4 10             	add    $0x10,%esp
  1026d8:	89 45 f8             	mov    %eax,-0x8(%ebp)
  1026db:	ff 75 f8             	push   -0x8(%ebp)
  1026de:	68 f8 0c 00 00       	push   $0xcf8
  1026e3:	e8 56 fe ff ff       	call   10253e <outl>
  1026e8:	83 c4 08             	add    $0x8,%esp
  1026eb:	68 fc 0c 00 00       	push   $0xcfc
  1026f0:	e8 61 fe ff ff       	call   102556 <inl>
  1026f5:	83 c4 04             	add    $0x4,%esp
  1026f8:	8b 5d fc             	mov    -0x4(%ebp),%ebx
  1026fb:	c9                   	leave
  1026fc:	c3                   	ret

001026fd <pci_config_write_byte>:
  1026fd:	55                   	push   %ebp
  1026fe:	89 e5                	mov    %esp,%ebp
  102700:	57                   	push   %edi
  102701:	56                   	push   %esi
  102702:	53                   	push   %ebx
  102703:	83 ec 24             	sub    $0x24,%esp
  102706:	8b 75 08             	mov    0x8(%ebp),%esi
  102709:	8b 5d 0c             	mov    0xc(%ebp),%ebx
  10270c:	8b 4d 10             	mov    0x10(%ebp),%ecx
  10270f:	8b 55 14             	mov    0x14(%ebp),%edx
  102712:	8b 7d 18             	mov    0x18(%ebp),%edi
  102715:	89 f0                	mov    %esi,%eax
  102717:	88 45 e0             	mov    %al,-0x20(%ebp)
  10271a:	88 5d dc             	mov    %bl,-0x24(%ebp)
  10271d:	88 4d d8             	mov    %cl,-0x28(%ebp)
  102720:	88 55 d4             	mov    %dl,-0x2c(%ebp)
  102723:	89 f8                	mov    %edi,%eax
  102725:	88 45 d0             	mov    %al,-0x30(%ebp)
  102728:	0f b6 5d d4          	movzbl -0x2c(%ebp),%ebx
  10272c:	0f b6 4d d8          	movzbl -0x28(%ebp),%ecx
  102730:	0f b6 55 dc          	movzbl -0x24(%ebp),%edx
  102734:	0f b6 45 e0          	movzbl -0x20(%ebp),%eax
  102738:	53                   	push   %ebx
  102739:	51                   	push   %ecx
  10273a:	52                   	push   %edx
  10273b:	50                   	push   %eax
  10273c:	e8 31 fe ff ff       	call   102572 <pci_config_address>
  102741:	83 c4 10             	add    $0x10,%esp
  102744:	89 45 f0             	mov    %eax,-0x10(%ebp)
  102747:	ff 75 f0             	push   -0x10(%ebp)
  10274a:	68 f8 0c 00 00       	push   $0xcf8
  10274f:	e8 ea fd ff ff       	call   10253e <outl>
  102754:	83 c4 08             	add    $0x8,%esp
  102757:	68 fc 0c 00 00       	push   $0xcfc
  10275c:	e8 f5 fd ff ff       	call   102556 <inl>
  102761:	83 c4 04             	add    $0x4,%esp
  102764:	89 45 ec             	mov    %eax,-0x14(%ebp)
  102767:	0f b6 45 d4          	movzbl -0x2c(%ebp),%eax
  10276b:	83 e0 03             	and    $0x3,%eax
  10276e:	c1 e0 03             	shl    $0x3,%eax
  102771:	ba ff 00 00 00       	mov    $0xff,%edx
  102776:	89 c1                	mov    %eax,%ecx
  102778:	d3 e2                	shl    %cl,%edx
  10277a:	89 d0                	mov    %edx,%eax
  10277c:	f7 d0                	not    %eax
  10277e:	21 45 ec             	and    %eax,-0x14(%ebp)
  102781:	0f b6 55 d0          	movzbl -0x30(%ebp),%edx
  102785:	0f b6 45 d4          	movzbl -0x2c(%ebp),%eax
  102789:	83 e0 03             	and    $0x3,%eax
  10278c:	c1 e0 03             	shl    $0x3,%eax
  10278f:	89 c1                	mov    %eax,%ecx
  102791:	d3 e2                	shl    %cl,%edx
  102793:	89 d0                	mov    %edx,%eax
  102795:	09 45 ec             	or     %eax,-0x14(%ebp)
  102798:	ff 75 ec             	push   -0x14(%ebp)
  10279b:	68 fc 0c 00 00       	push   $0xcfc
  1027a0:	e8 99 fd ff ff       	call   10253e <outl>
  1027a5:	83 c4 08             	add    $0x8,%esp
  1027a8:	90                   	nop
  1027a9:	8d 65 f4             	lea    -0xc(%ebp),%esp
  1027ac:	5b                   	pop    %ebx
  1027ad:	5e                   	pop    %esi
  1027ae:	5f                   	pop    %edi
  1027af:	5d                   	pop    %ebp
  1027b0:	c3                   	ret

001027b1 <pci_config_write_word>:
  1027b1:	55                   	push   %ebp
  1027b2:	89 e5                	mov    %esp,%ebp
  1027b4:	57                   	push   %edi
  1027b5:	56                   	push   %esi
  1027b6:	53                   	push   %ebx
  1027b7:	83 ec 24             	sub    $0x24,%esp
  1027ba:	8b 75 08             	mov    0x8(%ebp),%esi
  1027bd:	8b 5d 0c             	mov    0xc(%ebp),%ebx
  1027c0:	8b 4d 10             	mov    0x10(%ebp),%ecx
  1027c3:	8b 55 14             	mov    0x14(%ebp),%edx
  1027c6:	8b 7d 18             	mov    0x18(%ebp),%edi
  1027c9:	89 f0                	mov    %esi,%eax
  1027cb:	88 45 e0             	mov    %al,-0x20(%ebp)
  1027ce:	88 5d dc             	mov    %bl,-0x24(%ebp)
  1027d1:	88 4d d8             	mov    %cl,-0x28(%ebp)
  1027d4:	88 55 d4             	mov    %dl,-0x2c(%ebp)
  1027d7:	89 f8                	mov    %edi,%eax
  1027d9:	66 89 45 d0          	mov    %ax,-0x30(%ebp)
  1027dd:	0f b6 5d d4          	movzbl -0x2c(%ebp),%ebx
  1027e1:	0f b6 4d d8          	movzbl -0x28(%ebp),%ecx
  1027e5:	0f b6 55 dc          	movzbl -0x24(%ebp),%edx
  1027e9:	0f b6 45 e0          	movzbl -0x20(%ebp),%eax
  1027ed:	53                   	push   %ebx
  1027ee:	51                   	push   %ecx
  1027ef:	52                   	push   %edx
  1027f0:	50                   	push   %eax
  1027f1:	e8 7c fd ff ff       	call   102572 <pci_config_address>
  1027f6:	83 c4 10             	add    $0x10,%esp
  1027f9:	89 45 f0             	mov    %eax,-0x10(%ebp)
  1027fc:	ff 75 f0             	push   -0x10(%ebp)
  1027ff:	68 f8 0c 00 00       	push   $0xcf8
  102804:	e8 35 fd ff ff       	call   10253e <outl>
  102809:	83 c4 08             	add    $0x8,%esp
  10280c:	68 fc 0c 00 00       	push   $0xcfc
  102811:	e8 40 fd ff ff       	call   102556 <inl>
  102816:	83 c4 04             	add    $0x4,%esp
  102819:	89 45 ec             	mov    %eax,-0x14(%ebp)
  10281c:	0f b6 45 d4          	movzbl -0x2c(%ebp),%eax
  102820:	83 e0 02             	and    $0x2,%eax
  102823:	c1 e0 03             	shl    $0x3,%eax
  102826:	ba ff ff 00 00       	mov    $0xffff,%edx
  10282b:	89 c1                	mov    %eax,%ecx
  10282d:	d3 e2                	shl    %cl,%edx
  10282f:	89 d0                	mov    %edx,%eax
  102831:	f7 d0                	not    %eax
  102833:	21 45 ec             	and    %eax,-0x14(%ebp)
  102836:	0f b7 55 d0          	movzwl -0x30(%ebp),%edx
  10283a:	0f b6 45 d4          	movzbl -0x2c(%ebp),%eax
  10283e:	83 e0 02             	and    $0x2,%eax
  102841:	c1 e0 03             	shl    $0x3,%eax
  102844:	89 c1                	mov    %eax,%ecx
  102846:	d3 e2                	shl    %cl,%edx
  102848:	89 d0                	mov    %edx,%eax
  10284a:	09 45 ec             	or     %eax,-0x14(%ebp)
  10284d:	ff 75 ec             	push   -0x14(%ebp)
  102850:	68 fc 0c 00 00       	push   $0xcfc
  102855:	e8 e4 fc ff ff       	call   10253e <outl>
  10285a:	83 c4 08             	add    $0x8,%esp
  10285d:	90                   	nop
  10285e:	8d 65 f4             	lea    -0xc(%ebp),%esp
  102861:	5b                   	pop    %ebx
  102862:	5e                   	pop    %esi
  102863:	5f                   	pop    %edi
  102864:	5d                   	pop    %ebp
  102865:	c3                   	ret

00102866 <pci_config_write_dword>:
  102866:	55                   	push   %ebp
  102867:	89 e5                	mov    %esp,%ebp
  102869:	53                   	push   %ebx
  10286a:	83 ec 20             	sub    $0x20,%esp
  10286d:	8b 5d 08             	mov    0x8(%ebp),%ebx
  102870:	8b 4d 0c             	mov    0xc(%ebp),%ecx
  102873:	8b 55 10             	mov    0x10(%ebp),%edx
  102876:	8b 45 14             	mov    0x14(%ebp),%eax
  102879:	88 5d e8             	mov    %bl,-0x18(%ebp)
  10287c:	88 4d e4             	mov    %cl,-0x1c(%ebp)
  10287f:	88 55 e0             	mov    %dl,-0x20(%ebp)
  102882:	88 45 dc             	mov    %al,-0x24(%ebp)
  102885:	0f b6 5d dc          	movzbl -0x24(%ebp),%ebx
  102889:	0f b6 4d e0          	movzbl -0x20(%ebp),%ecx
  10288d:	0f b6 55 e4          	movzbl -0x1c(%ebp),%edx
  102891:	0f b6 45 e8          	movzbl -0x18(%ebp),%eax
  102895:	53                   	push   %ebx
  102896:	51                   	push   %ecx
  102897:	52                   	push   %edx
  102898:	50                   	push   %eax
  102899:	e8 d4 fc ff ff       	call   102572 <pci_config_address>
  10289e:	83 c4 10             	add    $0x10,%esp
  1028a1:	89 45 f8             	mov    %eax,-0x8(%ebp)
  1028a4:	ff 75 f8             	push   -0x8(%ebp)
  1028a7:	68 f8 0c 00 00       	push   $0xcf8
  1028ac:	e8 8d fc ff ff       	call   10253e <outl>
  1028b1:	83 c4 08             	add    $0x8,%esp
  1028b4:	ff 75 18             	push   0x18(%ebp)
  1028b7:	68 fc 0c 00 00       	push   $0xcfc
  1028bc:	e8 7d fc ff ff       	call   10253e <outl>
  1028c1:	83 c4 08             	add    $0x8,%esp
  1028c4:	90                   	nop
  1028c5:	8b 5d fc             	mov    -0x4(%ebp),%ebx
  1028c8:	c9                   	leave
  1028c9:	c3                   	ret

001028ca <outw>:
  1028ca:	55                   	push   %ebp
  1028cb:	89 e5                	mov    %esp,%ebp
  1028cd:	83 ec 08             	sub    $0x8,%esp
  1028d0:	8b 55 08             	mov    0x8(%ebp),%edx
  1028d3:	8b 45 0c             	mov    0xc(%ebp),%eax
  1028d6:	66 89 55 fc          	mov    %dx,-0x4(%ebp)
  1028da:	66 89 45 f8          	mov    %ax,-0x8(%ebp)
  1028de:	0f b7 45 f8          	movzwl -0x8(%ebp),%eax
  1028e2:	0f b7 55 fc          	movzwl -0x4(%ebp),%edx
  1028e6:	66 ef                	out    %ax,(%dx)
  1028e8:	90                   	nop
  1028e9:	c9                   	leave
  1028ea:	c3                   	ret

001028eb <inw>:
  1028eb:	55                   	push   %ebp
  1028ec:	89 e5                	mov    %esp,%ebp
  1028ee:	83 ec 14             	sub    $0x14,%esp
  1028f1:	8b 45 08             	mov    0x8(%ebp),%eax
  1028f4:	66 89 45 ec          	mov    %ax,-0x14(%ebp)
  1028f8:	0f b7 45 ec          	movzwl -0x14(%ebp),%eax
  1028fc:	89 c2                	mov    %eax,%edx
  1028fe:	66 ed                	in     (%dx),%ax
  102900:	66 89 45 fe          	mov    %ax,-0x2(%ebp)
  102904:	0f b7 45 fe          	movzwl -0x2(%ebp),%eax
  102908:	c9                   	leave
  102909:	c3                   	ret

0010290a <find_uhci_controller>:
  10290a:	55                   	push   %ebp
  10290b:	89 e5                	mov    %esp,%ebp
  10290d:	83 ec 28             	sub    $0x28,%esp
  102910:	66 c7 45 f6 00 00    	movw   $0x0,-0xa(%ebp)
  102916:	e9 28 01 00 00       	jmp    102a43 <find_uhci_controller+0x139>
  10291b:	c6 45 f5 00          	movb   $0x0,-0xb(%ebp)
  10291f:	e9 0a 01 00 00       	jmp    102a2e <find_uhci_controller+0x124>
  102924:	0f b6 55 f5          	movzbl -0xb(%ebp),%edx
  102928:	0f b7 45 f6          	movzwl -0xa(%ebp),%eax
  10292c:	0f b6 c0             	movzbl %al,%eax
  10292f:	6a 00                	push   $0x0
  102931:	6a 00                	push   $0x0
  102933:	52                   	push   %edx
  102934:	50                   	push   %eax
  102935:	e8 f5 fc ff ff       	call   10262f <pci_config_read_word>
  10293a:	83 c4 10             	add    $0x10,%esp
  10293d:	66 89 45 f2          	mov    %ax,-0xe(%ebp)
  102941:	66 83 7d f2 ff       	cmpw   $0xffff,-0xe(%ebp)
  102946:	0f 84 d7 00 00 00    	je     102a23 <find_uhci_controller+0x119>
  10294c:	0f b6 55 f5          	movzbl -0xb(%ebp),%edx
  102950:	0f b7 45 f6          	movzwl -0xa(%ebp),%eax
  102954:	0f b6 c0             	movzbl %al,%eax
  102957:	6a 08                	push   $0x8
  102959:	6a 00                	push   $0x0
  10295b:	52                   	push   %edx
  10295c:	50                   	push   %eax
  10295d:	e8 3b fd ff ff       	call   10269d <pci_config_read_dword>
  102962:	83 c4 10             	add    $0x10,%esp
  102965:	89 45 ec             	mov    %eax,-0x14(%ebp)
  102968:	8b 45 ec             	mov    -0x14(%ebp),%eax
  10296b:	c1 e8 18             	shr    $0x18,%eax
  10296e:	88 45 eb             	mov    %al,-0x15(%ebp)
  102971:	8b 45 ec             	mov    -0x14(%ebp),%eax
  102974:	c1 e8 10             	shr    $0x10,%eax
  102977:	88 45 ea             	mov    %al,-0x16(%ebp)
  10297a:	8b 45 ec             	mov    -0x14(%ebp),%eax
  10297d:	c1 e8 08             	shr    $0x8,%eax
  102980:	88 45 e9             	mov    %al,-0x17(%ebp)
  102983:	80 7d eb 0c          	cmpb   $0xc,-0x15(%ebp)
  102987:	0f 85 97 00 00 00    	jne    102a24 <find_uhci_controller+0x11a>
  10298d:	80 7d ea 03          	cmpb   $0x3,-0x16(%ebp)
  102991:	0f 85 8d 00 00 00    	jne    102a24 <find_uhci_controller+0x11a>
  102997:	80 7d e9 00          	cmpb   $0x0,-0x17(%ebp)
  10299b:	0f 85 83 00 00 00    	jne    102a24 <find_uhci_controller+0x11a>
  1029a1:	0f b6 55 f5          	movzbl -0xb(%ebp),%edx
  1029a5:	0f b7 45 f6          	movzwl -0xa(%ebp),%eax
  1029a9:	0f b6 c0             	movzbl %al,%eax
  1029ac:	6a 20                	push   $0x20
  1029ae:	6a 00                	push   $0x0
  1029b0:	52                   	push   %edx
  1029b1:	50                   	push   %eax
  1029b2:	e8 e6 fc ff ff       	call   10269d <pci_config_read_dword>
  1029b7:	83 c4 10             	add    $0x10,%esp
  1029ba:	89 45 e4             	mov    %eax,-0x1c(%ebp)
  1029bd:	8b 45 e4             	mov    -0x1c(%ebp),%eax
  1029c0:	83 e0 fe             	and    $0xfffffffe,%eax
  1029c3:	66 a3 50 80 11 00    	mov    %ax,0x118050
  1029c9:	0f b6 55 f5          	movzbl -0xb(%ebp),%edx
  1029cd:	0f b7 45 f6          	movzwl -0xa(%ebp),%eax
  1029d1:	0f b6 c0             	movzbl %al,%eax
  1029d4:	6a 04                	push   $0x4
  1029d6:	6a 00                	push   $0x0
  1029d8:	52                   	push   %edx
  1029d9:	50                   	push   %eax
  1029da:	e8 50 fc ff ff       	call   10262f <pci_config_read_word>
  1029df:	83 c4 10             	add    $0x10,%esp
  1029e2:	66 89 45 e2          	mov    %ax,-0x1e(%ebp)
  1029e6:	66 83 4d e2 05       	orw    $0x5,-0x1e(%ebp)
  1029eb:	0f b7 4d e2          	movzwl -0x1e(%ebp),%ecx
  1029ef:	0f b6 55 f5          	movzbl -0xb(%ebp),%edx
  1029f3:	0f b7 45 f6          	movzwl -0xa(%ebp),%eax
  1029f7:	0f b6 c0             	movzbl %al,%eax
  1029fa:	83 ec 0c             	sub    $0xc,%esp
  1029fd:	51                   	push   %ecx
  1029fe:	6a 04                	push   $0x4
  102a00:	6a 00                	push   $0x0
  102a02:	52                   	push   %edx
  102a03:	50                   	push   %eax
  102a04:	e8 a8 fd ff ff       	call   1027b1 <pci_config_write_word>
  102a09:	83 c4 20             	add    $0x20,%esp
  102a0c:	83 ec 0c             	sub    $0xc,%esp
  102a0f:	68 bc 61 10 00       	push   $0x1061bc
  102a14:	e8 e7 de ff ff       	call   100900 <vga_puts>
  102a19:	83 c4 10             	add    $0x10,%esp
  102a1c:	b8 01 00 00 00       	mov    $0x1,%eax
  102a21:	eb 31                	jmp    102a54 <find_uhci_controller+0x14a>
  102a23:	90                   	nop
  102a24:	0f b6 45 f5          	movzbl -0xb(%ebp),%eax
  102a28:	83 c0 01             	add    $0x1,%eax
  102a2b:	88 45 f5             	mov    %al,-0xb(%ebp)
  102a2e:	80 7d f5 1f          	cmpb   $0x1f,-0xb(%ebp)
  102a32:	0f 86 ec fe ff ff    	jbe    102924 <find_uhci_controller+0x1a>
  102a38:	0f b7 45 f6          	movzwl -0xa(%ebp),%eax
  102a3c:	83 c0 01             	add    $0x1,%eax
  102a3f:	66 89 45 f6          	mov    %ax,-0xa(%ebp)
  102a43:	66 81 7d f6 ff 00    	cmpw   $0xff,-0xa(%ebp)
  102a49:	0f 86 cc fe ff ff    	jbe    10291b <find_uhci_controller+0x11>
  102a4f:	b8 00 00 00 00       	mov    $0x0,%eax
  102a54:	c9                   	leave
  102a55:	c3                   	ret

00102a56 <uhci_reset_controller>:
  102a56:	55                   	push   %ebp
  102a57:	89 e5                	mov    %esp,%ebp
  102a59:	83 ec 10             	sub    $0x10,%esp
  102a5c:	0f b7 05 50 80 11 00 	movzwl 0x118050,%eax
  102a63:	66 89 45 fa          	mov    %ax,-0x6(%ebp)
  102a67:	0f b7 45 fa          	movzwl -0x6(%ebp),%eax
  102a6b:	6a 00                	push   $0x0
  102a6d:	50                   	push   %eax
  102a6e:	e8 57 fe ff ff       	call   1028ca <outw>
  102a73:	83 c4 08             	add    $0x8,%esp
  102a76:	c7 45 fc e8 03 00 00 	movl   $0x3e8,-0x4(%ebp)
  102a7d:	eb 1c                	jmp    102a9b <uhci_reset_controller+0x45>
  102a7f:	c7 45 f4 00 00 00 00 	movl   $0x0,-0xc(%ebp)
  102a86:	eb 09                	jmp    102a91 <uhci_reset_controller+0x3b>
  102a88:	8b 45 f4             	mov    -0xc(%ebp),%eax
  102a8b:	83 c0 01             	add    $0x1,%eax
  102a8e:	89 45 f4             	mov    %eax,-0xc(%ebp)
  102a91:	8b 45 f4             	mov    -0xc(%ebp),%eax
  102a94:	3d e7 03 00 00       	cmp    $0x3e7,%eax
  102a99:	7e ed                	jle    102a88 <uhci_reset_controller+0x32>
  102a9b:	0f b7 45 fa          	movzwl -0x6(%ebp),%eax
  102a9f:	83 c0 02             	add    $0x2,%eax
  102aa2:	0f b7 c0             	movzwl %ax,%eax
  102aa5:	50                   	push   %eax
  102aa6:	e8 40 fe ff ff       	call   1028eb <inw>
  102aab:	83 c4 04             	add    $0x4,%esp
  102aae:	0f b7 c0             	movzwl %ax,%eax
  102ab1:	83 e0 20             	and    $0x20,%eax
  102ab4:	85 c0                	test   %eax,%eax
  102ab6:	75 0d                	jne    102ac5 <uhci_reset_controller+0x6f>
  102ab8:	8b 45 fc             	mov    -0x4(%ebp),%eax
  102abb:	8d 50 ff             	lea    -0x1(%eax),%edx
  102abe:	89 55 fc             	mov    %edx,-0x4(%ebp)
  102ac1:	85 c0                	test   %eax,%eax
  102ac3:	75 ba                	jne    102a7f <uhci_reset_controller+0x29>
  102ac5:	0f b7 45 fa          	movzwl -0x6(%ebp),%eax
  102ac9:	6a 02                	push   $0x2
  102acb:	50                   	push   %eax
  102acc:	e8 f9 fd ff ff       	call   1028ca <outw>
  102ad1:	83 c4 08             	add    $0x8,%esp
  102ad4:	c7 45 fc e8 03 00 00 	movl   $0x3e8,-0x4(%ebp)
  102adb:	eb 1c                	jmp    102af9 <uhci_reset_controller+0xa3>
  102add:	c7 45 f0 00 00 00 00 	movl   $0x0,-0x10(%ebp)
  102ae4:	eb 09                	jmp    102aef <uhci_reset_controller+0x99>
  102ae6:	8b 45 f0             	mov    -0x10(%ebp),%eax
  102ae9:	83 c0 01             	add    $0x1,%eax
  102aec:	89 45 f0             	mov    %eax,-0x10(%ebp)
  102aef:	8b 45 f0             	mov    -0x10(%ebp),%eax
  102af2:	3d e7 03 00 00       	cmp    $0x3e7,%eax
  102af7:	7e ed                	jle    102ae6 <uhci_reset_controller+0x90>
  102af9:	0f b7 45 fa          	movzwl -0x6(%ebp),%eax
  102afd:	50                   	push   %eax
  102afe:	e8 e8 fd ff ff       	call   1028eb <inw>
  102b03:	83 c4 04             	add    $0x4,%esp
  102b06:	0f b7 c0             	movzwl %ax,%eax
  102b09:	83 e0 02             	and    $0x2,%eax
  102b0c:	85 c0                	test   %eax,%eax
  102b0e:	74 0d                	je     102b1d <uhci_reset_controller+0xc7>
  102b10:	8b 45 fc             	mov    -0x4(%ebp),%eax
  102b13:	8d 50 ff             	lea    -0x1(%eax),%edx
  102b16:	89 55 fc             	mov    %edx,-0x4(%ebp)
  102b19:	85 c0                	test   %eax,%eax
  102b1b:	75 c0                	jne    102add <uhci_reset_controller+0x87>
  102b1d:	0f b7 45 fa          	movzwl -0x6(%ebp),%eax
  102b21:	83 c0 02             	add    $0x2,%eax
  102b24:	0f b7 c0             	movzwl %ax,%eax
  102b27:	68 ff ff 00 00       	push   $0xffff
  102b2c:	50                   	push   %eax
  102b2d:	e8 98 fd ff ff       	call   1028ca <outw>
  102b32:	83 c4 08             	add    $0x8,%esp
  102b35:	90                   	nop
  102b36:	c9                   	leave
  102b37:	c3                   	ret

00102b38 <uhci_scan_ports>:
  102b38:	55                   	push   %ebp
  102b39:	89 e5                	mov    %esp,%ebp
  102b3b:	83 ec 18             	sub    $0x18,%esp
  102b3e:	0f b7 05 50 80 11 00 	movzwl 0x118050,%eax
  102b45:	66 89 45 f6          	mov    %ax,-0xa(%ebp)
  102b49:	0f b7 45 f6          	movzwl -0xa(%ebp),%eax
  102b4d:	83 c0 10             	add    $0x10,%eax
  102b50:	0f b7 c0             	movzwl %ax,%eax
  102b53:	50                   	push   %eax
  102b54:	e8 92 fd ff ff       	call   1028eb <inw>
  102b59:	83 c4 04             	add    $0x4,%esp
  102b5c:	66 89 45 f4          	mov    %ax,-0xc(%ebp)
  102b60:	0f b7 45 f4          	movzwl -0xc(%ebp),%eax
  102b64:	83 e0 01             	and    $0x1,%eax
  102b67:	85 c0                	test   %eax,%eax
  102b69:	0f 84 b4 00 00 00    	je     102c23 <uhci_scan_ports+0xeb>
  102b6f:	83 ec 0c             	sub    $0xc,%esp
  102b72:	68 d8 61 10 00       	push   $0x1061d8
  102b77:	e8 84 dd ff ff       	call   100900 <vga_puts>
  102b7c:	83 c4 10             	add    $0x10,%esp
  102b7f:	0f b7 45 f4          	movzwl -0xc(%ebp),%eax
  102b83:	80 cc 02             	or     $0x2,%ah
  102b86:	0f b7 d0             	movzwl %ax,%edx
  102b89:	0f b7 45 f6          	movzwl -0xa(%ebp),%eax
  102b8d:	83 c0 10             	add    $0x10,%eax
  102b90:	0f b7 c0             	movzwl %ax,%eax
  102b93:	83 ec 08             	sub    $0x8,%esp
  102b96:	52                   	push   %edx
  102b97:	50                   	push   %eax
  102b98:	e8 2d fd ff ff       	call   1028ca <outw>
  102b9d:	83 c4 10             	add    $0x10,%esp
  102ba0:	c7 45 ec 00 00 00 00 	movl   $0x0,-0x14(%ebp)
  102ba7:	eb 09                	jmp    102bb2 <uhci_scan_ports+0x7a>
  102ba9:	8b 45 ec             	mov    -0x14(%ebp),%eax
  102bac:	83 c0 01             	add    $0x1,%eax
  102baf:	89 45 ec             	mov    %eax,-0x14(%ebp)
  102bb2:	8b 45 ec             	mov    -0x14(%ebp),%eax
  102bb5:	3d 9f 86 01 00       	cmp    $0x1869f,%eax
  102bba:	7e ed                	jle    102ba9 <uhci_scan_ports+0x71>
  102bbc:	0f b7 45 f4          	movzwl -0xc(%ebp),%eax
  102bc0:	25 ff fd 00 00       	and    $0xfdff,%eax
  102bc5:	89 c2                	mov    %eax,%edx
  102bc7:	0f b7 45 f6          	movzwl -0xa(%ebp),%eax
  102bcb:	83 c0 10             	add    $0x10,%eax
  102bce:	0f b7 c0             	movzwl %ax,%eax
  102bd1:	83 ec 08             	sub    $0x8,%esp
  102bd4:	52                   	push   %edx
  102bd5:	50                   	push   %eax
  102bd6:	e8 ef fc ff ff       	call   1028ca <outw>
  102bdb:	83 c4 10             	add    $0x10,%esp
  102bde:	0f b7 45 f6          	movzwl -0xa(%ebp),%eax
  102be2:	83 c0 10             	add    $0x10,%eax
  102be5:	0f b7 c0             	movzwl %ax,%eax
  102be8:	83 ec 0c             	sub    $0xc,%esp
  102beb:	50                   	push   %eax
  102bec:	e8 fa fc ff ff       	call   1028eb <inw>
  102bf1:	83 c4 10             	add    $0x10,%esp
  102bf4:	66 89 45 f4          	mov    %ax,-0xc(%ebp)
  102bf8:	0f b7 45 f4          	movzwl -0xc(%ebp),%eax
  102bfc:	83 c8 04             	or     $0x4,%eax
  102bff:	0f b7 d0             	movzwl %ax,%edx
  102c02:	0f b7 45 f6          	movzwl -0xa(%ebp),%eax
  102c06:	83 c0 10             	add    $0x10,%eax
  102c09:	0f b7 c0             	movzwl %ax,%eax
  102c0c:	83 ec 08             	sub    $0x8,%esp
  102c0f:	52                   	push   %edx
  102c10:	50                   	push   %eax
  102c11:	e8 b4 fc ff ff       	call   1028ca <outw>
  102c16:	83 c4 10             	add    $0x10,%esp
  102c19:	b8 01 00 00 00       	mov    $0x1,%eax
  102c1e:	e9 df 00 00 00       	jmp    102d02 <uhci_scan_ports+0x1ca>
  102c23:	0f b7 45 f6          	movzwl -0xa(%ebp),%eax
  102c27:	83 c0 12             	add    $0x12,%eax
  102c2a:	0f b7 c0             	movzwl %ax,%eax
  102c2d:	83 ec 0c             	sub    $0xc,%esp
  102c30:	50                   	push   %eax
  102c31:	e8 b5 fc ff ff       	call   1028eb <inw>
  102c36:	83 c4 10             	add    $0x10,%esp
  102c39:	66 89 45 f2          	mov    %ax,-0xe(%ebp)
  102c3d:	0f b7 45 f2          	movzwl -0xe(%ebp),%eax
  102c41:	83 e0 01             	and    $0x1,%eax
  102c44:	85 c0                	test   %eax,%eax
  102c46:	0f 84 b1 00 00 00    	je     102cfd <uhci_scan_ports+0x1c5>
  102c4c:	83 ec 0c             	sub    $0xc,%esp
  102c4f:	68 f8 61 10 00       	push   $0x1061f8
  102c54:	e8 a7 dc ff ff       	call   100900 <vga_puts>
  102c59:	83 c4 10             	add    $0x10,%esp
  102c5c:	0f b7 45 f2          	movzwl -0xe(%ebp),%eax
  102c60:	80 cc 02             	or     $0x2,%ah
  102c63:	0f b7 d0             	movzwl %ax,%edx
  102c66:	0f b7 45 f6          	movzwl -0xa(%ebp),%eax
  102c6a:	83 c0 12             	add    $0x12,%eax
  102c6d:	0f b7 c0             	movzwl %ax,%eax
  102c70:	83 ec 08             	sub    $0x8,%esp
  102c73:	52                   	push   %edx
  102c74:	50                   	push   %eax
  102c75:	e8 50 fc ff ff       	call   1028ca <outw>
  102c7a:	83 c4 10             	add    $0x10,%esp
  102c7d:	c7 45 e8 00 00 00 00 	movl   $0x0,-0x18(%ebp)
  102c84:	eb 09                	jmp    102c8f <uhci_scan_ports+0x157>
  102c86:	8b 45 e8             	mov    -0x18(%ebp),%eax
  102c89:	83 c0 01             	add    $0x1,%eax
  102c8c:	89 45 e8             	mov    %eax,-0x18(%ebp)
  102c8f:	8b 45 e8             	mov    -0x18(%ebp),%eax
  102c92:	3d 9f 86 01 00       	cmp    $0x1869f,%eax
  102c97:	7e ed                	jle    102c86 <uhci_scan_ports+0x14e>
  102c99:	0f b7 45 f2          	movzwl -0xe(%ebp),%eax
  102c9d:	25 ff fd 00 00       	and    $0xfdff,%eax
  102ca2:	89 c2                	mov    %eax,%edx
  102ca4:	0f b7 45 f6          	movzwl -0xa(%ebp),%eax
  102ca8:	83 c0 12             	add    $0x12,%eax
  102cab:	0f b7 c0             	movzwl %ax,%eax
  102cae:	83 ec 08             	sub    $0x8,%esp
  102cb1:	52                   	push   %edx
  102cb2:	50                   	push   %eax
  102cb3:	e8 12 fc ff ff       	call   1028ca <outw>
  102cb8:	83 c4 10             	add    $0x10,%esp
  102cbb:	0f b7 45 f6          	movzwl -0xa(%ebp),%eax
  102cbf:	83 c0 12             	add    $0x12,%eax
  102cc2:	0f b7 c0             	movzwl %ax,%eax
  102cc5:	83 ec 0c             	sub    $0xc,%esp
  102cc8:	50                   	push   %eax
  102cc9:	e8 1d fc ff ff       	call   1028eb <inw>
  102cce:	83 c4 10             	add    $0x10,%esp
  102cd1:	66 89 45 f2          	mov    %ax,-0xe(%ebp)
  102cd5:	0f b7 45 f2          	movzwl -0xe(%ebp),%eax
  102cd9:	83 c8 04             	or     $0x4,%eax
  102cdc:	0f b7 d0             	movzwl %ax,%edx
  102cdf:	0f b7 45 f6          	movzwl -0xa(%ebp),%eax
  102ce3:	83 c0 12             	add    $0x12,%eax
  102ce6:	0f b7 c0             	movzwl %ax,%eax
  102ce9:	83 ec 08             	sub    $0x8,%esp
  102cec:	52                   	push   %edx
  102ced:	50                   	push   %eax
  102cee:	e8 d7 fb ff ff       	call   1028ca <outw>
  102cf3:	83 c4 10             	add    $0x10,%esp
  102cf6:	b8 01 00 00 00       	mov    $0x1,%eax
  102cfb:	eb 05                	jmp    102d02 <uhci_scan_ports+0x1ca>
  102cfd:	b8 00 00 00 00       	mov    $0x0,%eax
  102d02:	c9                   	leave
  102d03:	c3                   	ret

00102d04 <usb_init>:
  102d04:	55                   	push   %ebp
  102d05:	89 e5                	mov    %esp,%ebp
  102d07:	83 ec 08             	sub    $0x8,%esp
  102d0a:	83 ec 0c             	sub    $0xc,%esp
  102d0d:	68 18 62 10 00       	push   $0x106218
  102d12:	e8 e9 db ff ff       	call   100900 <vga_puts>
  102d17:	83 c4 10             	add    $0x10,%esp
  102d1a:	e8 eb fb ff ff       	call   10290a <find_uhci_controller>
  102d1f:	85 c0                	test   %eax,%eax
  102d21:	75 12                	jne    102d35 <usb_init+0x31>
  102d23:	83 ec 0c             	sub    $0xc,%esp
  102d26:	68 30 62 10 00       	push   $0x106230
  102d2b:	e8 d0 db ff ff       	call   100900 <vga_puts>
  102d30:	83 c4 10             	add    $0x10,%esp
  102d33:	eb 51                	jmp    102d86 <usb_init+0x82>
  102d35:	e8 1c fd ff ff       	call   102a56 <uhci_reset_controller>
  102d3a:	e8 f9 fd ff ff       	call   102b38 <uhci_scan_ports>
  102d3f:	85 c0                	test   %eax,%eax
  102d41:	74 43                	je     102d86 <usb_init+0x82>
  102d43:	83 ec 0c             	sub    $0xc,%esp
  102d46:	68 50 62 10 00       	push   $0x106250
  102d4b:	e8 b0 db ff ff       	call   100900 <vga_puts>
  102d50:	83 c4 10             	add    $0x10,%esp
  102d53:	83 ec 0c             	sub    $0xc,%esp
  102d56:	68 80 62 10 00       	push   $0x106280
  102d5b:	e8 a0 db ff ff       	call   100900 <vga_puts>
  102d60:	83 c4 10             	add    $0x10,%esp
  102d63:	c7 05 74 80 11 00 01 	movl   $0x1,0x118074
  102d6a:	00 00 00 
  102d6d:	c6 05 68 80 11 00 01 	movb   $0x1,0x118068
  102d74:	66 c7 05 6c 80 11 00 	movw   $0x627,0x11806c
  102d7b:	27 06 
  102d7d:	66 c7 05 6e 80 11 00 	movw   $0x1,0x11806e
  102d84:	01 00 
  102d86:	c9                   	leave
  102d87:	c3                   	ret

00102d88 <usb_detect_devices>:
  102d88:	55                   	push   %ebp
  102d89:	89 e5                	mov    %esp,%ebp
  102d8b:	a1 74 80 11 00       	mov    0x118074,%eax
  102d90:	5d                   	pop    %ebp
  102d91:	c3                   	ret

00102d92 <usb_is_tablet_present>:
  102d92:	55                   	push   %ebp
  102d93:	89 e5                	mov    %esp,%ebp
  102d95:	a1 74 80 11 00       	mov    0x118074,%eax
  102d9a:	5d                   	pop    %ebp
  102d9b:	c3                   	ret

00102d9c <usb_tablet_get_report>:
  102d9c:	55                   	push   %ebp
  102d9d:	89 e5                	mov    %esp,%ebp
  102d9f:	a1 74 80 11 00       	mov    0x118074,%eax
  102da4:	85 c0                	test   %eax,%eax
  102da6:	75 07                	jne    102daf <usb_tablet_get_report+0x13>
  102da8:	b8 00 00 00 00       	mov    $0x0,%eax
  102dad:	eb 27                	jmp    102dd6 <usb_tablet_get_report+0x3a>
  102daf:	8b 15 30 70 10 00    	mov    0x107030,%edx
  102db5:	8b 45 08             	mov    0x8(%ebp),%eax
  102db8:	89 10                	mov    %edx,(%eax)
  102dba:	8b 15 34 70 10 00    	mov    0x107034,%edx
  102dc0:	8b 45 0c             	mov    0xc(%ebp),%eax
  102dc3:	89 10                	mov    %edx,(%eax)
  102dc5:	0f b6 15 79 80 11 00 	movzbl 0x118079,%edx
  102dcc:	8b 45 10             	mov    0x10(%ebp),%eax
  102dcf:	88 10                	mov    %dl,(%eax)
  102dd1:	b8 01 00 00 00       	mov    $0x1,%eax
  102dd6:	5d                   	pop    %ebp
  102dd7:	c3                   	ret

00102dd8 <gdt_set_entry>:
  102dd8:	55                   	push   %ebp
  102dd9:	89 e5                	mov    %esp,%ebp
  102ddb:	83 ec 08             	sub    $0x8,%esp
  102dde:	8b 55 14             	mov    0x14(%ebp),%edx
  102de1:	8b 45 18             	mov    0x18(%ebp),%eax
  102de4:	88 55 fc             	mov    %dl,-0x4(%ebp)
  102de7:	88 45 f8             	mov    %al,-0x8(%ebp)
  102dea:	8b 45 0c             	mov    0xc(%ebp),%eax
  102ded:	89 c2                	mov    %eax,%edx
  102def:	8b 45 08             	mov    0x8(%ebp),%eax
  102df2:	66 89 14 c5 82 80 11 	mov    %dx,0x118082(,%eax,8)
  102df9:	00 
  102dfa:	8b 45 0c             	mov    0xc(%ebp),%eax
  102dfd:	c1 e8 10             	shr    $0x10,%eax
  102e00:	89 c2                	mov    %eax,%edx
  102e02:	8b 45 08             	mov    0x8(%ebp),%eax
  102e05:	88 14 c5 84 80 11 00 	mov    %dl,0x118084(,%eax,8)
  102e0c:	8b 45 0c             	mov    0xc(%ebp),%eax
  102e0f:	c1 e8 18             	shr    $0x18,%eax
  102e12:	89 c2                	mov    %eax,%edx
  102e14:	8b 45 08             	mov    0x8(%ebp),%eax
  102e17:	88 14 c5 87 80 11 00 	mov    %dl,0x118087(,%eax,8)
  102e1e:	8b 45 10             	mov    0x10(%ebp),%eax
  102e21:	89 c2                	mov    %eax,%edx
  102e23:	8b 45 08             	mov    0x8(%ebp),%eax
  102e26:	66 89 14 c5 80 80 11 	mov    %dx,0x118080(,%eax,8)
  102e2d:	00 
  102e2e:	8b 45 10             	mov    0x10(%ebp),%eax
  102e31:	c1 e8 10             	shr    $0x10,%eax
  102e34:	83 e0 0f             	and    $0xf,%eax
  102e37:	89 c2                	mov    %eax,%edx
  102e39:	0f b6 45 f8          	movzbl -0x8(%ebp),%eax
  102e3d:	83 e0 f0             	and    $0xfffffff0,%eax
  102e40:	09 c2                	or     %eax,%edx
  102e42:	8b 45 08             	mov    0x8(%ebp),%eax
  102e45:	88 14 c5 86 80 11 00 	mov    %dl,0x118086(,%eax,8)
  102e4c:	8b 45 08             	mov    0x8(%ebp),%eax
  102e4f:	0f b6 55 fc          	movzbl -0x4(%ebp),%edx
  102e53:	88 14 c5 85 80 11 00 	mov    %dl,0x118085(,%eax,8)
  102e5a:	90                   	nop
  102e5b:	c9                   	leave
  102e5c:	c3                   	ret

00102e5d <gdt_set_tss_entry>:
  102e5d:	55                   	push   %ebp
  102e5e:	89 e5                	mov    %esp,%ebp
  102e60:	6a 40                	push   $0x40
  102e62:	68 89 00 00 00       	push   $0x89
  102e67:	ff 75 10             	push   0x10(%ebp)
  102e6a:	ff 75 0c             	push   0xc(%ebp)
  102e6d:	ff 75 08             	push   0x8(%ebp)
  102e70:	e8 63 ff ff ff       	call   102dd8 <gdt_set_entry>
  102e75:	83 c4 14             	add    $0x14,%esp
  102e78:	90                   	nop
  102e79:	c9                   	leave
  102e7a:	c3                   	ret

00102e7b <gdt_init>:
  102e7b:	55                   	push   %ebp
  102e7c:	89 e5                	mov    %esp,%ebp
  102e7e:	57                   	push   %edi
  102e7f:	53                   	push   %ebx
  102e80:	66 c7 05 b0 80 11 00 	movw   $0x2f,0x1180b0
  102e87:	2f 00 
  102e89:	b8 80 80 11 00       	mov    $0x118080,%eax
  102e8e:	a3 b2 80 11 00       	mov    %eax,0x1180b2
  102e93:	6a 00                	push   $0x0
  102e95:	6a 00                	push   $0x0
  102e97:	6a 00                	push   $0x0
  102e99:	6a 00                	push   $0x0
  102e9b:	6a 00                	push   $0x0
  102e9d:	e8 36 ff ff ff       	call   102dd8 <gdt_set_entry>
  102ea2:	83 c4 14             	add    $0x14,%esp
  102ea5:	68 cf 00 00 00       	push   $0xcf
  102eaa:	68 9a 00 00 00       	push   $0x9a
  102eaf:	6a ff                	push   $0xffffffff
  102eb1:	6a 00                	push   $0x0
  102eb3:	6a 01                	push   $0x1
  102eb5:	e8 1e ff ff ff       	call   102dd8 <gdt_set_entry>
  102eba:	83 c4 14             	add    $0x14,%esp
  102ebd:	68 cf 00 00 00       	push   $0xcf
  102ec2:	68 92 00 00 00       	push   $0x92
  102ec7:	6a ff                	push   $0xffffffff
  102ec9:	6a 00                	push   $0x0
  102ecb:	6a 02                	push   $0x2
  102ecd:	e8 06 ff ff ff       	call   102dd8 <gdt_set_entry>
  102ed2:	83 c4 14             	add    $0x14,%esp
  102ed5:	68 cf 00 00 00       	push   $0xcf
  102eda:	68 fa 00 00 00       	push   $0xfa
  102edf:	6a ff                	push   $0xffffffff
  102ee1:	6a 00                	push   $0x0
  102ee3:	6a 03                	push   $0x3
  102ee5:	e8 ee fe ff ff       	call   102dd8 <gdt_set_entry>
  102eea:	83 c4 14             	add    $0x14,%esp
  102eed:	68 cf 00 00 00       	push   $0xcf
  102ef2:	68 f3 00 00 00       	push   $0xf3
  102ef7:	6a ff                	push   $0xffffffff
  102ef9:	6a 00                	push   $0x0
  102efb:	6a 04                	push   $0x4
  102efd:	e8 d6 fe ff ff       	call   102dd8 <gdt_set_entry>
  102f02:	83 c4 14             	add    $0x14,%esp
  102f05:	b8 c0 80 11 00       	mov    $0x1180c0,%eax
  102f0a:	6a 67                	push   $0x67
  102f0c:	50                   	push   %eax
  102f0d:	6a 05                	push   $0x5
  102f0f:	e8 49 ff ff ff       	call   102e5d <gdt_set_tss_entry>
  102f14:	83 c4 0c             	add    $0xc,%esp
  102f17:	bb c0 80 11 00       	mov    $0x1180c0,%ebx
  102f1c:	b8 00 00 00 00       	mov    $0x0,%eax
  102f21:	ba 1a 00 00 00       	mov    $0x1a,%edx
  102f26:	89 df                	mov    %ebx,%edi
  102f28:	89 d1                	mov    %edx,%ecx
  102f2a:	f3 ab                	rep stos %eax,%es:(%edi)
  102f2c:	c7 05 c8 80 11 00 10 	movl   $0x10,0x1180c8
  102f33:	00 00 00 
  102f36:	c7 05 c4 80 11 00 00 	movl   $0x90000,0x1180c4
  102f3d:	00 09 00 
  102f40:	66 c7 05 26 81 11 00 	movw   $0x68,0x118126
  102f47:	68 00 
  102f49:	b8 01 00 00 00       	mov    $0x1,%eax
  102f4e:	8d 65 f8             	lea    -0x8(%ebp),%esp
  102f51:	5b                   	pop    %ebx
  102f52:	5f                   	pop    %edi
  102f53:	5d                   	pop    %ebp
  102f54:	c3                   	ret

00102f55 <gdt_load>:
  102f55:	55                   	push   %ebp
  102f56:	89 e5                	mov    %esp,%ebp
  102f58:	0f 01 15 b0 80 11 00 	lgdtl  0x1180b0
  102f5f:	ea 66 2f 10 00 08 00 	ljmp   $0x8,$0x102f66

00102f66 <reload_cs>:
  102f66:	b8 10 00 00 00       	mov    $0x10,%eax
  102f6b:	8e d8                	mov    %eax,%ds
  102f6d:	8e c0                	mov    %eax,%es
  102f6f:	8e e0                	mov    %eax,%fs
  102f71:	8e e8                	mov    %eax,%gs
  102f73:	8e d0                	mov    %eax,%ss
  102f75:	b8 28 00 00 00       	mov    $0x28,%eax
  102f7a:	0f 00 d8             	ltr    %eax
  102f7d:	b8 01 00 00 00       	mov    $0x1,%eax
  102f82:	5d                   	pop    %ebp
  102f83:	c3                   	ret

00102f84 <idt_set_entry>:
  102f84:	55                   	push   %ebp
  102f85:	89 e5                	mov    %esp,%ebp
  102f87:	83 ec 08             	sub    $0x8,%esp
  102f8a:	8b 55 10             	mov    0x10(%ebp),%edx
  102f8d:	8b 45 14             	mov    0x14(%ebp),%eax
  102f90:	66 89 55 fc          	mov    %dx,-0x4(%ebp)
  102f94:	88 45 f8             	mov    %al,-0x8(%ebp)
  102f97:	8b 45 0c             	mov    0xc(%ebp),%eax
  102f9a:	89 c2                	mov    %eax,%edx
  102f9c:	8b 45 08             	mov    0x8(%ebp),%eax
  102f9f:	66 89 14 c5 40 81 11 	mov    %dx,0x118140(,%eax,8)
  102fa6:	00 
  102fa7:	8b 45 0c             	mov    0xc(%ebp),%eax
  102faa:	c1 e8 10             	shr    $0x10,%eax
  102fad:	89 c2                	mov    %eax,%edx
  102faf:	8b 45 08             	mov    0x8(%ebp),%eax
  102fb2:	66 89 14 c5 46 81 11 	mov    %dx,0x118146(,%eax,8)
  102fb9:	00 
  102fba:	8b 45 08             	mov    0x8(%ebp),%eax
  102fbd:	0f b7 55 fc          	movzwl -0x4(%ebp),%edx
  102fc1:	66 89 14 c5 42 81 11 	mov    %dx,0x118142(,%eax,8)
  102fc8:	00 
  102fc9:	8b 45 08             	mov    0x8(%ebp),%eax
  102fcc:	c6 04 c5 44 81 11 00 	movb   $0x0,0x118144(,%eax,8)
  102fd3:	00 
  102fd4:	8b 45 08             	mov    0x8(%ebp),%eax
  102fd7:	0f b6 55 f8          	movzbl -0x8(%ebp),%edx
  102fdb:	88 14 c5 45 81 11 00 	mov    %dl,0x118145(,%eax,8)
  102fe2:	90                   	nop
  102fe3:	c9                   	leave
  102fe4:	c3                   	ret

00102fe5 <idt_init>:
  102fe5:	55                   	push   %ebp
  102fe6:	89 e5                	mov    %esp,%ebp
  102fe8:	83 ec 10             	sub    $0x10,%esp
  102feb:	66 c7 05 40 89 11 00 	movw   $0x7ff,0x118940
  102ff2:	ff 07 
  102ff4:	b8 40 81 11 00       	mov    $0x118140,%eax
  102ff9:	a3 42 89 11 00       	mov    %eax,0x118942
  102ffe:	c7 45 fc 00 00 00 00 	movl   $0x0,-0x4(%ebp)
  103005:	eb 15                	jmp    10301c <idt_init+0x37>
  103007:	6a 00                	push   $0x0
  103009:	6a 00                	push   $0x0
  10300b:	6a 00                	push   $0x0
  10300d:	ff 75 fc             	push   -0x4(%ebp)
  103010:	e8 6f ff ff ff       	call   102f84 <idt_set_entry>
  103015:	83 c4 10             	add    $0x10,%esp
  103018:	83 45 fc 01          	addl   $0x1,-0x4(%ebp)
  10301c:	81 7d fc ff 00 00 00 	cmpl   $0xff,-0x4(%ebp)
  103023:	7e e2                	jle    103007 <idt_init+0x22>
  103025:	b8 01 00 00 00       	mov    $0x1,%eax
  10302a:	c9                   	leave
  10302b:	c3                   	ret

0010302c <idt_load>:
  10302c:	55                   	push   %ebp
  10302d:	89 e5                	mov    %esp,%ebp
  10302f:	0f 01 1d 40 89 11 00 	lidtl  0x118940
  103036:	b8 01 00 00 00       	mov    $0x1,%eax
  10303b:	5d                   	pop    %ebp
  10303c:	c3                   	ret

0010303d <idt_install_exception_handlers>:
  10303d:	55                   	push   %ebp
  10303e:	89 e5                	mov    %esp,%ebp
  103040:	b8 80 32 10 00       	mov    $0x103280,%eax
  103045:	68 8f 00 00 00       	push   $0x8f
  10304a:	6a 08                	push   $0x8
  10304c:	50                   	push   %eax
  10304d:	6a 00                	push   $0x0
  10304f:	e8 30 ff ff ff       	call   102f84 <idt_set_entry>
  103054:	83 c4 10             	add    $0x10,%esp
  103057:	b8 88 32 10 00       	mov    $0x103288,%eax
  10305c:	68 8f 00 00 00       	push   $0x8f
  103061:	6a 08                	push   $0x8
  103063:	50                   	push   %eax
  103064:	6a 01                	push   $0x1
  103066:	e8 19 ff ff ff       	call   102f84 <idt_set_entry>
  10306b:	83 c4 10             	add    $0x10,%esp
  10306e:	b8 90 32 10 00       	mov    $0x103290,%eax
  103073:	68 8f 00 00 00       	push   $0x8f
  103078:	6a 08                	push   $0x8
  10307a:	50                   	push   %eax
  10307b:	6a 02                	push   $0x2
  10307d:	e8 02 ff ff ff       	call   102f84 <idt_set_entry>
  103082:	83 c4 10             	add    $0x10,%esp
  103085:	b8 98 32 10 00       	mov    $0x103298,%eax
  10308a:	68 8f 00 00 00       	push   $0x8f
  10308f:	6a 08                	push   $0x8
  103091:	50                   	push   %eax
  103092:	6a 03                	push   $0x3
  103094:	e8 eb fe ff ff       	call   102f84 <idt_set_entry>
  103099:	83 c4 10             	add    $0x10,%esp
  10309c:	b8 a0 32 10 00       	mov    $0x1032a0,%eax
  1030a1:	68 8f 00 00 00       	push   $0x8f
  1030a6:	6a 08                	push   $0x8
  1030a8:	50                   	push   %eax
  1030a9:	6a 04                	push   $0x4
  1030ab:	e8 d4 fe ff ff       	call   102f84 <idt_set_entry>
  1030b0:	83 c4 10             	add    $0x10,%esp
  1030b3:	b8 a8 32 10 00       	mov    $0x1032a8,%eax
  1030b8:	68 8f 00 00 00       	push   $0x8f
  1030bd:	6a 08                	push   $0x8
  1030bf:	50                   	push   %eax
  1030c0:	6a 05                	push   $0x5
  1030c2:	e8 bd fe ff ff       	call   102f84 <idt_set_entry>
  1030c7:	83 c4 10             	add    $0x10,%esp
  1030ca:	b8 b0 32 10 00       	mov    $0x1032b0,%eax
  1030cf:	68 8f 00 00 00       	push   $0x8f
  1030d4:	6a 08                	push   $0x8
  1030d6:	50                   	push   %eax
  1030d7:	6a 06                	push   $0x6
  1030d9:	e8 a6 fe ff ff       	call   102f84 <idt_set_entry>
  1030de:	83 c4 10             	add    $0x10,%esp
  1030e1:	b8 b8 32 10 00       	mov    $0x1032b8,%eax
  1030e6:	68 8f 00 00 00       	push   $0x8f
  1030eb:	6a 08                	push   $0x8
  1030ed:	50                   	push   %eax
  1030ee:	6a 07                	push   $0x7
  1030f0:	e8 8f fe ff ff       	call   102f84 <idt_set_entry>
  1030f5:	83 c4 10             	add    $0x10,%esp
  1030f8:	b8 c0 32 10 00       	mov    $0x1032c0,%eax
  1030fd:	68 8f 00 00 00       	push   $0x8f
  103102:	6a 08                	push   $0x8
  103104:	50                   	push   %eax
  103105:	6a 08                	push   $0x8
  103107:	e8 78 fe ff ff       	call   102f84 <idt_set_entry>
  10310c:	83 c4 10             	add    $0x10,%esp
  10310f:	b8 c4 32 10 00       	mov    $0x1032c4,%eax
  103114:	68 8f 00 00 00       	push   $0x8f
  103119:	6a 08                	push   $0x8
  10311b:	50                   	push   %eax
  10311c:	6a 09                	push   $0x9
  10311e:	e8 61 fe ff ff       	call   102f84 <idt_set_entry>
  103123:	83 c4 10             	add    $0x10,%esp
  103126:	b8 cc 32 10 00       	mov    $0x1032cc,%eax
  10312b:	68 8f 00 00 00       	push   $0x8f
  103130:	6a 08                	push   $0x8
  103132:	50                   	push   %eax
  103133:	6a 0a                	push   $0xa
  103135:	e8 4a fe ff ff       	call   102f84 <idt_set_entry>
  10313a:	83 c4 10             	add    $0x10,%esp
  10313d:	b8 d0 32 10 00       	mov    $0x1032d0,%eax
  103142:	68 8f 00 00 00       	push   $0x8f
  103147:	6a 08                	push   $0x8
  103149:	50                   	push   %eax
  10314a:	6a 0b                	push   $0xb
  10314c:	e8 33 fe ff ff       	call   102f84 <idt_set_entry>
  103151:	83 c4 10             	add    $0x10,%esp
  103154:	b8 d4 32 10 00       	mov    $0x1032d4,%eax
  103159:	68 8f 00 00 00       	push   $0x8f
  10315e:	6a 08                	push   $0x8
  103160:	50                   	push   %eax
  103161:	6a 0c                	push   $0xc
  103163:	e8 1c fe ff ff       	call   102f84 <idt_set_entry>
  103168:	83 c4 10             	add    $0x10,%esp
  10316b:	b8 d8 32 10 00       	mov    $0x1032d8,%eax
  103170:	68 8f 00 00 00       	push   $0x8f
  103175:	6a 08                	push   $0x8
  103177:	50                   	push   %eax
  103178:	6a 0d                	push   $0xd
  10317a:	e8 05 fe ff ff       	call   102f84 <idt_set_entry>
  10317f:	83 c4 10             	add    $0x10,%esp
  103182:	b8 dc 32 10 00       	mov    $0x1032dc,%eax
  103187:	68 8f 00 00 00       	push   $0x8f
  10318c:	6a 08                	push   $0x8
  10318e:	50                   	push   %eax
  10318f:	6a 0e                	push   $0xe
  103191:	e8 ee fd ff ff       	call   102f84 <idt_set_entry>
  103196:	83 c4 10             	add    $0x10,%esp
  103199:	b8 e0 32 10 00       	mov    $0x1032e0,%eax
  10319e:	68 8f 00 00 00       	push   $0x8f
  1031a3:	6a 08                	push   $0x8
  1031a5:	50                   	push   %eax
  1031a6:	6a 0f                	push   $0xf
  1031a8:	e8 d7 fd ff ff       	call   102f84 <idt_set_entry>
  1031ad:	83 c4 10             	add    $0x10,%esp
  1031b0:	b8 e8 32 10 00       	mov    $0x1032e8,%eax
  1031b5:	68 8f 00 00 00       	push   $0x8f
  1031ba:	6a 08                	push   $0x8
  1031bc:	50                   	push   %eax
  1031bd:	6a 10                	push   $0x10
  1031bf:	e8 c0 fd ff ff       	call   102f84 <idt_set_entry>
  1031c4:	83 c4 10             	add    $0x10,%esp
  1031c7:	b8 f4 32 10 00       	mov    $0x1032f4,%eax
  1031cc:	68 8f 00 00 00       	push   $0x8f
  1031d1:	6a 08                	push   $0x8
  1031d3:	50                   	push   %eax
  1031d4:	6a 11                	push   $0x11
  1031d6:	e8 a9 fd ff ff       	call   102f84 <idt_set_entry>
  1031db:	83 c4 10             	add    $0x10,%esp
  1031de:	b8 fc 32 10 00       	mov    $0x1032fc,%eax
  1031e3:	68 8f 00 00 00       	push   $0x8f
  1031e8:	6a 08                	push   $0x8
  1031ea:	50                   	push   %eax
  1031eb:	6a 12                	push   $0x12
  1031ed:	e8 92 fd ff ff       	call   102f84 <idt_set_entry>
  1031f2:	83 c4 10             	add    $0x10,%esp
  1031f5:	b8 08 33 10 00       	mov    $0x103308,%eax
  1031fa:	68 8f 00 00 00       	push   $0x8f
  1031ff:	6a 08                	push   $0x8
  103201:	50                   	push   %eax
  103202:	6a 13                	push   $0x13
  103204:	e8 7b fd ff ff       	call   102f84 <idt_set_entry>
  103209:	83 c4 10             	add    $0x10,%esp
  10320c:	b8 14 33 10 00       	mov    $0x103314,%eax
  103211:	68 ee 00 00 00       	push   $0xee
  103216:	6a 08                	push   $0x8
  103218:	50                   	push   %eax
  103219:	68 80 00 00 00       	push   $0x80
  10321e:	e8 61 fd ff ff       	call   102f84 <idt_set_entry>
  103223:	83 c4 10             	add    $0x10,%esp
  103226:	b8 38 33 10 00       	mov    $0x103338,%eax
  10322b:	68 8e 00 00 00       	push   $0x8e
  103230:	6a 08                	push   $0x8
  103232:	50                   	push   %eax
  103233:	6a 20                	push   $0x20
  103235:	e8 4a fd ff ff       	call   102f84 <idt_set_entry>
  10323a:	83 c4 10             	add    $0x10,%esp
  10323d:	b8 01 00 00 00       	mov    $0x1,%eax
  103242:	c9                   	leave
  103243:	c3                   	ret

00103244 <idt_install_mouse_handler>:
  103244:	55                   	push   %ebp
  103245:	89 e5                	mov    %esp,%ebp
  103247:	b8 44 33 10 00       	mov    $0x103344,%eax
  10324c:	68 8e 00 00 00       	push   $0x8e
  103251:	6a 08                	push   $0x8
  103253:	50                   	push   %eax
  103254:	6a 2c                	push   $0x2c
  103256:	e8 29 fd ff ff       	call   102f84 <idt_set_entry>
  10325b:	83 c4 10             	add    $0x10,%esp
  10325e:	b8 01 00 00 00       	mov    $0x1,%eax
  103263:	c9                   	leave
  103264:	c3                   	ret
  103265:	66 90                	xchg   %ax,%ax
  103267:	90                   	nop

00103268 <exception_common>:
  103268:	50                   	push   %eax
  103269:	53                   	push   %ebx
  10326a:	51                   	push   %ecx
  10326b:	52                   	push   %edx
  10326c:	56                   	push   %esi
  10326d:	57                   	push   %edi
  10326e:	55                   	push   %ebp
  10326f:	e8 71 08 00 00       	call   103ae5 <exception_handler>
  103274:	5d                   	pop    %ebp
  103275:	5f                   	pop    %edi
  103276:	5e                   	pop    %esi
  103277:	5a                   	pop    %edx
  103278:	59                   	pop    %ecx
  103279:	5b                   	pop    %ebx
  10327a:	58                   	pop    %eax
  10327b:	83 c4 08             	add    $0x8,%esp
  10327e:	cf                   	iret
  10327f:	90                   	nop

00103280 <exception_stub_0>:
  103280:	6a 00                	push   $0x0
  103282:	6a 00                	push   $0x0
  103284:	eb e2                	jmp    103268 <exception_common>
  103286:	66 90                	xchg   %ax,%ax

00103288 <exception_stub_1>:
  103288:	6a 01                	push   $0x1
  10328a:	6a 00                	push   $0x0
  10328c:	eb da                	jmp    103268 <exception_common>
  10328e:	66 90                	xchg   %ax,%ax

00103290 <exception_stub_2>:
  103290:	6a 02                	push   $0x2
  103292:	6a 00                	push   $0x0
  103294:	eb d2                	jmp    103268 <exception_common>
  103296:	66 90                	xchg   %ax,%ax

00103298 <exception_stub_3>:
  103298:	6a 03                	push   $0x3
  10329a:	6a 00                	push   $0x0
  10329c:	eb ca                	jmp    103268 <exception_common>
  10329e:	66 90                	xchg   %ax,%ax

001032a0 <exception_stub_4>:
  1032a0:	6a 04                	push   $0x4
  1032a2:	6a 00                	push   $0x0
  1032a4:	eb c2                	jmp    103268 <exception_common>
  1032a6:	66 90                	xchg   %ax,%ax

001032a8 <exception_stub_5>:
  1032a8:	6a 05                	push   $0x5
  1032aa:	6a 00                	push   $0x0
  1032ac:	eb ba                	jmp    103268 <exception_common>
  1032ae:	66 90                	xchg   %ax,%ax

001032b0 <exception_stub_6>:
  1032b0:	6a 06                	push   $0x6
  1032b2:	6a 00                	push   $0x0
  1032b4:	eb b2                	jmp    103268 <exception_common>
  1032b6:	66 90                	xchg   %ax,%ax

001032b8 <exception_stub_7>:
  1032b8:	6a 07                	push   $0x7
  1032ba:	6a 00                	push   $0x0
  1032bc:	eb aa                	jmp    103268 <exception_common>
  1032be:	66 90                	xchg   %ax,%ax

001032c0 <exception_stub_8>:
  1032c0:	6a 08                	push   $0x8
  1032c2:	eb a4                	jmp    103268 <exception_common>

001032c4 <exception_stub_9>:
  1032c4:	6a 09                	push   $0x9
  1032c6:	6a 00                	push   $0x0
  1032c8:	eb 9e                	jmp    103268 <exception_common>
  1032ca:	66 90                	xchg   %ax,%ax

001032cc <exception_stub_10>:
  1032cc:	6a 0a                	push   $0xa
  1032ce:	eb 98                	jmp    103268 <exception_common>

001032d0 <exception_stub_11>:
  1032d0:	6a 0b                	push   $0xb
  1032d2:	eb 94                	jmp    103268 <exception_common>

001032d4 <exception_stub_12>:
  1032d4:	6a 0c                	push   $0xc
  1032d6:	eb 90                	jmp    103268 <exception_common>

001032d8 <exception_stub_13>:
  1032d8:	6a 0d                	push   $0xd
  1032da:	eb 8c                	jmp    103268 <exception_common>

001032dc <exception_stub_14>:
  1032dc:	6a 0e                	push   $0xe
  1032de:	eb 88                	jmp    103268 <exception_common>

001032e0 <exception_stub_15>:
  1032e0:	6a 0f                	push   $0xf
  1032e2:	6a 00                	push   $0x0
  1032e4:	eb 82                	jmp    103268 <exception_common>
  1032e6:	66 90                	xchg   %ax,%ax

001032e8 <exception_stub_16>:
  1032e8:	6a 10                	push   $0x10
  1032ea:	6a 00                	push   $0x0
  1032ec:	e9 77 ff ff ff       	jmp    103268 <exception_common>
  1032f1:	8d 76 00             	lea    0x0(%esi),%esi

001032f4 <exception_stub_17>:
  1032f4:	6a 11                	push   $0x11
  1032f6:	e9 6d ff ff ff       	jmp    103268 <exception_common>
  1032fb:	90                   	nop

001032fc <exception_stub_18>:
  1032fc:	6a 12                	push   $0x12
  1032fe:	6a 00                	push   $0x0
  103300:	e9 63 ff ff ff       	jmp    103268 <exception_common>
  103305:	8d 76 00             	lea    0x0(%esi),%esi

00103308 <exception_stub_19>:
  103308:	6a 13                	push   $0x13
  10330a:	6a 00                	push   $0x0
  10330c:	e9 57 ff ff ff       	jmp    103268 <exception_common>
  103311:	8d 76 00             	lea    0x0(%esi),%esi

00103314 <syscall_int>:
  103314:	55                   	push   %ebp
  103315:	89 e5                	mov    %esp,%ebp
  103317:	53                   	push   %ebx
  103318:	57                   	push   %edi
  103319:	56                   	push   %esi
  10331a:	89 ef                	mov    %ebp,%edi
  10331c:	83 c7 14             	add    $0x14,%edi
  10331f:	83 c7 0c             	add    $0xc,%edi
  103322:	57                   	push   %edi
  103323:	56                   	push   %esi
  103324:	52                   	push   %edx
  103325:	51                   	push   %ecx
  103326:	53                   	push   %ebx
  103327:	50                   	push   %eax
  103328:	e8 14 09 00 00       	call   103c41 <syscall_dispatcher>
  10332d:	83 c4 18             	add    $0x18,%esp
  103330:	5e                   	pop    %esi
  103331:	5f                   	pop    %edi
  103332:	5b                   	pop    %ebx
  103333:	5d                   	pop    %ebp
  103334:	cf                   	iret
  103335:	8d 76 00             	lea    0x0(%esi),%esi

00103338 <irq0_stub>:
  103338:	60                   	pusha
  103339:	e8 2f 19 00 00       	call   104c6d <pit_handler>
  10333e:	b0 20                	mov    $0x20,%al
  103340:	e6 20                	out    %al,$0x20
  103342:	61                   	popa
  103343:	cf                   	iret

00103344 <irq12_stub>:
  103344:	60                   	pusha
  103345:	e8 c7 ee ff ff       	call   102211 <mouse_handler>
  10334a:	b0 20                	mov    $0x20,%al
  10334c:	e6 a0                	out    %al,$0xa0
  10334e:	e6 20                	out    %al,$0x20
  103350:	61                   	popa
  103351:	cf                   	iret

00103352 <print_hex>:
  103352:	55                   	push   %ebp
  103353:	89 e5                	mov    %esp,%ebp
  103355:	83 ec 28             	sub    $0x28,%esp
  103358:	c7 45 e3 30 31 32 33 	movl   $0x33323130,-0x1d(%ebp)
  10335f:	c7 45 e7 34 35 36 37 	movl   $0x37363534,-0x19(%ebp)
  103366:	c7 45 eb 38 39 41 42 	movl   $0x42413938,-0x15(%ebp)
  10336d:	c7 45 ef 43 44 45 46 	movl   $0x46454443,-0x11(%ebp)
  103374:	c6 45 f3 00          	movb   $0x0,-0xd(%ebp)
  103378:	c6 45 d8 30          	movb   $0x30,-0x28(%ebp)
  10337c:	c6 45 d9 78          	movb   $0x78,-0x27(%ebp)
  103380:	c7 45 f4 07 00 00 00 	movl   $0x7,-0xc(%ebp)
  103387:	eb 29                	jmp    1033b2 <print_hex+0x60>
  103389:	8b 45 f4             	mov    -0xc(%ebp),%eax
  10338c:	c1 e0 02             	shl    $0x2,%eax
  10338f:	8b 55 08             	mov    0x8(%ebp),%edx
  103392:	89 c1                	mov    %eax,%ecx
  103394:	d3 ea                	shr    %cl,%edx
  103396:	89 d0                	mov    %edx,%eax
  103398:	83 e0 0f             	and    $0xf,%eax
  10339b:	89 c2                	mov    %eax,%edx
  10339d:	b8 09 00 00 00       	mov    $0x9,%eax
  1033a2:	2b 45 f4             	sub    -0xc(%ebp),%eax
  1033a5:	0f b6 54 15 e3       	movzbl -0x1d(%ebp,%edx,1),%edx
  1033aa:	88 54 05 d8          	mov    %dl,-0x28(%ebp,%eax,1)
  1033ae:	83 6d f4 01          	subl   $0x1,-0xc(%ebp)
  1033b2:	83 7d f4 00          	cmpl   $0x0,-0xc(%ebp)
  1033b6:	79 d1                	jns    103389 <print_hex+0x37>
  1033b8:	c6 45 e2 00          	movb   $0x0,-0x1e(%ebp)
  1033bc:	83 ec 0c             	sub    $0xc,%esp
  1033bf:	8d 45 d8             	lea    -0x28(%ebp),%eax
  1033c2:	50                   	push   %eax
  1033c3:	e8 52 d2 ff ff       	call   10061a <vga_print>
  1033c8:	83 c4 10             	add    $0x10,%esp
  1033cb:	90                   	nop
  1033cc:	c9                   	leave
  1033cd:	c3                   	ret

001033ce <print_hex_at>:
  1033ce:	55                   	push   %ebp
  1033cf:	89 e5                	mov    %esp,%ebp
  1033d1:	83 ec 28             	sub    $0x28,%esp
  1033d4:	c7 45 e3 30 31 32 33 	movl   $0x33323130,-0x1d(%ebp)
  1033db:	c7 45 e7 34 35 36 37 	movl   $0x37363534,-0x19(%ebp)
  1033e2:	c7 45 eb 38 39 41 42 	movl   $0x42413938,-0x15(%ebp)
  1033e9:	c7 45 ef 43 44 45 46 	movl   $0x46454443,-0x11(%ebp)
  1033f0:	c6 45 f3 00          	movb   $0x0,-0xd(%ebp)
  1033f4:	c6 45 d8 30          	movb   $0x30,-0x28(%ebp)
  1033f8:	c6 45 d9 78          	movb   $0x78,-0x27(%ebp)
  1033fc:	c7 45 f4 07 00 00 00 	movl   $0x7,-0xc(%ebp)
  103403:	eb 29                	jmp    10342e <print_hex_at+0x60>
  103405:	8b 45 f4             	mov    -0xc(%ebp),%eax
  103408:	c1 e0 02             	shl    $0x2,%eax
  10340b:	8b 55 10             	mov    0x10(%ebp),%edx
  10340e:	89 c1                	mov    %eax,%ecx
  103410:	d3 ea                	shr    %cl,%edx
  103412:	89 d0                	mov    %edx,%eax
  103414:	83 e0 0f             	and    $0xf,%eax
  103417:	89 c2                	mov    %eax,%edx
  103419:	b8 09 00 00 00       	mov    $0x9,%eax
  10341e:	2b 45 f4             	sub    -0xc(%ebp),%eax
  103421:	0f b6 54 15 e3       	movzbl -0x1d(%ebp,%edx,1),%edx
  103426:	88 54 05 d8          	mov    %dl,-0x28(%ebp,%eax,1)
  10342a:	83 6d f4 01          	subl   $0x1,-0xc(%ebp)
  10342e:	83 7d f4 00          	cmpl   $0x0,-0xc(%ebp)
  103432:	79 d1                	jns    103405 <print_hex_at+0x37>
  103434:	c6 45 e2 00          	movb   $0x0,-0x1e(%ebp)
  103438:	83 ec 04             	sub    $0x4,%esp
  10343b:	8d 45 d8             	lea    -0x28(%ebp),%eax
  10343e:	50                   	push   %eax
  10343f:	ff 75 0c             	push   0xc(%ebp)
  103442:	ff 75 08             	push   0x8(%ebp)
  103445:	e8 f5 d4 ff ff       	call   10093f <vga_print_at>
  10344a:	83 c4 10             	add    $0x10,%esp
  10344d:	90                   	nop
  10344e:	c9                   	leave
  10344f:	c3                   	ret

00103450 <get_exception_name>:
  103450:	55                   	push   %ebp
  103451:	89 e5                	mov    %esp,%ebp
  103453:	83 7d 08 1e          	cmpl   $0x1e,0x8(%ebp)
  103457:	0f 87 ab 00 00 00    	ja     103508 <get_exception_name+0xb8>
  10345d:	8b 45 08             	mov    0x8(%ebp),%eax
  103460:	c1 e0 02             	shl    $0x2,%eax
  103463:	05 34 64 10 00       	add    $0x106434,%eax
  103468:	8b 00                	mov    (%eax),%eax
  10346a:	ff e0                	jmp    *%eax
  10346c:	b8 a8 62 10 00       	mov    $0x1062a8,%eax
  103471:	e9 97 00 00 00       	jmp    10350d <get_exception_name+0xbd>
  103476:	b8 b7 62 10 00       	mov    $0x1062b7,%eax
  10347b:	e9 8d 00 00 00       	jmp    10350d <get_exception_name+0xbd>
  103480:	b8 c7 62 10 00       	mov    $0x1062c7,%eax
  103485:	e9 83 00 00 00       	jmp    10350d <get_exception_name+0xbd>
  10348a:	b8 de 62 10 00       	mov    $0x1062de,%eax
  10348f:	eb 7c                	jmp    10350d <get_exception_name+0xbd>
  103491:	b8 e9 62 10 00       	mov    $0x1062e9,%eax
  103496:	eb 75                	jmp    10350d <get_exception_name+0xbd>
  103498:	b8 f2 62 10 00       	mov    $0x1062f2,%eax
  10349d:	eb 6e                	jmp    10350d <get_exception_name+0xbd>
  10349f:	b8 07 63 10 00       	mov    $0x106307,%eax
  1034a4:	eb 67                	jmp    10350d <get_exception_name+0xbd>
  1034a6:	b8 16 63 10 00       	mov    $0x106316,%eax
  1034ab:	eb 60                	jmp    10350d <get_exception_name+0xbd>
  1034ad:	b8 2b 63 10 00       	mov    $0x10632b,%eax
  1034b2:	eb 59                	jmp    10350d <get_exception_name+0xbd>
  1034b4:	b8 38 63 10 00       	mov    $0x106338,%eax
  1034b9:	eb 52                	jmp    10350d <get_exception_name+0xbd>
  1034bb:	b8 54 63 10 00       	mov    $0x106354,%eax
  1034c0:	eb 4b                	jmp    10350d <get_exception_name+0xbd>
  1034c2:	b8 60 63 10 00       	mov    $0x106360,%eax
  1034c7:	eb 44                	jmp    10350d <get_exception_name+0xbd>
  1034c9:	b8 74 63 10 00       	mov    $0x106374,%eax
  1034ce:	eb 3d                	jmp    10350d <get_exception_name+0xbd>
  1034d0:	b8 88 63 10 00       	mov    $0x106388,%eax
  1034d5:	eb 36                	jmp    10350d <get_exception_name+0xbd>
  1034d7:	b8 a1 63 10 00       	mov    $0x1063a1,%eax
  1034dc:	eb 2f                	jmp    10350d <get_exception_name+0xbd>
  1034de:	b8 ac 63 10 00       	mov    $0x1063ac,%eax
  1034e3:	eb 28                	jmp    10350d <get_exception_name+0xbd>
  1034e5:	b8 ba 63 10 00       	mov    $0x1063ba,%eax
  1034ea:	eb 21                	jmp    10350d <get_exception_name+0xbd>
  1034ec:	b8 ca 63 10 00       	mov    $0x1063ca,%eax
  1034f1:	eb 1a                	jmp    10350d <get_exception_name+0xbd>
  1034f3:	b8 d8 63 10 00       	mov    $0x1063d8,%eax
  1034f8:	eb 13                	jmp    10350d <get_exception_name+0xbd>
  1034fa:	b8 f6 63 10 00       	mov    $0x1063f6,%eax
  1034ff:	eb 0c                	jmp    10350d <get_exception_name+0xbd>
  103501:	b8 0f 64 10 00       	mov    $0x10640f,%eax
  103506:	eb 05                	jmp    10350d <get_exception_name+0xbd>
  103508:	b8 22 64 10 00       	mov    $0x106422,%eax
  10350d:	5d                   	pop    %ebp
  10350e:	c3                   	ret

0010350f <get_exception_description>:
  10350f:	55                   	push   %ebp
  103510:	89 e5                	mov    %esp,%ebp
  103512:	83 7d 08 0e          	cmpl   $0xe,0x8(%ebp)
  103516:	74 35                	je     10354d <get_exception_description+0x3e>
  103518:	83 7d 08 0e          	cmpl   $0xe,0x8(%ebp)
  10351c:	77 36                	ja     103554 <get_exception_description+0x45>
  10351e:	83 7d 08 0d          	cmpl   $0xd,0x8(%ebp)
  103522:	74 22                	je     103546 <get_exception_description+0x37>
  103524:	83 7d 08 0d          	cmpl   $0xd,0x8(%ebp)
  103528:	77 2a                	ja     103554 <get_exception_description+0x45>
  10352a:	83 7d 08 00          	cmpl   $0x0,0x8(%ebp)
  10352e:	74 08                	je     103538 <get_exception_description+0x29>
  103530:	83 7d 08 06          	cmpl   $0x6,0x8(%ebp)
  103534:	74 09                	je     10353f <get_exception_description+0x30>
  103536:	eb 1c                	jmp    103554 <get_exception_description+0x45>
  103538:	b8 b0 64 10 00       	mov    $0x1064b0,%eax
  10353d:	eb 1a                	jmp    103559 <get_exception_description+0x4a>
  10353f:	b8 cc 64 10 00       	mov    $0x1064cc,%eax
  103544:	eb 13                	jmp    103559 <get_exception_description+0x4a>
  103546:	b8 f0 64 10 00       	mov    $0x1064f0,%eax
  10354b:	eb 0c                	jmp    103559 <get_exception_description+0x4a>
  10354d:	b8 18 65 10 00       	mov    $0x106518,%eax
  103552:	eb 05                	jmp    103559 <get_exception_description+0x4a>
  103554:	b8 42 65 10 00       	mov    $0x106542,%eax
  103559:	5d                   	pop    %ebp
  10355a:	c3                   	ret

0010355b <handle_user_exception>:
  10355b:	55                   	push   %ebp
  10355c:	89 e5                	mov    %esp,%ebp
  10355e:	83 ec 08             	sub    $0x8,%esp
  103561:	83 ec 0c             	sub    $0xc,%esp
  103564:	68 5a 65 10 00       	push   $0x10655a
  103569:	e8 ac d0 ff ff       	call   10061a <vga_print>
  10356e:	83 c4 10             	add    $0x10,%esp
  103571:	83 ec 0c             	sub    $0xc,%esp
  103574:	ff 75 08             	push   0x8(%ebp)
  103577:	e8 d6 fd ff ff       	call   103352 <print_hex>
  10357c:	83 c4 10             	add    $0x10,%esp
  10357f:	83 ec 0c             	sub    $0xc,%esp
  103582:	68 6e 65 10 00       	push   $0x10656e
  103587:	e8 8e d0 ff ff       	call   10061a <vga_print>
  10358c:	83 c4 10             	add    $0x10,%esp
  10358f:	83 ec 0c             	sub    $0xc,%esp
  103592:	ff 75 08             	push   0x8(%ebp)
  103595:	e8 b6 fe ff ff       	call   103450 <get_exception_name>
  10359a:	83 c4 10             	add    $0x10,%esp
  10359d:	83 ec 0c             	sub    $0xc,%esp
  1035a0:	50                   	push   %eax
  1035a1:	e8 74 d0 ff ff       	call   10061a <vga_print>
  1035a6:	83 c4 10             	add    $0x10,%esp
  1035a9:	83 ec 0c             	sub    $0xc,%esp
  1035ac:	68 71 65 10 00       	push   $0x106571
  1035b1:	e8 64 d0 ff ff       	call   10061a <vga_print>
  1035b6:	83 c4 10             	add    $0x10,%esp
  1035b9:	83 ec 0c             	sub    $0xc,%esp
  1035bc:	ff 75 0c             	push   0xc(%ebp)
  1035bf:	e8 8e fd ff ff       	call   103352 <print_hex>
  1035c4:	83 c4 10             	add    $0x10,%esp
  1035c7:	83 ec 0c             	sub    $0xc,%esp
  1035ca:	68 84 65 10 00       	push   $0x106584
  1035cf:	e8 46 d0 ff ff       	call   10061a <vga_print>
  1035d4:	83 c4 10             	add    $0x10,%esp
  1035d7:	a1 04 80 11 00       	mov    0x118004,%eax
  1035dc:	83 ec 0c             	sub    $0xc,%esp
  1035df:	50                   	push   %eax
  1035e0:	e8 6f 05 00 00       	call   103b54 <ring3_switch>
  1035e5:	83 c4 10             	add    $0x10,%esp
  1035e8:	90                   	nop
  1035e9:	c9                   	leave
  1035ea:	c3                   	ret

001035eb <handle_kernel_exception>:
  1035eb:	55                   	push   %ebp
  1035ec:	89 e5                	mov    %esp,%ebp
  1035ee:	83 ec 38             	sub    $0x38,%esp
  1035f1:	89 6d f4             	mov    %ebp,-0xc(%ebp)
  1035f4:	8b 45 f4             	mov    -0xc(%ebp),%eax
  1035f7:	8b 40 e4             	mov    -0x1c(%eax),%eax
  1035fa:	89 45 f0             	mov    %eax,-0x10(%ebp)
  1035fd:	8b 45 f4             	mov    -0xc(%ebp),%eax
  103600:	8b 40 e8             	mov    -0x18(%eax),%eax
  103603:	89 45 ec             	mov    %eax,-0x14(%ebp)
  103606:	8b 45 f4             	mov    -0xc(%ebp),%eax
  103609:	8b 40 ec             	mov    -0x14(%eax),%eax
  10360c:	89 45 e8             	mov    %eax,-0x18(%ebp)
  10360f:	8b 45 f4             	mov    -0xc(%ebp),%eax
  103612:	8b 40 f0             	mov    -0x10(%eax),%eax
  103615:	89 45 e4             	mov    %eax,-0x1c(%ebp)
  103618:	8b 45 f4             	mov    -0xc(%ebp),%eax
  10361b:	8b 40 f4             	mov    -0xc(%eax),%eax
  10361e:	89 45 e0             	mov    %eax,-0x20(%ebp)
  103621:	8b 45 f4             	mov    -0xc(%ebp),%eax
  103624:	8b 40 f8             	mov    -0x8(%eax),%eax
  103627:	89 45 dc             	mov    %eax,-0x24(%ebp)
  10362a:	8b 45 f4             	mov    -0xc(%ebp),%eax
  10362d:	8b 40 fc             	mov    -0x4(%eax),%eax
  103630:	89 45 d8             	mov    %eax,-0x28(%ebp)
  103633:	8b 45 f4             	mov    -0xc(%ebp),%eax
  103636:	83 c0 1c             	add    $0x1c,%eax
  103639:	89 45 d4             	mov    %eax,-0x2c(%ebp)
  10363c:	0f 20 c0             	mov    %cr0,%eax
  10363f:	89 45 d0             	mov    %eax,-0x30(%ebp)
  103642:	0f 20 d0             	mov    %cr2,%eax
  103645:	89 45 cc             	mov    %eax,-0x34(%ebp)
  103648:	0f 20 d8             	mov    %cr3,%eax
  10364b:	89 45 c8             	mov    %eax,-0x38(%ebp)
  10364e:	e8 5c dd ff ff       	call   1013af <vbe_emergency_text_mode>
  103653:	e8 ae ce ff ff       	call   100506 <vga_clear>
  103658:	83 ec 08             	sub    $0x8,%esp
  10365b:	6a 00                	push   $0x0
  10365d:	6a 07                	push   $0x7
  10365f:	e8 f8 ce ff ff       	call   10055c <vga_set_color>
  103664:	83 c4 10             	add    $0x10,%esp
  103667:	83 ec 04             	sub    $0x4,%esp
  10366a:	68 b0 65 10 00       	push   $0x1065b0
  10366f:	6a 00                	push   $0x0
  103671:	6a 00                	push   $0x0
  103673:	e8 c7 d2 ff ff       	call   10093f <vga_print_at>
  103678:	83 c4 10             	add    $0x10,%esp
  10367b:	83 ec 04             	sub    $0x4,%esp
  10367e:	68 04 66 10 00       	push   $0x106604
  103683:	6a 01                	push   $0x1
  103685:	6a 00                	push   $0x0
  103687:	e8 b3 d2 ff ff       	call   10093f <vga_print_at>
  10368c:	83 c4 10             	add    $0x10,%esp
  10368f:	83 ec 08             	sub    $0x8,%esp
  103692:	6a 00                	push   $0x0
  103694:	6a 0c                	push   $0xc
  103696:	e8 c1 ce ff ff       	call   10055c <vga_set_color>
  10369b:	83 c4 10             	add    $0x10,%esp
  10369e:	83 ec 04             	sub    $0x4,%esp
  1036a1:	68 55 66 10 00       	push   $0x106655
  1036a6:	6a 01                	push   $0x1
  1036a8:	6a 20                	push   $0x20
  1036aa:	e8 90 d2 ff ff       	call   10093f <vga_print_at>
  1036af:	83 c4 10             	add    $0x10,%esp
  1036b2:	83 ec 08             	sub    $0x8,%esp
  1036b5:	6a 00                	push   $0x0
  1036b7:	6a 07                	push   $0x7
  1036b9:	e8 9e ce ff ff       	call   10055c <vga_set_color>
  1036be:	83 c4 10             	add    $0x10,%esp
  1036c1:	83 ec 04             	sub    $0x4,%esp
  1036c4:	68 04 66 10 00       	push   $0x106604
  1036c9:	6a 02                	push   $0x2
  1036cb:	6a 00                	push   $0x0
  1036cd:	e8 6d d2 ff ff       	call   10093f <vga_print_at>
  1036d2:	83 c4 10             	add    $0x10,%esp
  1036d5:	83 ec 04             	sub    $0x4,%esp
  1036d8:	68 b0 65 10 00       	push   $0x1065b0
  1036dd:	6a 03                	push   $0x3
  1036df:	6a 00                	push   $0x0
  1036e1:	e8 59 d2 ff ff       	call   10093f <vga_print_at>
  1036e6:	83 c4 10             	add    $0x10,%esp
  1036e9:	83 ec 08             	sub    $0x8,%esp
  1036ec:	6a 00                	push   $0x0
  1036ee:	6a 0e                	push   $0xe
  1036f0:	e8 67 ce ff ff       	call   10055c <vga_set_color>
  1036f5:	83 c4 10             	add    $0x10,%esp
  1036f8:	83 ec 04             	sub    $0x4,%esp
  1036fb:	68 63 66 10 00       	push   $0x106663
  103700:	6a 05                	push   $0x5
  103702:	6a 02                	push   $0x2
  103704:	e8 36 d2 ff ff       	call   10093f <vga_print_at>
  103709:	83 c4 10             	add    $0x10,%esp
  10370c:	83 ec 08             	sub    $0x8,%esp
  10370f:	6a 00                	push   $0x0
  103711:	6a 0b                	push   $0xb
  103713:	e8 44 ce ff ff       	call   10055c <vga_set_color>
  103718:	83 c4 10             	add    $0x10,%esp
  10371b:	83 ec 04             	sub    $0x4,%esp
  10371e:	68 7a 66 10 00       	push   $0x10667a
  103723:	6a 06                	push   $0x6
  103725:	6a 04                	push   $0x4
  103727:	e8 13 d2 ff ff       	call   10093f <vga_print_at>
  10372c:	83 c4 10             	add    $0x10,%esp
  10372f:	83 ec 08             	sub    $0x8,%esp
  103732:	6a 00                	push   $0x0
  103734:	6a 0f                	push   $0xf
  103736:	e8 21 ce ff ff       	call   10055c <vga_set_color>
  10373b:	83 c4 10             	add    $0x10,%esp
  10373e:	83 ec 0c             	sub    $0xc,%esp
  103741:	ff 75 08             	push   0x8(%ebp)
  103744:	e8 07 fd ff ff       	call   103450 <get_exception_name>
  103749:	83 c4 10             	add    $0x10,%esp
  10374c:	83 ec 04             	sub    $0x4,%esp
  10374f:	50                   	push   %eax
  103750:	6a 06                	push   $0x6
  103752:	6a 14                	push   $0x14
  103754:	e8 e6 d1 ff ff       	call   10093f <vga_print_at>
  103759:	83 c4 10             	add    $0x10,%esp
  10375c:	83 ec 08             	sub    $0x8,%esp
  10375f:	6a 00                	push   $0x0
  103761:	6a 0b                	push   $0xb
  103763:	e8 f4 cd ff ff       	call   10055c <vga_set_color>
  103768:	83 c4 10             	add    $0x10,%esp
  10376b:	83 ec 04             	sub    $0x4,%esp
  10376e:	68 80 66 10 00       	push   $0x106680
  103773:	6a 07                	push   $0x7
  103775:	6a 04                	push   $0x4
  103777:	e8 c3 d1 ff ff       	call   10093f <vga_print_at>
  10377c:	83 c4 10             	add    $0x10,%esp
  10377f:	83 ec 08             	sub    $0x8,%esp
  103782:	6a 00                	push   $0x0
  103784:	6a 0f                	push   $0xf
  103786:	e8 d1 cd ff ff       	call   10055c <vga_set_color>
  10378b:	83 c4 10             	add    $0x10,%esp
  10378e:	83 ec 04             	sub    $0x4,%esp
  103791:	ff 75 08             	push   0x8(%ebp)
  103794:	6a 07                	push   $0x7
  103796:	6a 14                	push   $0x14
  103798:	e8 31 fc ff ff       	call   1033ce <print_hex_at>
  10379d:	83 c4 10             	add    $0x10,%esp
  1037a0:	83 ec 08             	sub    $0x8,%esp
  1037a3:	6a 00                	push   $0x0
  1037a5:	6a 0b                	push   $0xb
  1037a7:	e8 b0 cd ff ff       	call   10055c <vga_set_color>
  1037ac:	83 c4 10             	add    $0x10,%esp
  1037af:	83 ec 04             	sub    $0x4,%esp
  1037b2:	68 88 66 10 00       	push   $0x106688
  1037b7:	6a 08                	push   $0x8
  1037b9:	6a 04                	push   $0x4
  1037bb:	e8 7f d1 ff ff       	call   10093f <vga_print_at>
  1037c0:	83 c4 10             	add    $0x10,%esp
  1037c3:	83 ec 08             	sub    $0x8,%esp
  1037c6:	6a 00                	push   $0x0
  1037c8:	6a 0f                	push   $0xf
  1037ca:	e8 8d cd ff ff       	call   10055c <vga_set_color>
  1037cf:	83 c4 10             	add    $0x10,%esp
  1037d2:	83 ec 04             	sub    $0x4,%esp
  1037d5:	ff 75 0c             	push   0xc(%ebp)
  1037d8:	6a 08                	push   $0x8
  1037da:	6a 14                	push   $0x14
  1037dc:	e8 ed fb ff ff       	call   1033ce <print_hex_at>
  1037e1:	83 c4 10             	add    $0x10,%esp
  1037e4:	83 ec 08             	sub    $0x8,%esp
  1037e7:	6a 00                	push   $0x0
  1037e9:	6a 0b                	push   $0xb
  1037eb:	e8 6c cd ff ff       	call   10055c <vga_set_color>
  1037f0:	83 c4 10             	add    $0x10,%esp
  1037f3:	83 ec 04             	sub    $0x4,%esp
  1037f6:	68 94 66 10 00       	push   $0x106694
  1037fb:	6a 09                	push   $0x9
  1037fd:	6a 04                	push   $0x4
  1037ff:	e8 3b d1 ff ff       	call   10093f <vga_print_at>
  103804:	83 c4 10             	add    $0x10,%esp
  103807:	83 ec 08             	sub    $0x8,%esp
  10380a:	6a 00                	push   $0x0
  10380c:	6a 07                	push   $0x7
  10380e:	e8 49 cd ff ff       	call   10055c <vga_set_color>
  103813:	83 c4 10             	add    $0x10,%esp
  103816:	83 ec 0c             	sub    $0xc,%esp
  103819:	ff 75 08             	push   0x8(%ebp)
  10381c:	e8 ee fc ff ff       	call   10350f <get_exception_description>
  103821:	83 c4 10             	add    $0x10,%esp
  103824:	83 ec 04             	sub    $0x4,%esp
  103827:	50                   	push   %eax
  103828:	6a 09                	push   $0x9
  10382a:	6a 14                	push   $0x14
  10382c:	e8 0e d1 ff ff       	call   10093f <vga_print_at>
  103831:	83 c4 10             	add    $0x10,%esp
  103834:	83 ec 08             	sub    $0x8,%esp
  103837:	6a 00                	push   $0x0
  103839:	6a 0e                	push   $0xe
  10383b:	e8 1c cd ff ff       	call   10055c <vga_set_color>
  103840:	83 c4 10             	add    $0x10,%esp
  103843:	83 ec 04             	sub    $0x4,%esp
  103846:	68 a1 66 10 00       	push   $0x1066a1
  10384b:	6a 0b                	push   $0xb
  10384d:	6a 02                	push   $0x2
  10384f:	e8 eb d0 ff ff       	call   10093f <vga_print_at>
  103854:	83 c4 10             	add    $0x10,%esp
  103857:	83 ec 08             	sub    $0x8,%esp
  10385a:	6a 00                	push   $0x0
  10385c:	6a 0a                	push   $0xa
  10385e:	e8 f9 cc ff ff       	call   10055c <vga_set_color>
  103863:	83 c4 10             	add    $0x10,%esp
  103866:	83 ec 04             	sub    $0x4,%esp
  103869:	68 b5 66 10 00       	push   $0x1066b5
  10386e:	6a 0c                	push   $0xc
  103870:	6a 04                	push   $0x4
  103872:	e8 c8 d0 ff ff       	call   10093f <vga_print_at>
  103877:	83 c4 10             	add    $0x10,%esp
  10387a:	83 ec 04             	sub    $0x4,%esp
  10387d:	ff 75 10             	push   0x10(%ebp)
  103880:	6a 0c                	push   $0xc
  103882:	6a 0c                	push   $0xc
  103884:	e8 45 fb ff ff       	call   1033ce <print_hex_at>
  103889:	83 c4 10             	add    $0x10,%esp
  10388c:	83 ec 04             	sub    $0x4,%esp
  10388f:	68 ba 66 10 00       	push   $0x1066ba
  103894:	6a 0c                	push   $0xc
  103896:	6a 1a                	push   $0x1a
  103898:	e8 a2 d0 ff ff       	call   10093f <vga_print_at>
  10389d:	83 c4 10             	add    $0x10,%esp
  1038a0:	83 ec 04             	sub    $0x4,%esp
  1038a3:	ff 75 f0             	push   -0x10(%ebp)
  1038a6:	6a 0c                	push   $0xc
  1038a8:	6a 22                	push   $0x22
  1038aa:	e8 1f fb ff ff       	call   1033ce <print_hex_at>
  1038af:	83 c4 10             	add    $0x10,%esp
  1038b2:	83 ec 04             	sub    $0x4,%esp
  1038b5:	68 bf 66 10 00       	push   $0x1066bf
  1038ba:	6a 0c                	push   $0xc
  1038bc:	6a 30                	push   $0x30
  1038be:	e8 7c d0 ff ff       	call   10093f <vga_print_at>
  1038c3:	83 c4 10             	add    $0x10,%esp
  1038c6:	83 ec 04             	sub    $0x4,%esp
  1038c9:	ff 75 ec             	push   -0x14(%ebp)
  1038cc:	6a 0c                	push   $0xc
  1038ce:	6a 38                	push   $0x38
  1038d0:	e8 f9 fa ff ff       	call   1033ce <print_hex_at>
  1038d5:	83 c4 10             	add    $0x10,%esp
  1038d8:	83 ec 04             	sub    $0x4,%esp
  1038db:	68 c4 66 10 00       	push   $0x1066c4
  1038e0:	6a 0d                	push   $0xd
  1038e2:	6a 04                	push   $0x4
  1038e4:	e8 56 d0 ff ff       	call   10093f <vga_print_at>
  1038e9:	83 c4 10             	add    $0x10,%esp
  1038ec:	83 ec 04             	sub    $0x4,%esp
  1038ef:	ff 75 e8             	push   -0x18(%ebp)
  1038f2:	6a 0d                	push   $0xd
  1038f4:	6a 0c                	push   $0xc
  1038f6:	e8 d3 fa ff ff       	call   1033ce <print_hex_at>
  1038fb:	83 c4 10             	add    $0x10,%esp
  1038fe:	83 ec 04             	sub    $0x4,%esp
  103901:	68 c9 66 10 00       	push   $0x1066c9
  103906:	6a 0d                	push   $0xd
  103908:	6a 1a                	push   $0x1a
  10390a:	e8 30 d0 ff ff       	call   10093f <vga_print_at>
  10390f:	83 c4 10             	add    $0x10,%esp
  103912:	83 ec 04             	sub    $0x4,%esp
  103915:	ff 75 e4             	push   -0x1c(%ebp)
  103918:	6a 0d                	push   $0xd
  10391a:	6a 22                	push   $0x22
  10391c:	e8 ad fa ff ff       	call   1033ce <print_hex_at>
  103921:	83 c4 10             	add    $0x10,%esp
  103924:	83 ec 04             	sub    $0x4,%esp
  103927:	68 ce 66 10 00       	push   $0x1066ce
  10392c:	6a 0d                	push   $0xd
  10392e:	6a 30                	push   $0x30
  103930:	e8 0a d0 ff ff       	call   10093f <vga_print_at>
  103935:	83 c4 10             	add    $0x10,%esp
  103938:	83 ec 04             	sub    $0x4,%esp
  10393b:	ff 75 e0             	push   -0x20(%ebp)
  10393e:	6a 0d                	push   $0xd
  103940:	6a 38                	push   $0x38
  103942:	e8 87 fa ff ff       	call   1033ce <print_hex_at>
  103947:	83 c4 10             	add    $0x10,%esp
  10394a:	83 ec 04             	sub    $0x4,%esp
  10394d:	68 d3 66 10 00       	push   $0x1066d3
  103952:	6a 0e                	push   $0xe
  103954:	6a 04                	push   $0x4
  103956:	e8 e4 cf ff ff       	call   10093f <vga_print_at>
  10395b:	83 c4 10             	add    $0x10,%esp
  10395e:	83 ec 04             	sub    $0x4,%esp
  103961:	ff 75 dc             	push   -0x24(%ebp)
  103964:	6a 0e                	push   $0xe
  103966:	6a 0c                	push   $0xc
  103968:	e8 61 fa ff ff       	call   1033ce <print_hex_at>
  10396d:	83 c4 10             	add    $0x10,%esp
  103970:	83 ec 04             	sub    $0x4,%esp
  103973:	68 d8 66 10 00       	push   $0x1066d8
  103978:	6a 0e                	push   $0xe
  10397a:	6a 1a                	push   $0x1a
  10397c:	e8 be cf ff ff       	call   10093f <vga_print_at>
  103981:	83 c4 10             	add    $0x10,%esp
  103984:	83 ec 04             	sub    $0x4,%esp
  103987:	ff 75 d8             	push   -0x28(%ebp)
  10398a:	6a 0e                	push   $0xe
  10398c:	6a 22                	push   $0x22
  10398e:	e8 3b fa ff ff       	call   1033ce <print_hex_at>
  103993:	83 c4 10             	add    $0x10,%esp
  103996:	83 ec 04             	sub    $0x4,%esp
  103999:	68 dd 66 10 00       	push   $0x1066dd
  10399e:	6a 0e                	push   $0xe
  1039a0:	6a 30                	push   $0x30
  1039a2:	e8 98 cf ff ff       	call   10093f <vga_print_at>
  1039a7:	83 c4 10             	add    $0x10,%esp
  1039aa:	83 ec 04             	sub    $0x4,%esp
  1039ad:	ff 75 d4             	push   -0x2c(%ebp)
  1039b0:	6a 0e                	push   $0xe
  1039b2:	6a 38                	push   $0x38
  1039b4:	e8 15 fa ff ff       	call   1033ce <print_hex_at>
  1039b9:	83 c4 10             	add    $0x10,%esp
  1039bc:	83 ec 08             	sub    $0x8,%esp
  1039bf:	6a 00                	push   $0x0
  1039c1:	6a 0e                	push   $0xe
  1039c3:	e8 94 cb ff ff       	call   10055c <vga_set_color>
  1039c8:	83 c4 10             	add    $0x10,%esp
  1039cb:	83 ec 04             	sub    $0x4,%esp
  1039ce:	68 e2 66 10 00       	push   $0x1066e2
  1039d3:	6a 10                	push   $0x10
  1039d5:	6a 02                	push   $0x2
  1039d7:	e8 63 cf ff ff       	call   10093f <vga_print_at>
