
kernel.bin:     file format binary


Disassembly of section .data:

00100000 <.data>:
  100000:	7f 45                	jg     0x100047
  100002:	4c                   	dec    esp
  100003:	46                   	inc    esi
  100004:	01 01                	add    DWORD PTR [ecx],eax
  100006:	01 00                	add    DWORD PTR [eax],eax
	...
  100010:	02 00                	add    al,BYTE PTR [eax]
  100012:	03 00                	add    eax,DWORD PTR [eax]
  100014:	01 00                	add    DWORD PTR [eax],eax
  100016:	00 00                	add    BYTE PTR [eax],al
  100018:	30 00                	xor    BYTE PTR [eax],al
  10001a:	10 00                	adc    BYTE PTR [eax],al
  10001c:	34 00                	xor    al,0x0
  10001e:	00 00                	add    BYTE PTR [eax],al
  100020:	a4                   	movs   BYTE PTR es:[edi],BYTE PTR ds:[esi]
  100021:	b2 00                	mov    dl,0x0
  100023:	00 00                	add    BYTE PTR [eax],al
  100025:	00 00                	add    BYTE PTR [eax],al
  100027:	00 34 00             	add    BYTE PTR [eax+eax*1],dh
  10002a:	20 00                	and    BYTE PTR [eax],al
  10002c:	02 00                	add    al,BYTE PTR [eax]
  10002e:	28 00                	sub    BYTE PTR [eax],al
  100030:	09 00                	or     DWORD PTR [eax],eax
  100032:	08 00                	or     BYTE PTR [eax],al
  100034:	01 00                	add    DWORD PTR [eax],eax
  100036:	00 00                	add    BYTE PTR [eax],al
  100038:	00 10                	add    BYTE PTR [eax],dl
  10003a:	00 00                	add    BYTE PTR [eax],al
  10003c:	00 00                	add    BYTE PTR [eax],al
  10003e:	10 00                	adc    BYTE PTR [eax],al
  100040:	00 00                	add    BYTE PTR [eax],al
  100042:	10 00                	adc    BYTE PTR [eax],al
  100044:	76 71                	jbe    0x1000b7
  100046:	00 00                	add    BYTE PTR [eax],al
  100048:	76 71                	jbe    0x1000bb
  10004a:	00 00                	add    BYTE PTR [eax],al
  10004c:	05 00 00 00 00       	add    eax,0x0
  100051:	10 00                	adc    BYTE PTR [eax],al
  100053:	00 01                	add    BYTE PTR [ecx],al
  100055:	00 00                	add    BYTE PTR [eax],al
  100057:	00 00                	add    BYTE PTR [eax],al
  100059:	90                   	nop
  10005a:	00 00                	add    BYTE PTR [eax],al
  10005c:	00 80 10 00 00 80    	add    BYTE PTR [eax-0x7ffffff0],al
  100062:	10 00                	adc    BYTE PTR [eax],al
  100064:	3c 00                	cmp    al,0x0
  100066:	00 00                	add    BYTE PTR [eax],al
  100068:	ec                   	in     al,dx
  100069:	1b 01                	sbb    eax,DWORD PTR [ecx]
  10006b:	00 06                	add    BYTE PTR [esi],al
  10006d:	00 00                	add    BYTE PTR [eax],al
  10006f:	00 00                	add    BYTE PTR [eax],al
  100071:	10 00                	adc    BYTE PTR [eax],al
	...
  100fff:	00 02                	add    BYTE PTR [edx],al
  101001:	b0 ad                	mov    al,0xad
  101003:	1b 03                	sbb    eax,DWORD PTR [ebx]
  101005:	00 00                	add    BYTE PTR [eax],al
  101007:	00 fb                	add    bl,bh
  101009:	4f                   	dec    edi
  10100a:	52                   	push   edx
  10100b:	e4 00                	in     al,0x0
	...
  101025:	04 00                	add    al,0x0
  101027:	00 00                	add    BYTE PTR [eax],al
  101029:	03 00                	add    eax,DWORD PTR [eax]
  10102b:	00 20                	add    BYTE PTR [eax],ah
  10102d:	00 00                	add    BYTE PTR [eax],al
  10102f:	00 bc 00 90 11 00 89 	add    BYTE PTR [eax+eax*1-0x76ffee70],bh
  101036:	de 8b 06 a9 00 10    	fimul  WORD PTR [ebx+0x1000a906]
  10103c:	00 00                	add    BYTE PTR [eax],al
  10103e:	74 28                	je     0x101068
  101040:	8b 46 58             	mov    eax,DWORD PTR [esi+0x58]
  101043:	a3 00 80 10 00       	mov    ds:0x108000,eax
  101048:	8b 46 64             	mov    eax,DWORD PTR [esi+0x64]
  10104b:	a3 04 80 10 00       	mov    ds:0x108004,eax
  101050:	8b 46 68             	mov    eax,DWORD PTR [esi+0x68]
  101053:	a3 08 80 10 00       	mov    ds:0x108008,eax
  101058:	8b 46 6c             	mov    eax,DWORD PTR [esi+0x6c]
  10105b:	a3 0c 80 10 00       	mov    ds:0x10800c,eax
  101060:	8b 46 70             	mov    eax,DWORD PTR [esi+0x70]
  101063:	a3 10 80 10 00       	mov    ds:0x108010,eax
  101068:	89 f3                	mov    ebx,esi
  10106a:	b8 02 b0 ad 2b       	mov    eax,0x2badb002
  10106f:	50                   	push   eax
  101070:	53                   	push   ebx
  101071:	e8 0d 00 00 00       	call   0x101083
  101076:	5b                   	pop    ebx
  101077:	58                   	pop    eax
  101078:	53                   	push   ebx
  101079:	50                   	push   eax
  10107a:	e8 36 00 00 00       	call   0x1010b5
  10107f:	fa                   	cli
  101080:	f4                   	hlt
  101081:	eb fe                	jmp    0x101081
  101083:	55                   	push   ebp
  101084:	89 e5                	mov    ebp,esp
  101086:	83 ec 08             	sub    esp,0x8
  101089:	89 d8                	mov    eax,ebx
  10108b:	8b 08                	mov    ecx,DWORD PTR [eax]
  10108d:	f7 c1 08 00 00 00    	test   ecx,0x8
  101093:	74 1b                	je     0x1010b0
  101095:	8b 48 14             	mov    ecx,DWORD PTR [eax+0x14]
  101098:	85 c9                	test   ecx,ecx
  10109a:	74 14                	je     0x1010b0
  10109c:	8b 40 18             	mov    eax,DWORD PTR [eax+0x18]
  10109f:	8b 30                	mov    esi,DWORD PTR [eax]
  1010a1:	8b 50 04             	mov    edx,DWORD PTR [eax+0x4]
  1010a4:	89 d1                	mov    ecx,edx
  1010a6:	29 f1                	sub    ecx,esi
  1010a8:	bf 00 00 11 00       	mov    edi,0x110000
  1010ad:	fc                   	cld
  1010ae:	f3 a4                	rep movs BYTE PTR es:[edi],BYTE PTR ds:[esi]
  1010b0:	83 c4 08             	add    esp,0x8
  1010b3:	5d                   	pop    ebp
  1010b4:	c3                   	ret
  1010b5:	55                   	push   ebp
  1010b6:	89 e5                	mov    ebp,esp
  1010b8:	83 ec 28             	sub    esp,0x28
  1010bb:	83 ec 0c             	sub    esp,0xc
  1010be:	68 e0 57 10 00       	push   0x1057e0
  1010c3:	e8 e6 03 00 00       	call   0x1014ae
  1010c8:	83 c4 10             	add    esp,0x10
  1010cb:	e8 6f 13 00 00       	call   0x10243f
  1010d0:	85 c0                	test   eax,eax
  1010d2:	75 03                	jne    0x1010d7
  1010d4:	f4                   	hlt
  1010d5:	eb fd                	jmp    0x1010d4
  1010d7:	c7 45 f4 00 00 00 fd 	mov    DWORD PTR [ebp-0xc],0xfd000000
  1010de:	c7 45 f0 00 00 30 00 	mov    DWORD PTR [ebp-0x10],0x300000
  1010e5:	83 ec 0c             	sub    esp,0xc
  1010e8:	ff 75 0c             	push   DWORD PTR [ebp+0xc]
  1010eb:	e8 4d 44 00 00       	call   0x10553d
  1010f0:	83 c4 10             	add    esp,0x10
  1010f3:	85 c0                	test   eax,eax
  1010f5:	75 03                	jne    0x1010fa
  1010f7:	f4                   	hlt
  1010f8:	eb fd                	jmp    0x1010f7
  1010fa:	8b 55 f4             	mov    edx,DWORD PTR [ebp-0xc]
  1010fd:	8b 45 f0             	mov    eax,DWORD PTR [ebp-0x10]
  101100:	01 d0                	add    eax,edx
  101102:	83 ec 08             	sub    esp,0x8
  101105:	50                   	push   eax
  101106:	ff 75 f4             	push   DWORD PTR [ebp-0xc]
  101109:	e8 b7 45 00 00       	call   0x1056c5
  10110e:	83 c4 10             	add    esp,0x10
  101111:	83 ec 0c             	sub    esp,0xc
  101114:	ff 75 0c             	push   DWORD PTR [ebp+0xc]
  101117:	e8 01 4a 00 00       	call   0x105b1d
  10111c:	83 c4 10             	add    esp,0x10
  10111f:	85 c0                	test   eax,eax
  101121:	75 03                	jne    0x101126
  101123:	f4                   	hlt
  101124:	eb fd                	jmp    0x101123
  101126:	8b 55 f4             	mov    edx,DWORD PTR [ebp-0xc]
  101129:	8b 45 f0             	mov    eax,DWORD PTR [ebp-0x10]
  10112c:	01 c2                	add    edx,eax
  10112e:	a1 80 99 11 00       	mov    eax,ds:0x119980
  101133:	83 ec 04             	sub    esp,0x4
  101136:	52                   	push   edx
  101137:	ff 75 f4             	push   DWORD PTR [ebp-0xc]
  10113a:	50                   	push   eax
  10113b:	e8 af 48 00 00       	call   0x1059ef
  101140:	83 c4 10             	add    esp,0x10
  101143:	e8 d0 2f 00 00       	call   0x104118
  101148:	85 c0                	test   eax,eax
  10114a:	74 09                	je     0x101155
  10114c:	e8 a1 30 00 00       	call   0x1041f2
  101151:	85 c0                	test   eax,eax
  101153:	75 03                	jne    0x101158
  101155:	f4                   	hlt
  101156:	eb fd                	jmp    0x101155
  101158:	e8 33 31 00 00       	call   0x104290
  10115d:	85 c0                	test   eax,eax
  10115f:	74 09                	je     0x10116a
  101161:	e8 71 31 00 00       	call   0x1042d7
  101166:	85 c0                	test   eax,eax
  101168:	75 03                	jne    0x10116d
  10116a:	f4                   	hlt
  10116b:	eb fd                	jmp    0x10116a
  10116d:	e8 7d 52 00 00       	call   0x1063ef
  101172:	e8 71 31 00 00       	call   0x1042e8
  101177:	85 c0                	test   eax,eax
  101179:	75 03                	jne    0x10117e
  10117b:	f4                   	hlt
  10117c:	eb fd                	jmp    0x10117b
  10117e:	e8 6c 33 00 00       	call   0x1044ef
  101183:	e8 1e 4b 00 00       	call   0x105ca6
  101188:	e8 c1 4c 00 00       	call   0x105e4e
  10118d:	e8 8b 4f 00 00       	call   0x10611d
  101192:	83 ec 0c             	sub    esp,0xc
  101195:	68 e8 03 00 00       	push   0x3e8
  10119a:	e8 04 4f 00 00       	call   0x1060a3
  10119f:	83 c4 10             	add    esp,0x10
  1011a2:	fb                   	sti
  1011a3:	e8 e1 55 00 00       	call   0x106789
  1011a8:	e8 3e 50 00 00       	call   0x1061eb
  1011ad:	83 ec 04             	sub    esp,0x4
  1011b0:	6a 20                	push   0x20
  1011b2:	68 00 03 00 00       	push   0x300
  1011b7:	68 00 04 00 00       	push   0x400
  1011bc:	e8 33 14 00 00       	call   0x1025f4
  1011c1:	83 c4 10             	add    esp,0x10
  1011c4:	85 c0                	test   eax,eax
  1011c6:	75 03                	jne    0x1011cb
  1011c8:	f4                   	hlt
  1011c9:	eb fd                	jmp    0x1011c8
  1011cb:	83 ec 0c             	sub    esp,0xc
  1011ce:	68 20 10 00 00       	push   0x1020
  1011d3:	e8 ce 14 00 00       	call   0x1026a6
  1011d8:	83 c4 10             	add    esp,0x10
  1011db:	c7 45 ec 06 01 00 00 	mov    DWORD PTR [ebp-0x14],0x106
  1011e2:	c7 45 e8 03 01 00 00 	mov    DWORD PTR [ebp-0x18],0x103
  1011e9:	8b 45 e8             	mov    eax,DWORD PTR [ebp-0x18]
  1011ec:	8d 50 f8             	lea    edx,[eax-0x8]
  1011ef:	8b 45 ec             	mov    eax,DWORD PTR [ebp-0x14]
  1011f2:	83 e8 08             	sub    eax,0x8
  1011f5:	83 ec 0c             	sub    esp,0xc
  1011f8:	68 aa 55 00 00       	push   0x55aa
  1011fd:	68 0a 01 00 00       	push   0x10a
  101202:	68 04 02 00 00       	push   0x204
  101207:	52                   	push   edx
  101208:	50                   	push   eax
  101209:	e8 b2 17 00 00       	call   0x1029c0
  10120e:	83 c4 20             	add    esp,0x20
  101211:	8b 45 e8             	mov    eax,DWORD PTR [ebp-0x18]
  101214:	8d 50 fa             	lea    edx,[eax-0x6]
  101217:	8b 45 ec             	mov    eax,DWORD PTR [ebp-0x14]
  10121a:	83 e8 06             	sub    eax,0x6
  10121d:	83 ec 0c             	sub    esp,0xc
  101220:	68 cc 77 00 00       	push   0x77cc
  101225:	68 06 01 00 00       	push   0x106
  10122a:	68 00 02 00 00       	push   0x200
  10122f:	52                   	push   edx
  101230:	50                   	push   eax
  101231:	e8 8a 17 00 00       	call   0x1029c0
  101236:	83 c4 20             	add    esp,0x20
  101239:	8b 45 e8             	mov    eax,DWORD PTR [ebp-0x18]
  10123c:	8d 50 fc             	lea    edx,[eax-0x4]
  10123f:	8b 45 ec             	mov    eax,DWORD PTR [ebp-0x14]
  101242:	83 e8 04             	sub    eax,0x4
  101245:	83 ec 0c             	sub    esp,0xc
  101248:	68 ee 99 00 00       	push   0x99ee
  10124d:	68 02 01 00 00       	push   0x102
  101252:	68 fc 01 00 00       	push   0x1fc
  101257:	52                   	push   edx
  101258:	50                   	push   eax
  101259:	e8 62 17 00 00       	call   0x1029c0
  10125e:	83 c4 20             	add    esp,0x20
  101261:	8b 45 e8             	mov    eax,DWORD PTR [ebp-0x18]
  101264:	8d 50 fe             	lea    edx,[eax-0x2]
  101267:	8b 45 ec             	mov    eax,DWORD PTR [ebp-0x14]
  10126a:	83 e8 02             	sub    eax,0x2
  10126d:	83 ec 0c             	sub    esp,0xc
  101270:	68 ff bb 00 00       	push   0xbbff
  101275:	68 fe 00 00 00       	push   0xfe
  10127a:	68 f8 01 00 00       	push   0x1f8
  10127f:	52                   	push   edx
  101280:	50                   	push   eax
  101281:	e8 3a 17 00 00       	call   0x1029c0
  101286:	83 c4 20             	add    esp,0x20
  101289:	83 ec 0c             	sub    esp,0xc
  10128c:	68 40 10 00 00       	push   0x1040
  101291:	68 fa 00 00 00       	push   0xfa
  101296:	68 f4 01 00 00       	push   0x1f4
  10129b:	ff 75 e8             	push   DWORD PTR [ebp-0x18]
  10129e:	ff 75 ec             	push   DWORD PTR [ebp-0x14]
  1012a1:	e8 1a 17 00 00       	call   0x1029c0
  1012a6:	83 c4 20             	add    esp,0x20
  1012a9:	8b 45 e8             	mov    eax,DWORD PTR [ebp-0x18]
  1012ac:	8d 50 32             	lea    edx,[eax+0x32]
  1012af:	8b 45 ec             	mov    eax,DWORD PTR [ebp-0x14]
  1012b2:	05 8c 00 00 00       	add    eax,0x8c
  1012b7:	83 ec 0c             	sub    esp,0xc
  1012ba:	68 40 10 00 00       	push   0x1040
  1012bf:	6a ff                	push   0xffffffff
  1012c1:	68 f5 57 10 00       	push   0x1057f5
  1012c6:	52                   	push   edx
  1012c7:	50                   	push   eax
  1012c8:	e8 2b 16 00 00       	call   0x1028f8
  1012cd:	83 c4 20             	add    esp,0x20
  1012d0:	8b 45 e8             	mov    eax,DWORD PTR [ebp-0x18]
  1012d3:	8d 50 64             	lea    edx,[eax+0x64]
  1012d6:	8b 45 ec             	mov    eax,DWORD PTR [ebp-0x14]
  1012d9:	83 c0 78             	add    eax,0x78
  1012dc:	83 ec 0c             	sub    esp,0xc
  1012df:	68 40 10 00 00       	push   0x1040
  1012e4:	68 ff bb 00 ff       	push   0xff00bbff
  1012e9:	68 03 58 10 00       	push   0x105803
  1012ee:	52                   	push   edx
  1012ef:	50                   	push   eax
  1012f0:	e8 03 16 00 00       	call   0x1028f8
  1012f5:	83 c4 20             	add    esp,0x20
  1012f8:	8b 45 e8             	mov    eax,DWORD PTR [ebp-0x18]
  1012fb:	8d 90 8c 00 00 00    	lea    edx,[eax+0x8c]
  101301:	8b 45 ec             	mov    eax,DWORD PTR [ebp-0x14]
  101304:	83 c0 5a             	add    eax,0x5a
  101307:	83 ec 0c             	sub    esp,0xc
  10130a:	68 40 10 00 00       	push   0x1040
  10130f:	68 88 88 88 ff       	push   0xff888888
  101314:	68 15 58 10 00       	push   0x105815
  101319:	52                   	push   edx
  10131a:	50                   	push   eax
  10131b:	e8 d8 15 00 00       	call   0x1028f8
  101320:	83 c4 20             	add    esp,0x20
  101323:	8b 45 e8             	mov    eax,DWORD PTR [ebp-0x18]
  101326:	8d 90 b4 00 00 00    	lea    edx,[eax+0xb4]
  10132c:	8b 45 ec             	mov    eax,DWORD PTR [ebp-0x14]
  10132f:	05 96 00 00 00       	add    eax,0x96
  101334:	83 ec 0c             	sub    esp,0xc
  101337:	68 40 10 00 00       	push   0x1040
  10133c:	68 66 66 66 ff       	push   0xff666666
  101341:	68 2d 58 10 00       	push   0x10582d
  101346:	52                   	push   edx
  101347:	50                   	push   eax
  101348:	e8 ab 15 00 00       	call   0x1028f8
  10134d:	83 c4 20             	add    esp,0x20
  101350:	e8 44 54 00 00       	call   0x106799
  101355:	e8 c5 1b 00 00       	call   0x102f1f
  10135a:	8b 45 0c             	mov    eax,DWORD PTR [ebp+0xc]
  10135d:	8b 40 14             	mov    eax,DWORD PTR [eax+0x14]
  101360:	83 f8 01             	cmp    eax,0x1
  101363:	76 32                	jbe    0x101397
  101365:	8b 45 0c             	mov    eax,DWORD PTR [ebp+0xc]
  101368:	8b 40 18             	mov    eax,DWORD PTR [eax+0x18]
  10136b:	89 45 e4             	mov    DWORD PTR [ebp-0x1c],eax
  10136e:	8b 45 e4             	mov    eax,DWORD PTR [ebp-0x1c]
  101371:	8b 00                	mov    eax,DWORD PTR [eax]
  101373:	89 45 e0             	mov    DWORD PTR [ebp-0x20],eax
  101376:	8b 45 e4             	mov    eax,DWORD PTR [ebp-0x1c]
  101379:	83 c0 10             	add    eax,0x10
  10137c:	8b 00                	mov    eax,DWORD PTR [eax]
  10137e:	89 45 dc             	mov    DWORD PTR [ebp-0x24],eax
  101381:	8b 45 dc             	mov    eax,DWORD PTR [ebp-0x24]
  101384:	a3 00 90 11 00       	mov    ds:0x119000,eax
  101389:	83 ec 0c             	sub    esp,0xc
  10138c:	ff 75 e0             	push   DWORD PTR [ebp-0x20]
  10138f:	e8 ee 4a 00 00       	call   0x105e82
  101394:	83 c4 10             	add    esp,0x10
  101397:	f4                   	hlt
  101398:	eb fd                	jmp    0x101397
  10139a:	55                   	push   ebp
  10139b:	89 e5                	mov    ebp,esp
  10139d:	83 ec 10             	sub    esp,0x10
  1013a0:	c7 45 fc 00 00 00 00 	mov    DWORD PTR [ebp-0x4],0x0
  1013a7:	eb 27                	jmp    0x1013d0
  1013a9:	0f b6 05 18 80 10 00 	movzx  eax,BYTE PTR ds:0x108018
  1013b0:	0f b6 c0             	movzx  eax,al
  1013b3:	c1 e0 08             	shl    eax,0x8
  1013b6:	83 c8 20             	or     eax,0x20
  1013b9:	89 c1                	mov    ecx,eax
  1013bb:	a1 14 80 10 00       	mov    eax,ds:0x108014
  1013c0:	8b 55 fc             	mov    edx,DWORD PTR [ebp-0x4]
  1013c3:	01 d2                	add    edx,edx
  1013c5:	01 d0                	add    eax,edx
  1013c7:	89 ca                	mov    edx,ecx
  1013c9:	66 89 10             	mov    WORD PTR [eax],dx
  1013cc:	83 45 fc 01          	add    DWORD PTR [ebp-0x4],0x1
  1013d0:	81 7d fc cf 07 00 00 	cmp    DWORD PTR [ebp-0x4],0x7cf
  1013d7:	7e d0                	jle    0x1013a9
  1013d9:	c7 05 08 90 11 00 00 	mov    DWORD PTR ds:0x119008,0x0
  1013e0:	00 00 00 
  1013e3:	c7 05 0c 90 11 00 00 	mov    DWORD PTR ds:0x11900c,0x0
  1013ea:	00 00 00 
  1013ed:	90                   	nop
  1013ee:	c9                   	leave
  1013ef:	c3                   	ret
  1013f0:	55                   	push   ebp
  1013f1:	89 e5                	mov    ebp,esp
  1013f3:	83 ec 08             	sub    esp,0x8
  1013f6:	8b 55 08             	mov    edx,DWORD PTR [ebp+0x8]
  1013f9:	8b 45 0c             	mov    eax,DWORD PTR [ebp+0xc]
  1013fc:	88 55 fc             	mov    BYTE PTR [ebp-0x4],dl
  1013ff:	88 45 f8             	mov    BYTE PTR [ebp-0x8],al
  101402:	0f b6 45 f8          	movzx  eax,BYTE PTR [ebp-0x8]
  101406:	c1 e0 04             	shl    eax,0x4
  101409:	89 c2                	mov    edx,eax
  10140b:	0f b6 45 fc          	movzx  eax,BYTE PTR [ebp-0x4]
  10140f:	83 e0 0f             	and    eax,0xf
  101412:	09 d0                	or     eax,edx
  101414:	a2 18 80 10 00       	mov    ds:0x108018,al
  101419:	90                   	nop
  10141a:	c9                   	leave
  10141b:	c3                   	ret
  10141c:	55                   	push   ebp
  10141d:	89 e5                	mov    ebp,esp
  10141f:	83 ec 14             	sub    esp,0x14
  101422:	8b 45 18             	mov    eax,DWORD PTR [ebp+0x18]
  101425:	88 45 ec             	mov    BYTE PTR [ebp-0x14],al
  101428:	0f b6 45 ec          	movzx  eax,BYTE PTR [ebp-0x14]
  10142c:	c1 e0 04             	shl    eax,0x4
  10142f:	89 c2                	mov    edx,eax
  101431:	0f b6 45 ec          	movzx  eax,BYTE PTR [ebp-0x14]
  101435:	09 d0                	or     eax,edx
  101437:	88 45 f7             	mov    BYTE PTR [ebp-0x9],al
  10143a:	8b 45 0c             	mov    eax,DWORD PTR [ebp+0xc]
  10143d:	89 45 fc             	mov    DWORD PTR [ebp-0x4],eax
  101440:	eb 56                	jmp    0x101498
  101442:	8b 45 08             	mov    eax,DWORD PTR [ebp+0x8]
  101445:	89 45 f8             	mov    DWORD PTR [ebp-0x8],eax
  101448:	eb 37                	jmp    0x101481
  10144a:	8b 55 fc             	mov    edx,DWORD PTR [ebp-0x4]
  10144d:	89 d0                	mov    eax,edx
  10144f:	c1 e0 02             	shl    eax,0x2
  101452:	01 d0                	add    eax,edx
  101454:	c1 e0 04             	shl    eax,0x4
  101457:	89 c2                	mov    edx,eax
  101459:	8b 45 f8             	mov    eax,DWORD PTR [ebp-0x8]
  10145c:	01 d0                	add    eax,edx
  10145e:	89 45 f0             	mov    DWORD PTR [ebp-0x10],eax
  101461:	0f b6 45 f7          	movzx  eax,BYTE PTR [ebp-0x9]
  101465:	c1 e0 08             	shl    eax,0x8
  101468:	0c db                	or     al,0xdb
  10146a:	89 c1                	mov    ecx,eax
  10146c:	a1 14 80 10 00       	mov    eax,ds:0x108014
  101471:	8b 55 f0             	mov    edx,DWORD PTR [ebp-0x10]
  101474:	01 d2                	add    edx,edx
  101476:	01 d0                	add    eax,edx
  101478:	89 ca                	mov    edx,ecx
  10147a:	66 89 10             	mov    WORD PTR [eax],dx
  10147d:	83 45 f8 01          	add    DWORD PTR [ebp-0x8],0x1
  101481:	8b 55 08             	mov    edx,DWORD PTR [ebp+0x8]
  101484:	8b 45 10             	mov    eax,DWORD PTR [ebp+0x10]
  101487:	01 d0                	add    eax,edx
  101489:	39 45 f8             	cmp    DWORD PTR [ebp-0x8],eax
  10148c:	7d 06                	jge    0x101494
  10148e:	83 7d f8 4f          	cmp    DWORD PTR [ebp-0x8],0x4f
  101492:	7e b6                	jle    0x10144a
  101494:	83 45 fc 01          	add    DWORD PTR [ebp-0x4],0x1
  101498:	8b 55 0c             	mov    edx,DWORD PTR [ebp+0xc]
  10149b:	8b 45 14             	mov    eax,DWORD PTR [ebp+0x14]
  10149e:	01 d0                	add    eax,edx
  1014a0:	39 45 fc             	cmp    DWORD PTR [ebp-0x4],eax
  1014a3:	7d 06                	jge    0x1014ab
  1014a5:	83 7d fc 18          	cmp    DWORD PTR [ebp-0x4],0x18
  1014a9:	7e 97                	jle    0x101442
  1014ab:	90                   	nop
  1014ac:	c9                   	leave
  1014ad:	c3                   	ret
  1014ae:	55                   	push   ebp
  1014af:	89 e5                	mov    ebp,esp
  1014b1:	83 ec 10             	sub    esp,0x10
  1014b4:	e9 cd 00 00 00       	jmp    0x101586
  1014b9:	8b 45 08             	mov    eax,DWORD PTR [ebp+0x8]
  1014bc:	0f b6 00             	movzx  eax,BYTE PTR [eax]
  1014bf:	3c 0a                	cmp    al,0xa
  1014c1:	75 34                	jne    0x1014f7
  1014c3:	c7 05 08 90 11 00 00 	mov    DWORD PTR ds:0x119008,0x0
  1014ca:	00 00 00 
  1014cd:	a1 0c 90 11 00       	mov    eax,ds:0x11900c
  1014d2:	83 c0 01             	add    eax,0x1
  1014d5:	a3 0c 90 11 00       	mov    ds:0x11900c,eax
  1014da:	a1 0c 90 11 00       	mov    eax,ds:0x11900c
  1014df:	83 f8 18             	cmp    eax,0x18
  1014e2:	7e 0a                	jle    0x1014ee
  1014e4:	c7 05 0c 90 11 00 18 	mov    DWORD PTR ds:0x11900c,0x18
  1014eb:	00 00 00 
  1014ee:	83 45 08 01          	add    DWORD PTR [ebp+0x8],0x1
  1014f2:	e9 8f 00 00 00       	jmp    0x101586
  1014f7:	a1 08 90 11 00       	mov    eax,ds:0x119008
  1014fc:	83 f8 4f             	cmp    eax,0x4f
  1014ff:	7e 2b                	jle    0x10152c
  101501:	c7 05 08 90 11 00 00 	mov    DWORD PTR ds:0x119008,0x0
  101508:	00 00 00 
  10150b:	a1 0c 90 11 00       	mov    eax,ds:0x11900c
  101510:	83 c0 01             	add    eax,0x1
  101513:	a3 0c 90 11 00       	mov    ds:0x11900c,eax
  101518:	a1 0c 90 11 00       	mov    eax,ds:0x11900c
  10151d:	83 f8 18             	cmp    eax,0x18
  101520:	7e 0a                	jle    0x10152c
  101522:	c7 05 0c 90 11 00 18 	mov    DWORD PTR ds:0x11900c,0x18
  101529:	00 00 00 
  10152c:	8b 15 0c 90 11 00    	mov    edx,DWORD PTR ds:0x11900c
  101532:	89 d0                	mov    eax,edx
  101534:	c1 e0 02             	shl    eax,0x2
  101537:	01 d0                	add    eax,edx
  101539:	c1 e0 04             	shl    eax,0x4
  10153c:	89 c2                	mov    edx,eax
  10153e:	a1 08 90 11 00       	mov    eax,ds:0x119008
  101543:	01 d0                	add    eax,edx
  101545:	89 45 fc             	mov    DWORD PTR [ebp-0x4],eax
  101548:	0f b6 05 18 80 10 00 	movzx  eax,BYTE PTR ds:0x108018
  10154f:	0f b6 c0             	movzx  eax,al
  101552:	c1 e0 08             	shl    eax,0x8
  101555:	89 c2                	mov    edx,eax
  101557:	8b 45 08             	mov    eax,DWORD PTR [ebp+0x8]
  10155a:	0f b6 00             	movzx  eax,BYTE PTR [eax]
  10155d:	0f b6 c0             	movzx  eax,al
  101560:	89 d1                	mov    ecx,edx
  101562:	09 c1                	or     ecx,eax
  101564:	a1 14 80 10 00       	mov    eax,ds:0x108014
  101569:	8b 55 fc             	mov    edx,DWORD PTR [ebp-0x4]
  10156c:	01 d2                	add    edx,edx
  10156e:	01 d0                	add    eax,edx
  101570:	89 ca                	mov    edx,ecx
  101572:	66 89 10             	mov    WORD PTR [eax],dx
  101575:	a1 08 90 11 00       	mov    eax,ds:0x119008
  10157a:	83 c0 01             	add    eax,0x1
  10157d:	a3 08 90 11 00       	mov    ds:0x119008,eax
  101582:	83 45 08 01          	add    DWORD PTR [ebp+0x8],0x1
  101586:	8b 45 08             	mov    eax,DWORD PTR [ebp+0x8]
  101589:	0f b6 00             	movzx  eax,BYTE PTR [eax]
  10158c:	84 c0                	test   al,al
  10158e:	0f 85 25 ff ff ff    	jne    0x1014b9
  101594:	90                   	nop
  101595:	90                   	nop
  101596:	c9                   	leave
  101597:	c3                   	ret
  101598:	55                   	push   ebp
  101599:	89 e5                	mov    ebp,esp
  10159b:	83 ec 14             	sub    esp,0x14
  10159e:	8b 45 08             	mov    eax,DWORD PTR [ebp+0x8]
  1015a1:	88 45 ec             	mov    BYTE PTR [ebp-0x14],al
  1015a4:	80 7d ec 0a          	cmp    BYTE PTR [ebp-0x14],0xa
  1015a8:	75 34                	jne    0x1015de
  1015aa:	c7 05 08 90 11 00 00 	mov    DWORD PTR ds:0x119008,0x0
  1015b1:	00 00 00 
  1015b4:	a1 0c 90 11 00       	mov    eax,ds:0x11900c
  1015b9:	83 c0 01             	add    eax,0x1
  1015bc:	a3 0c 90 11 00       	mov    ds:0x11900c,eax
  1015c1:	a1 0c 90 11 00       	mov    eax,ds:0x11900c
  1015c6:	83 f8 18             	cmp    eax,0x18
  1015c9:	0f 8e 9a 00 00 00    	jle    0x101669
  1015cf:	c7 05 0c 90 11 00 18 	mov    DWORD PTR ds:0x11900c,0x18
  1015d6:	00 00 00 
  1015d9:	e9 8b 00 00 00       	jmp    0x101669
  1015de:	a1 08 90 11 00       	mov    eax,ds:0x119008
  1015e3:	83 f8 4f             	cmp    eax,0x4f
  1015e6:	7e 2b                	jle    0x101613
  1015e8:	c7 05 08 90 11 00 00 	mov    DWORD PTR ds:0x119008,0x0
  1015ef:	00 00 00 
  1015f2:	a1 0c 90 11 00       	mov    eax,ds:0x11900c
  1015f7:	83 c0 01             	add    eax,0x1
  1015fa:	a3 0c 90 11 00       	mov    ds:0x11900c,eax
  1015ff:	a1 0c 90 11 00       	mov    eax,ds:0x11900c
  101604:	83 f8 18             	cmp    eax,0x18
  101607:	7e 0a                	jle    0x101613
  101609:	c7 05 0c 90 11 00 18 	mov    DWORD PTR ds:0x11900c,0x18
  101610:	00 00 00 
  101613:	8b 15 0c 90 11 00    	mov    edx,DWORD PTR ds:0x11900c
  101619:	89 d0                	mov    eax,edx
  10161b:	c1 e0 02             	shl    eax,0x2
  10161e:	01 d0                	add    eax,edx
  101620:	c1 e0 04             	shl    eax,0x4
  101623:	89 c2                	mov    edx,eax
  101625:	a1 08 90 11 00       	mov    eax,ds:0x119008
  10162a:	01 d0                	add    eax,edx
  10162c:	89 45 fc             	mov    DWORD PTR [ebp-0x4],eax
  10162f:	0f b6 05 18 80 10 00 	movzx  eax,BYTE PTR ds:0x108018
  101636:	0f b6 c0             	movzx  eax,al
  101639:	c1 e0 08             	shl    eax,0x8
  10163c:	89 c2                	mov    edx,eax
  10163e:	0f b6 45 ec          	movzx  eax,BYTE PTR [ebp-0x14]
  101642:	0f b6 c0             	movzx  eax,al
  101645:	89 d1                	mov    ecx,edx
  101647:	09 c1                	or     ecx,eax
  101649:	a1 14 80 10 00       	mov    eax,ds:0x108014
  10164e:	8b 55 fc             	mov    edx,DWORD PTR [ebp-0x4]
  101651:	01 d2                	add    edx,edx
  101653:	01 d0                	add    eax,edx
  101655:	89 ca                	mov    edx,ecx
  101657:	66 89 10             	mov    WORD PTR [eax],dx
  10165a:	a1 08 90 11 00       	mov    eax,ds:0x119008
  10165f:	83 c0 01             	add    eax,0x1
  101662:	a3 08 90 11 00       	mov    ds:0x119008,eax
  101667:	eb 01                	jmp    0x10166a
  101669:	90                   	nop
  10166a:	c9                   	leave
  10166b:	c3                   	ret
  10166c:	55                   	push   ebp
  10166d:	89 e5                	mov    ebp,esp
  10166f:	83 ec 30             	sub    esp,0x30
  101672:	8d 45 d0             	lea    eax,[ebp-0x30]
  101675:	89 45 f0             	mov    DWORD PTR [ebp-0x10],eax
  101678:	83 7d 08 00          	cmp    DWORD PTR [ebp+0x8],0x0
  10167c:	75 0f                	jne    0x10168d
  10167e:	6a 30                	push   0x30
  101680:	e8 13 ff ff ff       	call   0x101598
  101685:	83 c4 04             	add    esp,0x4
  101688:	e9 aa 00 00 00       	jmp    0x101737
  10168d:	8b 45 08             	mov    eax,DWORD PTR [ebp+0x8]
  101690:	89 c2                	mov    edx,eax
  101692:	f7 da                	neg    edx
  101694:	0f 49 c2             	cmovns eax,edx
  101697:	89 45 fc             	mov    DWORD PTR [ebp-0x4],eax
  10169a:	c7 45 f8 00 00 00 00 	mov    DWORD PTR [ebp-0x8],0x0
  1016a1:	eb 52                	jmp    0x1016f5
  1016a3:	8b 4d fc             	mov    ecx,DWORD PTR [ebp-0x4]
  1016a6:	ba 67 66 66 66       	mov    edx,0x66666667
  1016ab:	89 c8                	mov    eax,ecx
  1016ad:	f7 ea                	imul   edx
  1016af:	c1 fa 02             	sar    edx,0x2
  1016b2:	89 c8                	mov    eax,ecx
  1016b4:	c1 f8 1f             	sar    eax,0x1f
  1016b7:	29 c2                	sub    edx,eax
  1016b9:	89 d0                	mov    eax,edx
  1016bb:	c1 e0 02             	shl    eax,0x2
  1016be:	01 d0                	add    eax,edx
  1016c0:	01 c0                	add    eax,eax
  1016c2:	29 c1                	sub    ecx,eax
  1016c4:	89 ca                	mov    edx,ecx
  1016c6:	89 d0                	mov    eax,edx
  1016c8:	8d 48 30             	lea    ecx,[eax+0x30]
  1016cb:	8b 45 f8             	mov    eax,DWORD PTR [ebp-0x8]
  1016ce:	8d 50 01             	lea    edx,[eax+0x1]
  1016d1:	89 55 f8             	mov    DWORD PTR [ebp-0x8],edx
  1016d4:	89 ca                	mov    edx,ecx
  1016d6:	88 54 05 d0          	mov    BYTE PTR [ebp+eax*1-0x30],dl
  1016da:	8b 4d fc             	mov    ecx,DWORD PTR [ebp-0x4]
  1016dd:	ba 67 66 66 66       	mov    edx,0x66666667
  1016e2:	89 c8                	mov    eax,ecx
  1016e4:	f7 ea                	imul   edx
  1016e6:	89 d0                	mov    eax,edx
  1016e8:	c1 f8 02             	sar    eax,0x2
  1016eb:	c1 f9 1f             	sar    ecx,0x1f
  1016ee:	89 ca                	mov    edx,ecx
  1016f0:	29 d0                	sub    eax,edx
  1016f2:	89 45 fc             	mov    DWORD PTR [ebp-0x4],eax
  1016f5:	83 7d fc 00          	cmp    DWORD PTR [ebp-0x4],0x0
  1016f9:	7f a8                	jg     0x1016a3
  1016fb:	83 7d 08 00          	cmp    DWORD PTR [ebp+0x8],0x0
  1016ff:	79 0a                	jns    0x10170b
  101701:	6a 2d                	push   0x2d
  101703:	e8 90 fe ff ff       	call   0x101598
  101708:	83 c4 04             	add    esp,0x4
  10170b:	8b 45 f8             	mov    eax,DWORD PTR [ebp-0x8]
  10170e:	83 e8 01             	sub    eax,0x1
  101711:	89 45 f4             	mov    DWORD PTR [ebp-0xc],eax
  101714:	eb 1b                	jmp    0x101731
  101716:	8d 55 d0             	lea    edx,[ebp-0x30]
  101719:	8b 45 f4             	mov    eax,DWORD PTR [ebp-0xc]
  10171c:	01 d0                	add    eax,edx
  10171e:	0f b6 00             	movzx  eax,BYTE PTR [eax]
  101721:	0f be c0             	movsx  eax,al
  101724:	50                   	push   eax
  101725:	e8 6e fe ff ff       	call   0x101598
  10172a:	83 c4 04             	add    esp,0x4
  10172d:	83 6d f4 01          	sub    DWORD PTR [ebp-0xc],0x1
  101731:	83 7d f4 00          	cmp    DWORD PTR [ebp-0xc],0x0
  101735:	79 df                	jns    0x101716
  101737:	c9                   	leave
  101738:	c3                   	ret
  101739:	55                   	push   ebp
  10173a:	89 e5                	mov    ebp,esp
  10173c:	83 ec 20             	sub    esp,0x20
  10173f:	c6 45 f7 00          	mov    BYTE PTR [ebp-0x9],0x0
  101743:	c7 45 fc 07 00 00 00 	mov    DWORD PTR [ebp-0x4],0x7
  10174a:	eb 33                	jmp    0x10177f
  10174c:	8b 45 08             	mov    eax,DWORD PTR [ebp+0x8]
  10174f:	83 e0 0f             	and    eax,0xf
  101752:	89 45 f8             	mov    DWORD PTR [ebp-0x8],eax
  101755:	83 7d f8 09          	cmp    DWORD PTR [ebp-0x8],0x9
  101759:	77 0a                	ja     0x101765
  10175b:	8b 45 f8             	mov    eax,DWORD PTR [ebp-0x8]
  10175e:	83 c0 30             	add    eax,0x30
  101761:	89 c1                	mov    ecx,eax
  101763:	eb 08                	jmp    0x10176d
  101765:	8b 45 f8             	mov    eax,DWORD PTR [ebp-0x8]
  101768:	83 c0 57             	add    eax,0x57
  10176b:	89 c1                	mov    ecx,eax
  10176d:	8d 55 ef             	lea    edx,[ebp-0x11]
  101770:	8b 45 fc             	mov    eax,DWORD PTR [ebp-0x4]
  101773:	01 d0                	add    eax,edx
  101775:	88 08                	mov    BYTE PTR [eax],cl
  101777:	c1 6d 08 04          	shr    DWORD PTR [ebp+0x8],0x4
  10177b:	83 6d fc 01          	sub    DWORD PTR [ebp-0x4],0x1
  10177f:	83 7d fc 00          	cmp    DWORD PTR [ebp-0x4],0x0
  101783:	79 c7                	jns    0x10174c
  101785:	8d 45 ef             	lea    eax,[ebp-0x11]
  101788:	50                   	push   eax
  101789:	e8 20 fd ff ff       	call   0x1014ae
  10178e:	83 c4 04             	add    esp,0x4
  101791:	90                   	nop
  101792:	c9                   	leave
  101793:	c3                   	ret
  101794:	55                   	push   ebp
  101795:	89 e5                	mov    ebp,esp
  101797:	ff 75 08             	push   DWORD PTR [ebp+0x8]
  10179a:	e8 0f fd ff ff       	call   0x1014ae
  10179f:	83 c4 04             	add    esp,0x4
  1017a2:	90                   	nop
  1017a3:	c9                   	leave
  1017a4:	c3                   	ret
  1017a5:	55                   	push   ebp
  1017a6:	89 e5                	mov    ebp,esp
  1017a8:	83 7d 08 00          	cmp    DWORD PTR [ebp+0x8],0x0
  1017ac:	78 22                	js     0x1017d0
  1017ae:	83 7d 08 4f          	cmp    DWORD PTR [ebp+0x8],0x4f
  1017b2:	7f 1c                	jg     0x1017d0
  1017b4:	83 7d 0c 00          	cmp    DWORD PTR [ebp+0xc],0x0
  1017b8:	78 16                	js     0x1017d0
  1017ba:	83 7d 0c 18          	cmp    DWORD PTR [ebp+0xc],0x18
  1017be:	7f 10                	jg     0x1017d0
  1017c0:	8b 45 08             	mov    eax,DWORD PTR [ebp+0x8]
  1017c3:	a3 08 90 11 00       	mov    ds:0x119008,eax
  1017c8:	8b 45 0c             	mov    eax,DWORD PTR [ebp+0xc]
  1017cb:	a3 0c 90 11 00       	mov    ds:0x11900c,eax
  1017d0:	90                   	nop
  1017d1:	5d                   	pop    ebp
  1017d2:	c3                   	ret
  1017d3:	55                   	push   ebp
  1017d4:	89 e5                	mov    ebp,esp
  1017d6:	83 ec 10             	sub    esp,0x10
  1017d9:	83 7d 08 00          	cmp    DWORD PTR [ebp+0x8],0x0
  1017dd:	0f 88 cd 00 00 00    	js     0x1018b0
  1017e3:	83 7d 08 4f          	cmp    DWORD PTR [ebp+0x8],0x4f
  1017e7:	0f 8f c3 00 00 00    	jg     0x1018b0
  1017ed:	83 7d 0c 00          	cmp    DWORD PTR [ebp+0xc],0x0
  1017f1:	0f 88 b9 00 00 00    	js     0x1018b0
  1017f7:	83 7d 0c 18          	cmp    DWORD PTR [ebp+0xc],0x18
  1017fb:	0f 8f af 00 00 00    	jg     0x1018b0
  101801:	a1 08 90 11 00       	mov    eax,ds:0x119008
  101806:	89 45 fc             	mov    DWORD PTR [ebp-0x4],eax
  101809:	a1 0c 90 11 00       	mov    eax,ds:0x11900c
  10180e:	89 45 f8             	mov    DWORD PTR [ebp-0x8],eax
  101811:	8b 45 08             	mov    eax,DWORD PTR [ebp+0x8]
  101814:	a3 08 90 11 00       	mov    ds:0x119008,eax
  101819:	8b 45 0c             	mov    eax,DWORD PTR [ebp+0xc]
  10181c:	a3 0c 90 11 00       	mov    ds:0x11900c,eax
  101821:	eb 64                	jmp    0x101887
  101823:	8b 45 10             	mov    eax,DWORD PTR [ebp+0x10]
  101826:	0f b6 00             	movzx  eax,BYTE PTR [eax]
  101829:	3c 0a                	cmp    al,0xa
  10182b:	74 70                	je     0x10189d
  10182d:	8b 15 0c 90 11 00    	mov    edx,DWORD PTR ds:0x11900c
  101833:	89 d0                	mov    eax,edx
  101835:	c1 e0 02             	shl    eax,0x2
  101838:	01 d0                	add    eax,edx
  10183a:	c1 e0 04             	shl    eax,0x4
  10183d:	89 c2                	mov    edx,eax
  10183f:	a1 08 90 11 00       	mov    eax,ds:0x119008
  101844:	01 d0                	add    eax,edx
  101846:	89 45 f4             	mov    DWORD PTR [ebp-0xc],eax
  101849:	0f b6 05 18 80 10 00 	movzx  eax,BYTE PTR ds:0x108018
  101850:	0f b6 c0             	movzx  eax,al
  101853:	c1 e0 08             	shl    eax,0x8
  101856:	89 c2                	mov    edx,eax
  101858:	8b 45 10             	mov    eax,DWORD PTR [ebp+0x10]
  10185b:	0f b6 00             	movzx  eax,BYTE PTR [eax]
  10185e:	0f b6 c0             	movzx  eax,al
  101861:	89 d1                	mov    ecx,edx
  101863:	09 c1                	or     ecx,eax
  101865:	a1 14 80 10 00       	mov    eax,ds:0x108014
  10186a:	8b 55 f4             	mov    edx,DWORD PTR [ebp-0xc]
  10186d:	01 d2                	add    edx,edx
  10186f:	01 d0                	add    eax,edx
  101871:	89 ca                	mov    edx,ecx
  101873:	66 89 10             	mov    WORD PTR [eax],dx
  101876:	a1 08 90 11 00       	mov    eax,ds:0x119008
  10187b:	83 c0 01             	add    eax,0x1
  10187e:	a3 08 90 11 00       	mov    ds:0x119008,eax
  101883:	83 45 10 01          	add    DWORD PTR [ebp+0x10],0x1
  101887:	8b 45 10             	mov    eax,DWORD PTR [ebp+0x10]
  10188a:	0f b6 00             	movzx  eax,BYTE PTR [eax]
  10188d:	84 c0                	test   al,al
  10188f:	74 0d                	je     0x10189e
  101891:	a1 08 90 11 00       	mov    eax,ds:0x119008
  101896:	83 f8 4f             	cmp    eax,0x4f
  101899:	7e 88                	jle    0x101823
  10189b:	eb 01                	jmp    0x10189e
  10189d:	90                   	nop
  10189e:	8b 45 fc             	mov    eax,DWORD PTR [ebp-0x4]
  1018a1:	a3 08 90 11 00       	mov    ds:0x119008,eax
  1018a6:	8b 45 f8             	mov    eax,DWORD PTR [ebp-0x8]
  1018a9:	a3 0c 90 11 00       	mov    ds:0x11900c,eax
  1018ae:	eb 01                	jmp    0x1018b1
  1018b0:	90                   	nop
  1018b1:	c9                   	leave
  1018b2:	c3                   	ret
  1018b3:	55                   	push   ebp
  1018b4:	89 e5                	mov    ebp,esp
  1018b6:	83 ec 20             	sub    esp,0x20
  1018b9:	83 7d 08 00          	cmp    DWORD PTR [ebp+0x8],0x0
  1018bd:	0f 88 83 01 00 00    	js     0x101a46
  1018c3:	83 7d 0c 00          	cmp    DWORD PTR [ebp+0xc],0x0
  1018c7:	0f 88 79 01 00 00    	js     0x101a46
  1018cd:	8b 55 08             	mov    edx,DWORD PTR [ebp+0x8]
  1018d0:	8b 45 10             	mov    eax,DWORD PTR [ebp+0x10]
  1018d3:	01 d0                	add    eax,edx
  1018d5:	83 f8 50             	cmp    eax,0x50
  1018d8:	0f 8f 68 01 00 00    	jg     0x101a46
  1018de:	8b 55 0c             	mov    edx,DWORD PTR [ebp+0xc]
  1018e1:	8b 45 14             	mov    eax,DWORD PTR [ebp+0x14]
  1018e4:	01 d0                	add    eax,edx
  1018e6:	83 f8 19             	cmp    eax,0x19
  1018e9:	0f 8f 57 01 00 00    	jg     0x101a46
  1018ef:	c7 45 fc 00 00 00 00 	mov    DWORD PTR [ebp-0x4],0x0
  1018f6:	eb 43                	jmp    0x10193b
  1018f8:	8b 55 0c             	mov    edx,DWORD PTR [ebp+0xc]
  1018fb:	89 d0                	mov    eax,edx
  1018fd:	c1 e0 02             	shl    eax,0x2
  101900:	01 d0                	add    eax,edx
  101902:	c1 e0 04             	shl    eax,0x4
  101905:	89 c1                	mov    ecx,eax
  101907:	8b 55 08             	mov    edx,DWORD PTR [ebp+0x8]
  10190a:	8b 45 fc             	mov    eax,DWORD PTR [ebp-0x4]
  10190d:	01 d0                	add    eax,edx
  10190f:	01 c8                	add    eax,ecx
  101911:	89 45 e4             	mov    DWORD PTR [ebp-0x1c],eax
  101914:	0f b6 05 18 80 10 00 	movzx  eax,BYTE PTR ds:0x108018
  10191b:	0f b6 c0             	movzx  eax,al
  10191e:	c1 e0 08             	shl    eax,0x8
  101921:	83 c8 3d             	or     eax,0x3d
  101924:	89 c1                	mov    ecx,eax
  101926:	a1 14 80 10 00       	mov    eax,ds:0x108014
  10192b:	8b 55 e4             	mov    edx,DWORD PTR [ebp-0x1c]
  10192e:	01 d2                	add    edx,edx
  101930:	01 d0                	add    eax,edx
  101932:	89 ca                	mov    edx,ecx
  101934:	66 89 10             	mov    WORD PTR [eax],dx
  101937:	83 45 fc 01          	add    DWORD PTR [ebp-0x4],0x1
  10193b:	8b 45 fc             	mov    eax,DWORD PTR [ebp-0x4]
  10193e:	3b 45 10             	cmp    eax,DWORD PTR [ebp+0x10]
  101941:	7c b5                	jl     0x1018f8
  101943:	c7 45 f8 00 00 00 00 	mov    DWORD PTR [ebp-0x8],0x0
  10194a:	eb 4b                	jmp    0x101997
  10194c:	8b 55 0c             	mov    edx,DWORD PTR [ebp+0xc]
  10194f:	8b 45 14             	mov    eax,DWORD PTR [ebp+0x14]
  101952:	01 d0                	add    eax,edx
  101954:	8d 50 ff             	lea    edx,[eax-0x1]
  101957:	89 d0                	mov    eax,edx
  101959:	c1 e0 02             	shl    eax,0x2
  10195c:	01 d0                	add    eax,edx
  10195e:	c1 e0 04             	shl    eax,0x4
  101961:	89 c1                	mov    ecx,eax
  101963:	8b 55 08             	mov    edx,DWORD PTR [ebp+0x8]
  101966:	8b 45 f8             	mov    eax,DWORD PTR [ebp-0x8]
  101969:	01 d0                	add    eax,edx
  10196b:	01 c8                	add    eax,ecx
  10196d:	89 45 e8             	mov    DWORD PTR [ebp-0x18],eax
  101970:	0f b6 05 18 80 10 00 	movzx  eax,BYTE PTR ds:0x108018
  101977:	0f b6 c0             	movzx  eax,al
  10197a:	c1 e0 08             	shl    eax,0x8
  10197d:	83 c8 3d             	or     eax,0x3d
  101980:	89 c1                	mov    ecx,eax
  101982:	a1 14 80 10 00       	mov    eax,ds:0x108014
  101987:	8b 55 e8             	mov    edx,DWORD PTR [ebp-0x18]
  10198a:	01 d2                	add    edx,edx
  10198c:	01 d0                	add    eax,edx
  10198e:	89 ca                	mov    edx,ecx
  101990:	66 89 10             	mov    WORD PTR [eax],dx
  101993:	83 45 f8 01          	add    DWORD PTR [ebp-0x8],0x1
  101997:	8b 45 f8             	mov    eax,DWORD PTR [ebp-0x8]
  10199a:	3b 45 10             	cmp    eax,DWORD PTR [ebp+0x10]
  10199d:	7c ad                	jl     0x10194c
  10199f:	c7 45 f4 01 00 00 00 	mov    DWORD PTR [ebp-0xc],0x1
  1019a6:	e9 8a 00 00 00       	jmp    0x101a35
  1019ab:	8b 55 0c             	mov    edx,DWORD PTR [ebp+0xc]
  1019ae:	8b 45 f4             	mov    eax,DWORD PTR [ebp-0xc]
  1019b1:	01 c2                	add    edx,eax
  1019b3:	89 d0                	mov    eax,edx
  1019b5:	c1 e0 02             	shl    eax,0x2
  1019b8:	01 d0                	add    eax,edx
  1019ba:	c1 e0 04             	shl    eax,0x4
  1019bd:	89 c2                	mov    edx,eax
  1019bf:	8b 45 08             	mov    eax,DWORD PTR [ebp+0x8]
  1019c2:	01 d0                	add    eax,edx
  1019c4:	89 45 f0             	mov    DWORD PTR [ebp-0x10],eax
  1019c7:	8b 55 0c             	mov    edx,DWORD PTR [ebp+0xc]
  1019ca:	8b 45 f4             	mov    eax,DWORD PTR [ebp-0xc]
  1019cd:	01 c2                	add    edx,eax
  1019cf:	89 d0                	mov    eax,edx
  1019d1:	c1 e0 02             	shl    eax,0x2
  1019d4:	01 d0                	add    eax,edx
  1019d6:	c1 e0 04             	shl    eax,0x4
  1019d9:	89 c1                	mov    ecx,eax
  1019db:	8b 55 08             	mov    edx,DWORD PTR [ebp+0x8]
  1019de:	8b 45 10             	mov    eax,DWORD PTR [ebp+0x10]
  1019e1:	01 d0                	add    eax,edx
  1019e3:	83 e8 01             	sub    eax,0x1
  1019e6:	01 c8                	add    eax,ecx
  1019e8:	89 45 ec             	mov    DWORD PTR [ebp-0x14],eax
  1019eb:	0f b6 05 18 80 10 00 	movzx  eax,BYTE PTR ds:0x108018
  1019f2:	0f b6 c0             	movzx  eax,al
  1019f5:	c1 e0 08             	shl    eax,0x8
  1019f8:	83 c8 7c             	or     eax,0x7c
  1019fb:	89 c1                	mov    ecx,eax
  1019fd:	a1 14 80 10 00       	mov    eax,ds:0x108014
  101a02:	8b 55 f0             	mov    edx,DWORD PTR [ebp-0x10]
  101a05:	01 d2                	add    edx,edx
  101a07:	01 d0                	add    eax,edx
  101a09:	89 ca                	mov    edx,ecx
  101a0b:	66 89 10             	mov    WORD PTR [eax],dx
  101a0e:	0f b6 05 18 80 10 00 	movzx  eax,BYTE PTR ds:0x108018
  101a15:	0f b6 c0             	movzx  eax,al
  101a18:	c1 e0 08             	shl    eax,0x8
  101a1b:	83 c8 7c             	or     eax,0x7c
  101a1e:	89 c1                	mov    ecx,eax
  101a20:	a1 14 80 10 00       	mov    eax,ds:0x108014
  101a25:	8b 55 ec             	mov    edx,DWORD PTR [ebp-0x14]
  101a28:	01 d2                	add    edx,edx
  101a2a:	01 d0                	add    eax,edx
  101a2c:	89 ca                	mov    edx,ecx
  101a2e:	66 89 10             	mov    WORD PTR [eax],dx
  101a31:	83 45 f4 01          	add    DWORD PTR [ebp-0xc],0x1
  101a35:	8b 45 14             	mov    eax,DWORD PTR [ebp+0x14]
  101a38:	83 e8 01             	sub    eax,0x1
  101a3b:	39 45 f4             	cmp    DWORD PTR [ebp-0xc],eax
  101a3e:	0f 8c 67 ff ff ff    	jl     0x1019ab
  101a44:	eb 01                	jmp    0x101a47
  101a46:	90                   	nop
  101a47:	c9                   	leave
  101a48:	c3                   	ret
  101a49:	55                   	push   ebp
  101a4a:	89 e5                	mov    ebp,esp
  101a4c:	83 ec 08             	sub    esp,0x8
  101a4f:	8b 55 08             	mov    edx,DWORD PTR [ebp+0x8]
  101a52:	8b 45 0c             	mov    eax,DWORD PTR [ebp+0xc]
  101a55:	66 89 55 fc          	mov    WORD PTR [ebp-0x4],dx
  101a59:	88 45 f8             	mov    BYTE PTR [ebp-0x8],al
  101a5c:	0f b6 45 f8          	movzx  eax,BYTE PTR [ebp-0x8]
  101a60:	0f b7 55 fc          	movzx  edx,WORD PTR [ebp-0x4]
  101a64:	ee                   	out    dx,al
  101a65:	90                   	nop
  101a66:	c9                   	leave
  101a67:	c3                   	ret
  101a68:	55                   	push   ebp
  101a69:	89 e5                	mov    ebp,esp
  101a6b:	83 ec 14             	sub    esp,0x14
  101a6e:	8b 45 08             	mov    eax,DWORD PTR [ebp+0x8]
  101a71:	66 89 45 ec          	mov    WORD PTR [ebp-0x14],ax
  101a75:	0f b7 45 ec          	movzx  eax,WORD PTR [ebp-0x14]
  101a79:	89 c2                	mov    edx,eax
  101a7b:	ec                   	in     al,dx
  101a7c:	88 45 ff             	mov    BYTE PTR [ebp-0x1],al
  101a7f:	0f b6 45 ff          	movzx  eax,BYTE PTR [ebp-0x1]
  101a83:	c9                   	leave
  101a84:	c3                   	ret
  101a85:	55                   	push   ebp
  101a86:	89 e5                	mov    ebp,esp
  101a88:	83 ec 50             	sub    esp,0x50
  101a8b:	c7 45 eb 03 01 0f 00 	mov    DWORD PTR [ebp-0x15],0xf0103
  101a92:	c6 45 ef 0e          	mov    BYTE PTR [ebp-0x11],0xe
  101a96:	c7 45 d2 5f 4f 50 82 	mov    DWORD PTR [ebp-0x2e],0x82504f5f
  101a9d:	c7 45 d6 54 80 bf 1f 	mov    DWORD PTR [ebp-0x2a],0x1fbf8054
  101aa4:	c7 45 da 00 41 00 00 	mov    DWORD PTR [ebp-0x26],0x4100
  101aab:	c7 45 de 00 00 00 00 	mov    DWORD PTR [ebp-0x22],0x0
  101ab2:	c7 45 e2 9c 0e 8f 28 	mov    DWORD PTR [ebp-0x1e],0x288f0e9c
  101ab9:	c7 45 e6 40 96 b9 a3 	mov    DWORD PTR [ebp-0x1a],0xa3b99640
  101ac0:	c6 45 ea ff          	mov    BYTE PTR [ebp-0x16],0xff
  101ac4:	c7 45 c9 00 00 00 00 	mov    DWORD PTR [ebp-0x37],0x0
  101acb:	c7 45 cd 00 40 05 0f 	mov    DWORD PTR [ebp-0x33],0xf054000
  101ad2:	c6 45 d1 ff          	mov    BYTE PTR [ebp-0x2f],0xff
  101ad6:	c7 45 b4 00 01 02 03 	mov    DWORD PTR [ebp-0x4c],0x3020100
  101add:	c7 45 b8 04 05 06 07 	mov    DWORD PTR [ebp-0x48],0x7060504
  101ae4:	c7 45 bc 08 09 0a 0b 	mov    DWORD PTR [ebp-0x44],0xb0a0908
  101aeb:	c7 45 c0 0c 0d 0e 0f 	mov    DWORD PTR [ebp-0x40],0xf0e0d0c
  101af2:	c7 45 c4 41 00 0f 00 	mov    DWORD PTR [ebp-0x3c],0xf0041
  101af9:	c6 45 c8 00          	mov    BYTE PTR [ebp-0x38],0x0
  101afd:	6a 63                	push   0x63
  101aff:	68 c2 03 00 00       	push   0x3c2
  101b04:	e8 40 ff ff ff       	call   0x101a49
  101b09:	83 c4 08             	add    esp,0x8
  101b0c:	c7 45 fc 00 00 00 00 	mov    DWORD PTR [ebp-0x4],0x0
  101b13:	eb 34                	jmp    0x101b49
  101b15:	8b 45 fc             	mov    eax,DWORD PTR [ebp-0x4]
  101b18:	0f b6 c0             	movzx  eax,al
  101b1b:	50                   	push   eax
  101b1c:	68 c4 03 00 00       	push   0x3c4
  101b21:	e8 23 ff ff ff       	call   0x101a49
  101b26:	83 c4 08             	add    esp,0x8
  101b29:	8d 55 eb             	lea    edx,[ebp-0x15]
  101b2c:	8b 45 fc             	mov    eax,DWORD PTR [ebp-0x4]
  101b2f:	01 d0                	add    eax,edx
  101b31:	0f b6 00             	movzx  eax,BYTE PTR [eax]
  101b34:	0f b6 c0             	movzx  eax,al
  101b37:	50                   	push   eax
  101b38:	68 c5 03 00 00       	push   0x3c5
  101b3d:	e8 07 ff ff ff       	call   0x101a49
  101b42:	83 c4 08             	add    esp,0x8
  101b45:	83 45 fc 01          	add    DWORD PTR [ebp-0x4],0x1
  101b49:	83 7d fc 04          	cmp    DWORD PTR [ebp-0x4],0x4
  101b4d:	7e c6                	jle    0x101b15
  101b4f:	6a 03                	push   0x3
  101b51:	68 d4 03 00 00       	push   0x3d4
  101b56:	e8 ee fe ff ff       	call   0x101a49
  101b5b:	83 c4 08             	add    esp,0x8
  101b5e:	68 d5 03 00 00       	push   0x3d5
  101b63:	e8 00 ff ff ff       	call   0x101a68
  101b68:	83 c4 04             	add    esp,0x4
  101b6b:	83 c8 80             	or     eax,0xffffff80
  101b6e:	0f b6 c0             	movzx  eax,al
  101b71:	50                   	push   eax
  101b72:	68 d5 03 00 00       	push   0x3d5
  101b77:	e8 cd fe ff ff       	call   0x101a49
  101b7c:	83 c4 08             	add    esp,0x8
  101b7f:	6a 11                	push   0x11
  101b81:	68 d4 03 00 00       	push   0x3d4
  101b86:	e8 be fe ff ff       	call   0x101a49
  101b8b:	83 c4 08             	add    esp,0x8
  101b8e:	68 d5 03 00 00       	push   0x3d5
  101b93:	e8 d0 fe ff ff       	call   0x101a68
  101b98:	83 c4 04             	add    esp,0x4
  101b9b:	0f b6 c0             	movzx  eax,al
  101b9e:	83 e0 7f             	and    eax,0x7f
  101ba1:	50                   	push   eax
  101ba2:	68 d5 03 00 00       	push   0x3d5
  101ba7:	e8 9d fe ff ff       	call   0x101a49
  101bac:	83 c4 08             	add    esp,0x8
  101baf:	0f b6 45 d5          	movzx  eax,BYTE PTR [ebp-0x2b]
  101bb3:	83 c8 80             	or     eax,0xffffff80
  101bb6:	88 45 d5             	mov    BYTE PTR [ebp-0x2b],al
  101bb9:	0f b6 45 e3          	movzx  eax,BYTE PTR [ebp-0x1d]
  101bbd:	83 e0 7f             	and    eax,0x7f
  101bc0:	88 45 e3             	mov    BYTE PTR [ebp-0x1d],al
  101bc3:	c7 45 f8 00 00 00 00 	mov    DWORD PTR [ebp-0x8],0x0
  101bca:	eb 34                	jmp    0x101c00
  101bcc:	8b 45 f8             	mov    eax,DWORD PTR [ebp-0x8]
  101bcf:	0f b6 c0             	movzx  eax,al
  101bd2:	50                   	push   eax
  101bd3:	68 d4 03 00 00       	push   0x3d4
  101bd8:	e8 6c fe ff ff       	call   0x101a49
  101bdd:	83 c4 08             	add    esp,0x8
  101be0:	8d 55 d2             	lea    edx,[ebp-0x2e]
  101be3:	8b 45 f8             	mov    eax,DWORD PTR [ebp-0x8]
  101be6:	01 d0                	add    eax,edx
  101be8:	0f b6 00             	movzx  eax,BYTE PTR [eax]
  101beb:	0f b6 c0             	movzx  eax,al
  101bee:	50                   	push   eax
  101bef:	68 d5 03 00 00       	push   0x3d5
  101bf4:	e8 50 fe ff ff       	call   0x101a49
  101bf9:	83 c4 08             	add    esp,0x8
  101bfc:	83 45 f8 01          	add    DWORD PTR [ebp-0x8],0x1
  101c00:	83 7d f8 18          	cmp    DWORD PTR [ebp-0x8],0x18
  101c04:	7e c6                	jle    0x101bcc
  101c06:	c7 45 f4 00 00 00 00 	mov    DWORD PTR [ebp-0xc],0x0
  101c0d:	eb 34                	jmp    0x101c43
  101c0f:	8b 45 f4             	mov    eax,DWORD PTR [ebp-0xc]
  101c12:	0f b6 c0             	movzx  eax,al
  101c15:	50                   	push   eax
  101c16:	68 ce 03 00 00       	push   0x3ce
  101c1b:	e8 29 fe ff ff       	call   0x101a49
  101c20:	83 c4 08             	add    esp,0x8
  101c23:	8d 55 c9             	lea    edx,[ebp-0x37]
  101c26:	8b 45 f4             	mov    eax,DWORD PTR [ebp-0xc]
  101c29:	01 d0                	add    eax,edx
  101c2b:	0f b6 00             	movzx  eax,BYTE PTR [eax]
  101c2e:	0f b6 c0             	movzx  eax,al
  101c31:	50                   	push   eax
  101c32:	68 cf 03 00 00       	push   0x3cf
  101c37:	e8 0d fe ff ff       	call   0x101a49
  101c3c:	83 c4 08             	add    esp,0x8
  101c3f:	83 45 f4 01          	add    DWORD PTR [ebp-0xc],0x1
  101c43:	83 7d f4 08          	cmp    DWORD PTR [ebp-0xc],0x8
  101c47:	7e c6                	jle    0x101c0f
  101c49:	68 da 03 00 00       	push   0x3da
  101c4e:	e8 15 fe ff ff       	call   0x101a68
  101c53:	83 c4 04             	add    esp,0x4
  101c56:	c7 45 f0 00 00 00 00 	mov    DWORD PTR [ebp-0x10],0x0
  101c5d:	eb 34                	jmp    0x101c93
  101c5f:	8b 45 f0             	mov    eax,DWORD PTR [ebp-0x10]
  101c62:	0f b6 c0             	movzx  eax,al
  101c65:	50                   	push   eax
  101c66:	68 c0 03 00 00       	push   0x3c0
  101c6b:	e8 d9 fd ff ff       	call   0x101a49
  101c70:	83 c4 08             	add    esp,0x8
  101c73:	8d 55 b4             	lea    edx,[ebp-0x4c]
  101c76:	8b 45 f0             	mov    eax,DWORD PTR [ebp-0x10]
  101c79:	01 d0                	add    eax,edx
  101c7b:	0f b6 00             	movzx  eax,BYTE PTR [eax]
  101c7e:	0f b6 c0             	movzx  eax,al
  101c81:	50                   	push   eax
  101c82:	68 c0 03 00 00       	push   0x3c0
  101c87:	e8 bd fd ff ff       	call   0x101a49
  101c8c:	83 c4 08             	add    esp,0x8
  101c8f:	83 45 f0 01          	add    DWORD PTR [ebp-0x10],0x1
  101c93:	83 7d f0 14          	cmp    DWORD PTR [ebp-0x10],0x14
  101c97:	7e c6                	jle    0x101c5f
  101c99:	6a 20                	push   0x20
  101c9b:	68 c0 03 00 00       	push   0x3c0
  101ca0:	e8 a4 fd ff ff       	call   0x101a49
  101ca5:	83 c4 08             	add    esp,0x8
  101ca8:	90                   	nop
  101ca9:	c9                   	leave
  101caa:	c3                   	ret
  101cab:	55                   	push   ebp
  101cac:	89 e5                	mov    ebp,esp
  101cae:	83 ec 04             	sub    esp,0x4
  101cb1:	8b 45 10             	mov    eax,DWORD PTR [ebp+0x10]
  101cb4:	88 45 fc             	mov    BYTE PTR [ebp-0x4],al
  101cb7:	83 7d 08 00          	cmp    DWORD PTR [ebp+0x8],0x0
  101cbb:	78 3b                	js     0x101cf8
  101cbd:	81 7d 08 3f 01 00 00 	cmp    DWORD PTR [ebp+0x8],0x13f
  101cc4:	7f 32                	jg     0x101cf8
  101cc6:	83 7d 0c 00          	cmp    DWORD PTR [ebp+0xc],0x0
  101cca:	78 2c                	js     0x101cf8
  101ccc:	81 7d 0c c7 00 00 00 	cmp    DWORD PTR [ebp+0xc],0xc7
  101cd3:	7f 23                	jg     0x101cf8
  101cd5:	8b 0d 1c 80 10 00    	mov    ecx,DWORD PTR ds:0x10801c
  101cdb:	8b 55 0c             	mov    edx,DWORD PTR [ebp+0xc]
  101cde:	89 d0                	mov    eax,edx
  101ce0:	c1 e0 02             	shl    eax,0x2
  101ce3:	01 d0                	add    eax,edx
  101ce5:	c1 e0 06             	shl    eax,0x6
  101ce8:	89 c2                	mov    edx,eax
  101cea:	8b 45 08             	mov    eax,DWORD PTR [ebp+0x8]
  101ced:	01 d0                	add    eax,edx
  101cef:	8d 14 01             	lea    edx,[ecx+eax*1]
  101cf2:	0f b6 45 fc          	movzx  eax,BYTE PTR [ebp-0x4]
  101cf6:	88 02                	mov    BYTE PTR [edx],al
  101cf8:	90                   	nop
  101cf9:	c9                   	leave
  101cfa:	c3                   	ret
  101cfb:	55                   	push   ebp
  101cfc:	89 e5                	mov    ebp,esp
  101cfe:	53                   	push   ebx
  101cff:	83 ec 14             	sub    esp,0x14
  101d02:	8b 45 18             	mov    eax,DWORD PTR [ebp+0x18]
  101d05:	88 45 e8             	mov    BYTE PTR [ebp-0x18],al
  101d08:	c7 45 f8 00 00 00 00 	mov    DWORD PTR [ebp-0x8],0x0
  101d0f:	eb 38                	jmp    0x101d49
  101d11:	c7 45 f4 00 00 00 00 	mov    DWORD PTR [ebp-0xc],0x0
  101d18:	eb 23                	jmp    0x101d3d
  101d1a:	0f b6 45 e8          	movzx  eax,BYTE PTR [ebp-0x18]
  101d1e:	8b 4d 0c             	mov    ecx,DWORD PTR [ebp+0xc]
  101d21:	8b 55 f8             	mov    edx,DWORD PTR [ebp-0x8]
  101d24:	01 d1                	add    ecx,edx
  101d26:	8b 5d 08             	mov    ebx,DWORD PTR [ebp+0x8]
  101d29:	8b 55 f4             	mov    edx,DWORD PTR [ebp-0xc]
  101d2c:	01 da                	add    edx,ebx
  101d2e:	50                   	push   eax
  101d2f:	51                   	push   ecx
  101d30:	52                   	push   edx
  101d31:	e8 75 ff ff ff       	call   0x101cab
  101d36:	83 c4 0c             	add    esp,0xc
  101d39:	83 45 f4 01          	add    DWORD PTR [ebp-0xc],0x1
  101d3d:	8b 45 f4             	mov    eax,DWORD PTR [ebp-0xc]
  101d40:	3b 45 10             	cmp    eax,DWORD PTR [ebp+0x10]
  101d43:	7c d5                	jl     0x101d1a
  101d45:	83 45 f8 01          	add    DWORD PTR [ebp-0x8],0x1
  101d49:	8b 45 f8             	mov    eax,DWORD PTR [ebp-0x8]
  101d4c:	3b 45 14             	cmp    eax,DWORD PTR [ebp+0x14]
  101d4f:	7c c0                	jl     0x101d11
  101d51:	90                   	nop
  101d52:	90                   	nop
  101d53:	8b 5d fc             	mov    ebx,DWORD PTR [ebp-0x4]
  101d56:	c9                   	leave
  101d57:	c3                   	ret
  101d58:	55                   	push   ebp
  101d59:	89 e5                	mov    ebp,esp
  101d5b:	83 ec 24             	sub    esp,0x24
  101d5e:	8b 45 18             	mov    eax,DWORD PTR [ebp+0x18]
  101d61:	88 45 dc             	mov    BYTE PTR [ebp-0x24],al
  101d64:	8b 45 0c             	mov    eax,DWORD PTR [ebp+0xc]
  101d67:	3b 45 14             	cmp    eax,DWORD PTR [ebp+0x14]
  101d6a:	75 45                	jne    0x101db1
  101d6c:	8b 55 10             	mov    edx,DWORD PTR [ebp+0x10]
  101d6f:	8b 45 08             	mov    eax,DWORD PTR [ebp+0x8]
  101d72:	39 c2                	cmp    edx,eax
  101d74:	0f 4e c2             	cmovle eax,edx
  101d77:	89 45 ec             	mov    DWORD PTR [ebp-0x14],eax
  101d7a:	8b 55 08             	mov    edx,DWORD PTR [ebp+0x8]
  101d7d:	8b 45 10             	mov    eax,DWORD PTR [ebp+0x10]
  101d80:	39 c2                	cmp    edx,eax
  101d82:	0f 4d c2             	cmovge eax,edx
  101d85:	89 45 e8             	mov    DWORD PTR [ebp-0x18],eax
  101d88:	8b 45 ec             	mov    eax,DWORD PTR [ebp-0x14]
  101d8b:	89 45 fc             	mov    DWORD PTR [ebp-0x4],eax
  101d8e:	eb 17                	jmp    0x101da7
  101d90:	0f b6 45 dc          	movzx  eax,BYTE PTR [ebp-0x24]
  101d94:	50                   	push   eax
  101d95:	ff 75 0c             	push   DWORD PTR [ebp+0xc]
  101d98:	ff 75 fc             	push   DWORD PTR [ebp-0x4]
  101d9b:	e8 0b ff ff ff       	call   0x101cab
  101da0:	83 c4 0c             	add    esp,0xc
  101da3:	83 45 fc 01          	add    DWORD PTR [ebp-0x4],0x1
  101da7:	8b 45 fc             	mov    eax,DWORD PTR [ebp-0x4]
  101daa:	3b 45 e8             	cmp    eax,DWORD PTR [ebp-0x18]
  101dad:	7e e1                	jle    0x101d90
  101daf:	eb 4b                	jmp    0x101dfc
  101db1:	8b 45 08             	mov    eax,DWORD PTR [ebp+0x8]
  101db4:	3b 45 10             	cmp    eax,DWORD PTR [ebp+0x10]
  101db7:	75 43                	jne    0x101dfc
  101db9:	8b 55 14             	mov    edx,DWORD PTR [ebp+0x14]
  101dbc:	8b 45 0c             	mov    eax,DWORD PTR [ebp+0xc]
  101dbf:	39 c2                	cmp    edx,eax
  101dc1:	0f 4e c2             	cmovle eax,edx
  101dc4:	89 45 f4             	mov    DWORD PTR [ebp-0xc],eax
  101dc7:	8b 55 0c             	mov    edx,DWORD PTR [ebp+0xc]
  101dca:	8b 45 14             	mov    eax,DWORD PTR [ebp+0x14]
  101dcd:	39 c2                	cmp    edx,eax
  101dcf:	0f 4d c2             	cmovge eax,edx
  101dd2:	89 45 f0             	mov    DWORD PTR [ebp-0x10],eax
  101dd5:	8b 45 f4             	mov    eax,DWORD PTR [ebp-0xc]
  101dd8:	89 45 f8             	mov    DWORD PTR [ebp-0x8],eax
  101ddb:	eb 17                	jmp    0x101df4
  101ddd:	0f b6 45 dc          	movzx  eax,BYTE PTR [ebp-0x24]
  101de1:	50                   	push   eax
  101de2:	ff 75 f8             	push   DWORD PTR [ebp-0x8]
  101de5:	ff 75 08             	push   DWORD PTR [ebp+0x8]
  101de8:	e8 be fe ff ff       	call   0x101cab
  101ded:	83 c4 0c             	add    esp,0xc
  101df0:	83 45 f8 01          	add    DWORD PTR [ebp-0x8],0x1
  101df4:	8b 45 f8             	mov    eax,DWORD PTR [ebp-0x8]
  101df7:	3b 45 f0             	cmp    eax,DWORD PTR [ebp-0x10]
  101dfa:	7e e1                	jle    0x101ddd
  101dfc:	90                   	nop
  101dfd:	c9                   	leave
  101dfe:	c3                   	ret
  101dff:	55                   	push   ebp
  101e00:	89 e5                	mov    ebp,esp
  101e02:	83 ec 14             	sub    esp,0x14
  101e05:	8b 45 08             	mov    eax,DWORD PTR [ebp+0x8]
  101e08:	88 45 ec             	mov    BYTE PTR [ebp-0x14],al
  101e0b:	c7 45 fc 00 00 00 00 	mov    DWORD PTR [ebp-0x4],0x0
  101e12:	eb 15                	jmp    0x101e29
  101e14:	8b 15 1c 80 10 00    	mov    edx,DWORD PTR ds:0x10801c
  101e1a:	8b 45 fc             	mov    eax,DWORD PTR [ebp-0x4]
  101e1d:	01 c2                	add    edx,eax
  101e1f:	0f b6 45 ec          	movzx  eax,BYTE PTR [ebp-0x14]
  101e23:	88 02                	mov    BYTE PTR [edx],al
  101e25:	83 45 fc 01          	add    DWORD PTR [ebp-0x4],0x1
  101e29:	81 7d fc ff f9 00 00 	cmp    DWORD PTR [ebp-0x4],0xf9ff
  101e30:	7e e2                	jle    0x101e14
  101e32:	90                   	nop
  101e33:	90                   	nop
  101e34:	c9                   	leave
  101e35:	c3                   	ret
  101e36:	55                   	push   ebp
  101e37:	89 e5                	mov    ebp,esp
  101e39:	83 ec 08             	sub    esp,0x8
  101e3c:	8b 55 08             	mov    edx,DWORD PTR [ebp+0x8]
  101e3f:	8b 45 0c             	mov    eax,DWORD PTR [ebp+0xc]
  101e42:	66 89 55 fc          	mov    WORD PTR [ebp-0x4],dx
  101e46:	88 45 f8             	mov    BYTE PTR [ebp-0x8],al
  101e49:	0f b6 45 f8          	movzx  eax,BYTE PTR [ebp-0x8]
  101e4d:	0f b7 55 fc          	movzx  edx,WORD PTR [ebp-0x4]
  101e51:	ee                   	out    dx,al
  101e52:	90                   	nop
  101e53:	c9                   	leave
  101e54:	c3                   	ret
  101e55:	55                   	push   ebp
  101e56:	89 e5                	mov    ebp,esp
  101e58:	83 ec 14             	sub    esp,0x14
  101e5b:	8b 45 08             	mov    eax,DWORD PTR [ebp+0x8]
  101e5e:	66 89 45 ec          	mov    WORD PTR [ebp-0x14],ax
  101e62:	0f b7 45 ec          	movzx  eax,WORD PTR [ebp-0x14]
  101e66:	89 c2                	mov    edx,eax
  101e68:	ec                   	in     al,dx
  101e69:	88 45 ff             	mov    BYTE PTR [ebp-0x1],al
  101e6c:	0f b6 45 ff          	movzx  eax,BYTE PTR [ebp-0x1]
  101e70:	c9                   	leave
  101e71:	c3                   	ret
  101e72:	55                   	push   ebp
  101e73:	89 e5                	mov    ebp,esp
  101e75:	83 ec 08             	sub    esp,0x8
  101e78:	a1 00 80 10 00       	mov    eax,ds:0x108000
  101e7d:	a3 10 90 11 00       	mov    ds:0x119010,eax
  101e82:	a1 04 80 10 00       	mov    eax,ds:0x108004
  101e87:	a3 14 90 11 00       	mov    ds:0x119014,eax
  101e8c:	a1 08 80 10 00       	mov    eax,ds:0x108008
  101e91:	a3 18 90 11 00       	mov    ds:0x119018,eax
  101e96:	a1 0c 80 10 00       	mov    eax,ds:0x10800c
  101e9b:	a3 1c 90 11 00       	mov    ds:0x11901c,eax
  101ea0:	a1 10 80 10 00       	mov    eax,ds:0x108010
  101ea5:	a3 20 90 11 00       	mov    ds:0x119020,eax
  101eaa:	c7 05 24 90 11 00 00 	mov    DWORD PTR ds:0x119024,0x0
  101eb1:	00 00 00 
  101eb4:	c7 05 28 90 11 00 00 	mov    DWORD PTR ds:0x119028,0x0
  101ebb:	00 00 00 
  101ebe:	a1 10 90 11 00       	mov    eax,ds:0x119010
  101ec3:	85 c0                	test   eax,eax
  101ec5:	74 1b                	je     0x101ee2
  101ec7:	a1 14 90 11 00       	mov    eax,ds:0x119014
  101ecc:	85 c0                	test   eax,eax
  101ece:	74 12                	je     0x101ee2
  101ed0:	a1 18 90 11 00       	mov    eax,ds:0x119018
  101ed5:	85 c0                	test   eax,eax
  101ed7:	74 09                	je     0x101ee2
  101ed9:	a1 1c 90 11 00       	mov    eax,ds:0x11901c
  101ede:	85 c0                	test   eax,eax
  101ee0:	75 23                	jne    0x101f05
  101ee2:	e8 5c 03 00 00       	call   0x102243
  101ee7:	c7 05 10 90 11 00 00 	mov    DWORD PTR ds:0x119010,0x0
  101eee:	00 00 00 
  101ef1:	c7 05 14 90 11 00 00 	mov    DWORD PTR ds:0x119014,0x0
  101ef8:	00 00 00 
  101efb:	c7 05 18 90 11 00 00 	mov    DWORD PTR ds:0x119018,0x0
  101f02:	00 00 00 
  101f05:	90                   	nop
  101f06:	c9                   	leave
  101f07:	c3                   	ret
  101f08:	55                   	push   ebp
  101f09:	89 e5                	mov    ebp,esp
  101f0b:	a1 10 90 11 00       	mov    eax,ds:0x119010
  101f10:	5d                   	pop    ebp
  101f11:	c3                   	ret
  101f12:	55                   	push   ebp
  101f13:	89 e5                	mov    ebp,esp
  101f15:	8b 15 1c 90 11 00    	mov    edx,DWORD PTR ds:0x11901c
  101f1b:	a1 18 90 11 00       	mov    eax,ds:0x119018
  101f20:	0f af c2             	imul   eax,edx
  101f23:	5d                   	pop    ebp
  101f24:	c3                   	ret
  101f25:	55                   	push   ebp
  101f26:	89 e5                	mov    ebp,esp
  101f28:	a1 14 90 11 00       	mov    eax,ds:0x119014
  101f2d:	5d                   	pop    ebp
  101f2e:	c3                   	ret
  101f2f:	55                   	push   ebp
  101f30:	89 e5                	mov    ebp,esp
  101f32:	a1 18 90 11 00       	mov    eax,ds:0x119018
  101f37:	5d                   	pop    ebp
  101f38:	c3                   	ret
  101f39:	55                   	push   ebp
  101f3a:	89 e5                	mov    ebp,esp
  101f3c:	83 ec 10             	sub    esp,0x10
  101f3f:	83 7d 08 00          	cmp    DWORD PTR [ebp+0x8],0x0
  101f43:	78 47                	js     0x101f8c
  101f45:	a1 14 90 11 00       	mov    eax,ds:0x119014
  101f4a:	39 45 08             	cmp    DWORD PTR [ebp+0x8],eax
  101f4d:	7d 3d                	jge    0x101f8c
  101f4f:	83 7d 0c 00          	cmp    DWORD PTR [ebp+0xc],0x0
  101f53:	78 37                	js     0x101f8c
  101f55:	a1 18 90 11 00       	mov    eax,ds:0x119018
  101f5a:	39 45 0c             	cmp    DWORD PTR [ebp+0xc],eax
  101f5d:	7d 2d                	jge    0x101f8c
  101f5f:	8b 15 10 90 11 00    	mov    edx,DWORD PTR ds:0x119010
  101f65:	a1 1c 90 11 00       	mov    eax,ds:0x11901c
  101f6a:	c1 e8 02             	shr    eax,0x2
  101f6d:	89 c1                	mov    ecx,eax
  101f6f:	8b 45 0c             	mov    eax,DWORD PTR [ebp+0xc]
  101f72:	0f af c8             	imul   ecx,eax
  101f75:	8b 45 08             	mov    eax,DWORD PTR [ebp+0x8]
  101f78:	01 c8                	add    eax,ecx
  101f7a:	c1 e0 02             	shl    eax,0x2
  101f7d:	01 d0                	add    eax,edx
  101f7f:	89 45 fc             	mov    DWORD PTR [ebp-0x4],eax
  101f82:	8b 45 fc             	mov    eax,DWORD PTR [ebp-0x4]
  101f85:	8b 55 10             	mov    edx,DWORD PTR [ebp+0x10]
  101f88:	89 10                	mov    DWORD PTR [eax],edx
  101f8a:	eb 01                	jmp    0x101f8d
  101f8c:	90                   	nop
  101f8d:	c9                   	leave
  101f8e:	c3                   	ret
  101f8f:	55                   	push   ebp
  101f90:	89 e5                	mov    ebp,esp
  101f92:	83 ec 18             	sub    esp,0x18
  101f95:	a1 10 90 11 00       	mov    eax,ds:0x119010
  101f9a:	85 c0                	test   eax,eax
  101f9c:	74 09                	je     0x101fa7
  101f9e:	a1 14 90 11 00       	mov    eax,ds:0x119014
  101fa3:	85 c0                	test   eax,eax
  101fa5:	75 07                	jne    0x101fae
  101fa7:	e8 ee f3 ff ff       	call   0x10139a
  101fac:	eb 3c                	jmp    0x101fea
  101fae:	a1 1c 90 11 00       	mov    eax,ds:0x11901c
  101fb3:	c1 e8 02             	shr    eax,0x2
  101fb6:	89 c2                	mov    edx,eax
  101fb8:	a1 18 90 11 00       	mov    eax,ds:0x119018
  101fbd:	0f af c2             	imul   eax,edx
  101fc0:	89 45 f0             	mov    DWORD PTR [ebp-0x10],eax
  101fc3:	c7 45 f4 00 00 00 00 	mov    DWORD PTR [ebp-0xc],0x0
  101fca:	eb 16                	jmp    0x101fe2
  101fcc:	a1 10 90 11 00       	mov    eax,ds:0x119010
  101fd1:	8b 55 f4             	mov    edx,DWORD PTR [ebp-0xc]
  101fd4:	c1 e2 02             	shl    edx,0x2
  101fd7:	01 c2                	add    edx,eax
  101fd9:	8b 45 08             	mov    eax,DWORD PTR [ebp+0x8]
  101fdc:	89 02                	mov    DWORD PTR [edx],eax
  101fde:	83 45 f4 01          	add    DWORD PTR [ebp-0xc],0x1
  101fe2:	8b 45 f4             	mov    eax,DWORD PTR [ebp-0xc]
  101fe5:	3b 45 f0             	cmp    eax,DWORD PTR [ebp-0x10]
  101fe8:	72 e2                	jb     0x101fcc
  101fea:	c9                   	leave
  101feb:	c3                   	ret
  101fec:	55                   	push   ebp
  101fed:	89 e5                	mov    ebp,esp
  101fef:	83 ec 10             	sub    esp,0x10
  101ff2:	c7 45 fc 00 00 00 00 	mov    DWORD PTR [ebp-0x4],0x0
  101ff9:	eb 36                	jmp    0x102031
  101ffb:	c7 45 f8 00 00 00 00 	mov    DWORD PTR [ebp-0x8],0x0
  102002:	eb 21                	jmp    0x102025
  102004:	8b 55 0c             	mov    edx,DWORD PTR [ebp+0xc]
  102007:	8b 45 fc             	mov    eax,DWORD PTR [ebp-0x4]
  10200a:	01 c2                	add    edx,eax
  10200c:	8b 4d 08             	mov    ecx,DWORD PTR [ebp+0x8]
  10200f:	8b 45 f8             	mov    eax,DWORD PTR [ebp-0x8]
  102012:	01 c8                	add    eax,ecx
  102014:	ff 75 18             	push   DWORD PTR [ebp+0x18]
  102017:	52                   	push   edx
  102018:	50                   	push   eax
  102019:	e8 1b ff ff ff       	call   0x101f39
  10201e:	83 c4 0c             	add    esp,0xc
  102021:	83 45 f8 01          	add    DWORD PTR [ebp-0x8],0x1
  102025:	8b 45 f8             	mov    eax,DWORD PTR [ebp-0x8]
  102028:	3b 45 10             	cmp    eax,DWORD PTR [ebp+0x10]
  10202b:	7c d7                	jl     0x102004
  10202d:	83 45 fc 01          	add    DWORD PTR [ebp-0x4],0x1
  102031:	8b 45 fc             	mov    eax,DWORD PTR [ebp-0x4]
  102034:	3b 45 14             	cmp    eax,DWORD PTR [ebp+0x14]
  102037:	7c c2                	jl     0x101ffb
  102039:	90                   	nop
  10203a:	90                   	nop
  10203b:	c9                   	leave
  10203c:	c3                   	ret
  10203d:	55                   	push   ebp
  10203e:	89 e5                	mov    ebp,esp
  102040:	53                   	push   ebx
  102041:	83 ec 24             	sub    esp,0x24
  102044:	8b 45 10             	mov    eax,DWORD PTR [ebp+0x10]
  102047:	88 45 d8             	mov    BYTE PTR [ebp-0x28],al
  10204a:	0f b6 45 d8          	movzx  eax,BYTE PTR [ebp-0x28]
  10204e:	88 45 fb             	mov    BYTE PTR [ebp-0x5],al
  102051:	0f b6 45 fb          	movzx  eax,BYTE PTR [ebp-0x5]
  102055:	84 c0                	test   al,al
  102057:	79 04                	jns    0x10205d
  102059:	c6 45 fb 00          	mov    BYTE PTR [ebp-0x5],0x0
  10205d:	0f b6 45 fb          	movzx  eax,BYTE PTR [ebp-0x5]
  102061:	c1 e0 04             	shl    eax,0x4
  102064:	05 40 58 10 00       	add    eax,0x105840
  102069:	89 45 ec             	mov    DWORD PTR [ebp-0x14],eax
  10206c:	c7 45 f4 00 00 00 00 	mov    DWORD PTR [ebp-0xc],0x0
  102073:	eb 65                	jmp    0x1020da
  102075:	8b 55 f4             	mov    edx,DWORD PTR [ebp-0xc]
  102078:	8b 45 ec             	mov    eax,DWORD PTR [ebp-0x14]
  10207b:	01 d0                	add    eax,edx
  10207d:	0f b6 00             	movzx  eax,BYTE PTR [eax]
  102080:	88 45 eb             	mov    BYTE PTR [ebp-0x15],al
  102083:	c7 45 f0 00 00 00 00 	mov    DWORD PTR [ebp-0x10],0x0
  10208a:	eb 44                	jmp    0x1020d0
  10208c:	0f b6 55 eb          	movzx  edx,BYTE PTR [ebp-0x15]
  102090:	8b 45 f0             	mov    eax,DWORD PTR [ebp-0x10]
  102093:	bb 80 00 00 00       	mov    ebx,0x80
  102098:	89 c1                	mov    ecx,eax
  10209a:	d3 fb                	sar    ebx,cl
  10209c:	89 d8                	mov    eax,ebx
  10209e:	21 d0                	and    eax,edx
  1020a0:	85 c0                	test   eax,eax
  1020a2:	74 05                	je     0x1020a9
  1020a4:	8b 45 14             	mov    eax,DWORD PTR [ebp+0x14]
  1020a7:	eb 03                	jmp    0x1020ac
  1020a9:	8b 45 18             	mov    eax,DWORD PTR [ebp+0x18]
  1020ac:	89 45 e4             	mov    DWORD PTR [ebp-0x1c],eax
  1020af:	8b 55 0c             	mov    edx,DWORD PTR [ebp+0xc]
  1020b2:	8b 45 f4             	mov    eax,DWORD PTR [ebp-0xc]
  1020b5:	01 c2                	add    edx,eax
  1020b7:	8b 4d 08             	mov    ecx,DWORD PTR [ebp+0x8]
  1020ba:	8b 45 f0             	mov    eax,DWORD PTR [ebp-0x10]
  1020bd:	01 c8                	add    eax,ecx
  1020bf:	ff 75 e4             	push   DWORD PTR [ebp-0x1c]
  1020c2:	52                   	push   edx
  1020c3:	50                   	push   eax
  1020c4:	e8 70 fe ff ff       	call   0x101f39
  1020c9:	83 c4 0c             	add    esp,0xc
  1020cc:	83 45 f0 01          	add    DWORD PTR [ebp-0x10],0x1
  1020d0:	83 7d f0 07          	cmp    DWORD PTR [ebp-0x10],0x7
  1020d4:	7e b6                	jle    0x10208c
  1020d6:	83 45 f4 01          	add    DWORD PTR [ebp-0xc],0x1
  1020da:	83 7d f4 0f          	cmp    DWORD PTR [ebp-0xc],0xf
  1020de:	7e 95                	jle    0x102075
  1020e0:	90                   	nop
  1020e1:	90                   	nop
  1020e2:	8b 5d fc             	mov    ebx,DWORD PTR [ebp-0x4]
  1020e5:	c9                   	leave
  1020e6:	c3                   	ret
  1020e7:	55                   	push   ebp
  1020e8:	89 e5                	mov    ebp,esp
  1020ea:	83 ec 10             	sub    esp,0x10
  1020ed:	8b 45 08             	mov    eax,DWORD PTR [ebp+0x8]
  1020f0:	89 45 fc             	mov    DWORD PTR [ebp-0x4],eax
  1020f3:	8b 45 0c             	mov    eax,DWORD PTR [ebp+0xc]
  1020f6:	89 45 f8             	mov    DWORD PTR [ebp-0x8],eax
  1020f9:	eb 59                	jmp    0x102154
  1020fb:	8b 45 10             	mov    eax,DWORD PTR [ebp+0x10]
  1020fe:	0f b6 00             	movzx  eax,BYTE PTR [eax]
  102101:	3c 0a                	cmp    al,0xa
  102103:	75 10                	jne    0x102115
  102105:	8b 45 08             	mov    eax,DWORD PTR [ebp+0x8]
  102108:	89 45 fc             	mov    DWORD PTR [ebp-0x4],eax
  10210b:	83 45 f8 10          	add    DWORD PTR [ebp-0x8],0x10
  10210f:	83 45 10 01          	add    DWORD PTR [ebp+0x10],0x1
  102113:	eb 3f                	jmp    0x102154
  102115:	8b 45 10             	mov    eax,DWORD PTR [ebp+0x10]
  102118:	0f b6 00             	movzx  eax,BYTE PTR [eax]
  10211b:	0f be c0             	movsx  eax,al
  10211e:	ff 75 18             	push   DWORD PTR [ebp+0x18]
  102121:	ff 75 14             	push   DWORD PTR [ebp+0x14]
  102124:	50                   	push   eax
  102125:	ff 75 f8             	push   DWORD PTR [ebp-0x8]
  102128:	ff 75 fc             	push   DWORD PTR [ebp-0x4]
  10212b:	e8 0d ff ff ff       	call   0x10203d
  102130:	83 c4 14             	add    esp,0x14
  102133:	83 45 fc 08          	add    DWORD PTR [ebp-0x4],0x8
  102137:	8b 45 fc             	mov    eax,DWORD PTR [ebp-0x4]
  10213a:	8d 50 07             	lea    edx,[eax+0x7]
  10213d:	a1 14 90 11 00       	mov    eax,ds:0x119014
  102142:	39 c2                	cmp    edx,eax
  102144:	7c 0a                	jl     0x102150
  102146:	8b 45 08             	mov    eax,DWORD PTR [ebp+0x8]
  102149:	89 45 fc             	mov    DWORD PTR [ebp-0x4],eax
  10214c:	83 45 f8 10          	add    DWORD PTR [ebp-0x8],0x10
  102150:	83 45 10 01          	add    DWORD PTR [ebp+0x10],0x1
  102154:	8b 45 10             	mov    eax,DWORD PTR [ebp+0x10]
  102157:	0f b6 00             	movzx  eax,BYTE PTR [eax]
  10215a:	84 c0                	test   al,al
  10215c:	75 9d                	jne    0x1020fb
  10215e:	90                   	nop
  10215f:	90                   	nop
  102160:	c9                   	leave
  102161:	c3                   	ret
  102162:	55                   	push   ebp
  102163:	89 e5                	mov    ebp,esp
  102165:	83 ec 08             	sub    esp,0x8
  102168:	a1 10 90 11 00       	mov    eax,ds:0x119010
  10216d:	85 c0                	test   eax,eax
  10216f:	74 0d                	je     0x10217e
  102171:	a1 14 90 11 00       	mov    eax,ds:0x119014
  102176:	85 c0                	test   eax,eax
  102178:	0f 85 b5 00 00 00    	jne    0x102233
  10217e:	83 ec 0c             	sub    esp,0xc
  102181:	ff 75 08             	push   DWORD PTR [ebp+0x8]
  102184:	e8 25 f3 ff ff       	call   0x1014ae
  102189:	83 c4 10             	add    esp,0x10
  10218c:	e9 b0 00 00 00       	jmp    0x102241
  102191:	8b 45 08             	mov    eax,DWORD PTR [ebp+0x8]
  102194:	0f b6 00             	movzx  eax,BYTE PTR [eax]
  102197:	3c 0a                	cmp    al,0xa
  102199:	75 19                	jne    0x1021b4
  10219b:	c7 05 24 90 11 00 00 	mov    DWORD PTR ds:0x119024,0x0
  1021a2:	00 00 00 
  1021a5:	a1 28 90 11 00       	mov    eax,ds:0x119028
  1021aa:	83 c0 10             	add    eax,0x10
  1021ad:	a3 28 90 11 00       	mov    ds:0x119028,eax
  1021b2:	eb 5d                	jmp    0x102211
  1021b4:	8b 45 08             	mov    eax,DWORD PTR [ebp+0x8]
  1021b7:	0f b6 00             	movzx  eax,BYTE PTR [eax]
  1021ba:	0f be c8             	movsx  ecx,al
  1021bd:	8b 15 28 90 11 00    	mov    edx,DWORD PTR ds:0x119028
  1021c3:	a1 24 90 11 00       	mov    eax,ds:0x119024
  1021c8:	83 ec 0c             	sub    esp,0xc
  1021cb:	ff 75 10             	push   DWORD PTR [ebp+0x10]
  1021ce:	ff 75 0c             	push   DWORD PTR [ebp+0xc]
  1021d1:	51                   	push   ecx
  1021d2:	52                   	push   edx
  1021d3:	50                   	push   eax
  1021d4:	e8 64 fe ff ff       	call   0x10203d
  1021d9:	83 c4 20             	add    esp,0x20
  1021dc:	a1 24 90 11 00       	mov    eax,ds:0x119024
  1021e1:	83 c0 08             	add    eax,0x8
  1021e4:	a3 24 90 11 00       	mov    ds:0x119024,eax
  1021e9:	a1 24 90 11 00       	mov    eax,ds:0x119024
  1021ee:	8d 50 07             	lea    edx,[eax+0x7]
  1021f1:	a1 14 90 11 00       	mov    eax,ds:0x119014
  1021f6:	39 c2                	cmp    edx,eax
  1021f8:	7c 17                	jl     0x102211
  1021fa:	c7 05 24 90 11 00 00 	mov    DWORD PTR ds:0x119024,0x0
  102201:	00 00 00 
  102204:	a1 28 90 11 00       	mov    eax,ds:0x119028
  102209:	83 c0 10             	add    eax,0x10
  10220c:	a3 28 90 11 00       	mov    ds:0x119028,eax
  102211:	a1 28 90 11 00       	mov    eax,ds:0x119028
  102216:	8d 50 0f             	lea    edx,[eax+0xf]
  102219:	a1 18 90 11 00       	mov    eax,ds:0x119018
  10221e:	39 c2                	cmp    edx,eax
  102220:	7c 0d                	jl     0x10222f
  102222:	a1 18 90 11 00       	mov    eax,ds:0x119018
  102227:	83 e8 10             	sub    eax,0x10
  10222a:	a3 28 90 11 00       	mov    ds:0x119028,eax
  10222f:	83 45 08 01          	add    DWORD PTR [ebp+0x8],0x1
  102233:	8b 45 08             	mov    eax,DWORD PTR [ebp+0x8]
  102236:	0f b6 00             	movzx  eax,BYTE PTR [eax]
  102239:	84 c0                	test   al,al
  10223b:	0f 85 50 ff ff ff    	jne    0x102191
  102241:	c9                   	leave
  102242:	c3                   	ret
  102243:	55                   	push   ebp
  102244:	89 e5                	mov    ebp,esp
  102246:	83 ec 08             	sub    esp,0x8
  102249:	6a 00                	push   0x0
  10224b:	68 c4 03 00 00       	push   0x3c4
  102250:	e8 e1 fb ff ff       	call   0x101e36
  102255:	83 c4 08             	add    esp,0x8
  102258:	6a 03                	push   0x3
  10225a:	68 c5 03 00 00       	push   0x3c5
  10225f:	e8 d2 fb ff ff       	call   0x101e36
  102264:	83 c4 08             	add    esp,0x8
  102267:	6a 01                	push   0x1
  102269:	68 c4 03 00 00       	push   0x3c4
  10226e:	e8 c3 fb ff ff       	call   0x101e36
  102273:	83 c4 08             	add    esp,0x8
  102276:	6a 00                	push   0x0
  102278:	68 c5 03 00 00       	push   0x3c5
  10227d:	e8 b4 fb ff ff       	call   0x101e36
  102282:	83 c4 08             	add    esp,0x8
  102285:	6a 02                	push   0x2
  102287:	68 c4 03 00 00       	push   0x3c4
  10228c:	e8 a5 fb ff ff       	call   0x101e36
  102291:	83 c4 08             	add    esp,0x8
  102294:	6a 03                	push   0x3
  102296:	68 c5 03 00 00       	push   0x3c5
  10229b:	e8 96 fb ff ff       	call   0x101e36
  1022a0:	83 c4 08             	add    esp,0x8
  1022a3:	6a 03                	push   0x3
  1022a5:	68 c4 03 00 00       	push   0x3c4
  1022aa:	e8 87 fb ff ff       	call   0x101e36
  1022af:	83 c4 08             	add    esp,0x8
  1022b2:	6a 00                	push   0x0
  1022b4:	68 c5 03 00 00       	push   0x3c5
  1022b9:	e8 78 fb ff ff       	call   0x101e36
  1022be:	83 c4 08             	add    esp,0x8
  1022c1:	6a 04                	push   0x4
  1022c3:	68 c4 03 00 00       	push   0x3c4
  1022c8:	e8 69 fb ff ff       	call   0x101e36
  1022cd:	83 c4 08             	add    esp,0x8
  1022d0:	6a 02                	push   0x2
  1022d2:	68 c5 03 00 00       	push   0x3c5
  1022d7:	e8 5a fb ff ff       	call   0x101e36
  1022dc:	83 c4 08             	add    esp,0x8
  1022df:	6a 67                	push   0x67
  1022e1:	68 c2 03 00 00       	push   0x3c2
  1022e6:	e8 4b fb ff ff       	call   0x101e36
  1022eb:	83 c4 08             	add    esp,0x8
  1022ee:	6a 11                	push   0x11
  1022f0:	68 d4 03 00 00       	push   0x3d4
  1022f5:	e8 3c fb ff ff       	call   0x101e36
  1022fa:	83 c4 08             	add    esp,0x8
  1022fd:	68 d5 03 00 00       	push   0x3d5
  102302:	e8 4e fb ff ff       	call   0x101e55
  102307:	83 c4 04             	add    esp,0x4
  10230a:	0f b6 c0             	movzx  eax,al
  10230d:	83 e0 7f             	and    eax,0x7f
  102310:	50                   	push   eax
  102311:	68 d5 03 00 00       	push   0x3d5
  102316:	e8 1b fb ff ff       	call   0x101e36
  10231b:	83 c4 08             	add    esp,0x8
  10231e:	6a 05                	push   0x5
  102320:	68 ce 03 00 00       	push   0x3ce
  102325:	e8 0c fb ff ff       	call   0x101e36
  10232a:	83 c4 08             	add    esp,0x8
  10232d:	6a 10                	push   0x10
  10232f:	68 cf 03 00 00       	push   0x3cf
  102334:	e8 fd fa ff ff       	call   0x101e36
  102339:	83 c4 08             	add    esp,0x8
  10233c:	6a 06                	push   0x6
  10233e:	68 ce 03 00 00       	push   0x3ce
  102343:	e8 ee fa ff ff       	call   0x101e36
  102348:	83 c4 08             	add    esp,0x8
  10234b:	6a 0e                	push   0xe
  10234d:	68 cf 03 00 00       	push   0x3cf
  102352:	e8 df fa ff ff       	call   0x101e36
  102357:	83 c4 08             	add    esp,0x8
  10235a:	e8 3b f0 ff ff       	call   0x10139a
  10235f:	90                   	nop
  102360:	c9                   	leave
  102361:	c3                   	ret
  102362:	55                   	push   ebp
  102363:	89 e5                	mov    ebp,esp
  102365:	83 ec 08             	sub    esp,0x8
  102368:	8b 55 08             	mov    edx,DWORD PTR [ebp+0x8]
  10236b:	8b 45 0c             	mov    eax,DWORD PTR [ebp+0xc]
  10236e:	66 89 55 fc          	mov    WORD PTR [ebp-0x4],dx
  102372:	66 89 45 f8          	mov    WORD PTR [ebp-0x8],ax
  102376:	0f b7 45 f8          	movzx  eax,WORD PTR [ebp-0x8]
  10237a:	0f b7 55 fc          	movzx  edx,WORD PTR [ebp-0x4]
  10237e:	66 ef                	out    dx,ax
  102380:	90                   	nop
  102381:	c9                   	leave
  102382:	c3                   	ret
  102383:	55                   	push   ebp
  102384:	89 e5                	mov    ebp,esp
  102386:	83 ec 14             	sub    esp,0x14
  102389:	8b 45 08             	mov    eax,DWORD PTR [ebp+0x8]
  10238c:	66 89 45 ec          	mov    WORD PTR [ebp-0x14],ax
  102390:	0f b7 45 ec          	movzx  eax,WORD PTR [ebp-0x14]
  102394:	89 c2                	mov    edx,eax
  102396:	66 ed                	in     ax,dx
  102398:	66 89 45 fe          	mov    WORD PTR [ebp-0x2],ax
  10239c:	0f b7 45 fe          	movzx  eax,WORD PTR [ebp-0x2]
  1023a0:	c9                   	leave
  1023a1:	c3                   	ret
  1023a2:	55                   	push   ebp
  1023a3:	89 e5                	mov    ebp,esp
  1023a5:	83 ec 04             	sub    esp,0x4
  1023a8:	8b 45 08             	mov    eax,DWORD PTR [ebp+0x8]
  1023ab:	66 89 45 fc          	mov    WORD PTR [ebp-0x4],ax
  1023af:	8b 45 0c             	mov    eax,DWORD PTR [ebp+0xc]
  1023b2:	0f b7 55 fc          	movzx  edx,WORD PTR [ebp-0x4]
  1023b6:	ef                   	out    dx,eax
  1023b7:	90                   	nop
  1023b8:	c9                   	leave
  1023b9:	c3                   	ret
  1023ba:	55                   	push   ebp
  1023bb:	89 e5                	mov    ebp,esp
  1023bd:	83 ec 14             	sub    esp,0x14
  1023c0:	8b 45 08             	mov    eax,DWORD PTR [ebp+0x8]
  1023c3:	66 89 45 ec          	mov    WORD PTR [ebp-0x14],ax
  1023c7:	0f b7 45 ec          	movzx  eax,WORD PTR [ebp-0x14]
  1023cb:	89 c2                	mov    edx,eax
  1023cd:	ed                   	in     eax,dx
  1023ce:	89 45 fc             	mov    DWORD PTR [ebp-0x4],eax
  1023d1:	8b 45 fc             	mov    eax,DWORD PTR [ebp-0x4]
  1023d4:	c9                   	leave
  1023d5:	c3                   	ret
  1023d6:	55                   	push   ebp
  1023d7:	89 e5                	mov    ebp,esp
  1023d9:	83 ec 08             	sub    esp,0x8
  1023dc:	8b 55 08             	mov    edx,DWORD PTR [ebp+0x8]
  1023df:	8b 45 0c             	mov    eax,DWORD PTR [ebp+0xc]
  1023e2:	66 89 55 fc          	mov    WORD PTR [ebp-0x4],dx
  1023e6:	66 89 45 f8          	mov    WORD PTR [ebp-0x8],ax
  1023ea:	0f b7 45 fc          	movzx  eax,WORD PTR [ebp-0x4]
  1023ee:	50                   	push   eax
  1023ef:	68 ce 01 00 00       	push   0x1ce
  1023f4:	e8 69 ff ff ff       	call   0x102362
  1023f9:	83 c4 08             	add    esp,0x8
  1023fc:	0f b7 45 f8          	movzx  eax,WORD PTR [ebp-0x8]
  102400:	50                   	push   eax
  102401:	68 cf 01 00 00       	push   0x1cf
  102406:	e8 57 ff ff ff       	call   0x102362
  10240b:	83 c4 08             	add    esp,0x8
  10240e:	90                   	nop
  10240f:	c9                   	leave
  102410:	c3                   	ret
  102411:	55                   	push   ebp
  102412:	89 e5                	mov    ebp,esp
  102414:	83 ec 04             	sub    esp,0x4
  102417:	8b 45 08             	mov    eax,DWORD PTR [ebp+0x8]
  10241a:	66 89 45 fc          	mov    WORD PTR [ebp-0x4],ax
  10241e:	0f b7 45 fc          	movzx  eax,WORD PTR [ebp-0x4]
  102422:	50                   	push   eax
  102423:	68 ce 01 00 00       	push   0x1ce
  102428:	e8 35 ff ff ff       	call   0x102362
  10242d:	83 c4 08             	add    esp,0x8
  102430:	68 cf 01 00 00       	push   0x1cf
  102435:	e8 49 ff ff ff       	call   0x102383
  10243a:	83 c4 04             	add    esp,0x4
  10243d:	c9                   	leave
  10243e:	c3                   	ret
  10243f:	55                   	push   ebp
  102440:	89 e5                	mov    ebp,esp
  102442:	83 ec 10             	sub    esp,0x10
  102445:	6a 00                	push   0x0
  102447:	e8 c5 ff ff ff       	call   0x102411
  10244c:	83 c4 04             	add    esp,0x4
  10244f:	66 89 45 fe          	mov    WORD PTR [ebp-0x2],ax
  102453:	66 81 7d fe bf b0    	cmp    WORD PTR [ebp-0x2],0xb0bf
  102459:	76 0f                	jbe    0x10246a
  10245b:	66 81 7d fe c5 b0    	cmp    WORD PTR [ebp-0x2],0xb0c5
  102461:	77 07                	ja     0x10246a
  102463:	b8 01 00 00 00       	mov    eax,0x1
  102468:	eb 05                	jmp    0x10246f
  10246a:	b8 00 00 00 00       	mov    eax,0x0
  10246f:	c9                   	leave
  102470:	c3                   	ret
  102471:	55                   	push   ebp
  102472:	89 e5                	mov    ebp,esp
  102474:	83 ec 0c             	sub    esp,0xc
  102477:	8b 4d 08             	mov    ecx,DWORD PTR [ebp+0x8]
  10247a:	8b 55 0c             	mov    edx,DWORD PTR [ebp+0xc]
  10247d:	8b 45 10             	mov    eax,DWORD PTR [ebp+0x10]
  102480:	66 89 4d fc          	mov    WORD PTR [ebp-0x4],cx
  102484:	66 89 55 f8          	mov    WORD PTR [ebp-0x8],dx
  102488:	66 89 45 f4          	mov    WORD PTR [ebp-0xc],ax
  10248c:	6a 00                	push   0x0
  10248e:	6a 04                	push   0x4
  102490:	e8 41 ff ff ff       	call   0x1023d6
  102495:	83 c4 08             	add    esp,0x8
  102498:	0f b7 45 fc          	movzx  eax,WORD PTR [ebp-0x4]
  10249c:	50                   	push   eax
  10249d:	6a 01                	push   0x1
  10249f:	e8 32 ff ff ff       	call   0x1023d6
  1024a4:	83 c4 08             	add    esp,0x8
  1024a7:	0f b7 45 f8          	movzx  eax,WORD PTR [ebp-0x8]
  1024ab:	50                   	push   eax
  1024ac:	6a 02                	push   0x2
  1024ae:	e8 23 ff ff ff       	call   0x1023d6
  1024b3:	83 c4 08             	add    esp,0x8
  1024b6:	0f b7 45 f4          	movzx  eax,WORD PTR [ebp-0xc]
  1024ba:	50                   	push   eax
  1024bb:	6a 03                	push   0x3
  1024bd:	e8 14 ff ff ff       	call   0x1023d6
  1024c2:	83 c4 08             	add    esp,0x8
  1024c5:	6a 41                	push   0x41
  1024c7:	6a 04                	push   0x4
  1024c9:	e8 08 ff ff ff       	call   0x1023d6
  1024ce:	83 c4 08             	add    esp,0x8
  1024d1:	90                   	nop
  1024d2:	c9                   	leave
  1024d3:	c3                   	ret
  1024d4:	55                   	push   ebp
  1024d5:	89 e5                	mov    ebp,esp
  1024d7:	53                   	push   ebx
  1024d8:	83 ec 20             	sub    esp,0x20
  1024db:	8b 5d 08             	mov    ebx,DWORD PTR [ebp+0x8]
  1024de:	8b 4d 0c             	mov    ecx,DWORD PTR [ebp+0xc]
  1024e1:	8b 55 10             	mov    edx,DWORD PTR [ebp+0x10]
  1024e4:	8b 45 14             	mov    eax,DWORD PTR [ebp+0x14]
  1024e7:	88 5d e8             	mov    BYTE PTR [ebp-0x18],bl
  1024ea:	88 4d e4             	mov    BYTE PTR [ebp-0x1c],cl
  1024ed:	88 55 e0             	mov    BYTE PTR [ebp-0x20],dl
  1024f0:	88 45 dc             	mov    BYTE PTR [ebp-0x24],al
  1024f3:	0f b6 45 e8          	movzx  eax,BYTE PTR [ebp-0x18]
  1024f7:	c1 e0 10             	shl    eax,0x10
  1024fa:	89 c2                	mov    edx,eax
  1024fc:	0f b6 45 e4          	movzx  eax,BYTE PTR [ebp-0x1c]
  102500:	c1 e0 0b             	shl    eax,0xb
  102503:	09 c2                	or     edx,eax
  102505:	0f b6 45 e0          	movzx  eax,BYTE PTR [ebp-0x20]
  102509:	c1 e0 08             	shl    eax,0x8
  10250c:	09 c2                	or     edx,eax
  10250e:	0f b6 45 dc          	movzx  eax,BYTE PTR [ebp-0x24]
  102512:	25 fc 00 00 00       	and    eax,0xfc
  102517:	09 d0                	or     eax,edx
  102519:	0d 00 00 00 80       	or     eax,0x80000000
  10251e:	89 45 f8             	mov    DWORD PTR [ebp-0x8],eax
  102521:	ff 75 f8             	push   DWORD PTR [ebp-0x8]
  102524:	68 f8 0c 00 00       	push   0xcf8
  102529:	e8 74 fe ff ff       	call   0x1023a2
  10252e:	83 c4 08             	add    esp,0x8
  102531:	68 fc 0c 00 00       	push   0xcfc
  102536:	e8 7f fe ff ff       	call   0x1023ba
  10253b:	83 c4 04             	add    esp,0x4
  10253e:	8b 5d fc             	mov    ebx,DWORD PTR [ebp-0x4]
  102541:	c9                   	leave
  102542:	c3                   	ret
  102543:	55                   	push   ebp
  102544:	89 e5                	mov    ebp,esp
  102546:	83 ec 10             	sub    esp,0x10
  102549:	c6 45 ff 00          	mov    BYTE PTR [ebp-0x1],0x0
  10254d:	eb 53                	jmp    0x1025a2
  10254f:	0f b6 45 ff          	movzx  eax,BYTE PTR [ebp-0x1]
  102553:	6a 00                	push   0x0
  102555:	6a 00                	push   0x0
  102557:	50                   	push   eax
  102558:	6a 00                	push   0x0
  10255a:	e8 75 ff ff ff       	call   0x1024d4
  10255f:	83 c4 10             	add    esp,0x10
  102562:	89 45 f8             	mov    DWORD PTR [ebp-0x8],eax
  102565:	81 7d f8 34 12 11 11 	cmp    DWORD PTR [ebp-0x8],0x11111234
  10256c:	75 2a                	jne    0x102598
  10256e:	0f b6 45 ff          	movzx  eax,BYTE PTR [ebp-0x1]
  102572:	6a 10                	push   0x10
  102574:	6a 00                	push   0x0
  102576:	50                   	push   eax
  102577:	6a 00                	push   0x0
  102579:	e8 56 ff ff ff       	call   0x1024d4
  10257e:	83 c4 10             	add    esp,0x10
  102581:	89 45 f4             	mov    DWORD PTR [ebp-0xc],eax
  102584:	83 7d f4 00          	cmp    DWORD PTR [ebp-0xc],0x0
  102588:	74 0e                	je     0x102598
  10258a:	83 7d f4 ff          	cmp    DWORD PTR [ebp-0xc],0xffffffff
  10258e:	74 08                	je     0x102598
  102590:	8b 45 f4             	mov    eax,DWORD PTR [ebp-0xc]
  102593:	83 e0 f0             	and    eax,0xfffffff0
  102596:	eb 15                	jmp    0x1025ad
  102598:	0f b6 45 ff          	movzx  eax,BYTE PTR [ebp-0x1]
  10259c:	83 c0 01             	add    eax,0x1
  10259f:	88 45 ff             	mov    BYTE PTR [ebp-0x1],al
  1025a2:	80 7d ff 1f          	cmp    BYTE PTR [ebp-0x1],0x1f
  1025a6:	76 a7                	jbe    0x10254f
  1025a8:	b8 00 00 00 fd       	mov    eax,0xfd000000
  1025ad:	c9                   	leave
  1025ae:	c3                   	ret
  1025af:	55                   	push   ebp
  1025b0:	89 e5                	mov    ebp,esp
  1025b2:	0f b7 05 30 90 11 00 	movzx  eax,WORD PTR ds:0x119030
  1025b9:	0f b7 d0             	movzx  edx,ax
  1025bc:	0f b7 05 32 90 11 00 	movzx  eax,WORD PTR ds:0x119032
  1025c3:	0f b7 c0             	movzx  eax,ax
  1025c6:	0f af d0             	imul   edx,eax
  1025c9:	0f b7 05 34 90 11 00 	movzx  eax,WORD PTR ds:0x119034
  1025d0:	66 c1 e8 03          	shr    ax,0x3
  1025d4:	0f b7 c0             	movzx  eax,ax
  1025d7:	0f af c2             	imul   eax,edx
  1025da:	5d                   	pop    ebp
  1025db:	c3                   	ret
  1025dc:	55                   	push   ebp
  1025dd:	89 e5                	mov    ebp,esp
  1025df:	0f b7 05 30 90 11 00 	movzx  eax,WORD PTR ds:0x119030
  1025e6:	5d                   	pop    ebp
  1025e7:	c3                   	ret
  1025e8:	55                   	push   ebp
  1025e9:	89 e5                	mov    ebp,esp
  1025eb:	0f b7 05 32 90 11 00 	movzx  eax,WORD PTR ds:0x119032
  1025f2:	5d                   	pop    ebp
  1025f3:	c3                   	ret
  1025f4:	55                   	push   ebp
  1025f5:	89 e5                	mov    ebp,esp
  1025f7:	83 ec 1c             	sub    esp,0x1c
  1025fa:	8b 4d 08             	mov    ecx,DWORD PTR [ebp+0x8]
  1025fd:	8b 55 0c             	mov    edx,DWORD PTR [ebp+0xc]
  102600:	8b 45 10             	mov    eax,DWORD PTR [ebp+0x10]
  102603:	66 89 4d ec          	mov    WORD PTR [ebp-0x14],cx
  102607:	66 89 55 e8          	mov    WORD PTR [ebp-0x18],dx
  10260b:	66 89 45 e4          	mov    WORD PTR [ebp-0x1c],ax
  10260f:	e8 2b fe ff ff       	call   0x10243f
  102614:	85 c0                	test   eax,eax
  102616:	75 0a                	jne    0x102622
  102618:	b8 00 00 00 00       	mov    eax,0x0
  10261d:	e9 82 00 00 00       	jmp    0x1026a4
  102622:	0f b7 4d e4          	movzx  ecx,WORD PTR [ebp-0x1c]
  102626:	0f b7 55 e8          	movzx  edx,WORD PTR [ebp-0x18]
  10262a:	0f b7 45 ec          	movzx  eax,WORD PTR [ebp-0x14]
  10262e:	51                   	push   ecx
  10262f:	52                   	push   edx
  102630:	50                   	push   eax
  102631:	e8 3b fe ff ff       	call   0x102471
  102636:	83 c4 0c             	add    esp,0xc
  102639:	6a 01                	push   0x1
  10263b:	e8 d1 fd ff ff       	call   0x102411
  102640:	83 c4 04             	add    esp,0x4
  102643:	66 89 45 fe          	mov    WORD PTR [ebp-0x2],ax
  102647:	6a 02                	push   0x2
  102649:	e8 c3 fd ff ff       	call   0x102411
  10264e:	83 c4 04             	add    esp,0x4
  102651:	66 89 45 fc          	mov    WORD PTR [ebp-0x4],ax
  102655:	6a 03                	push   0x3
  102657:	e8 b5 fd ff ff       	call   0x102411
  10265c:	83 c4 04             	add    esp,0x4
  10265f:	66 89 45 fa          	mov    WORD PTR [ebp-0x6],ax
  102663:	0f b7 45 fe          	movzx  eax,WORD PTR [ebp-0x2]
  102667:	66 a3 30 90 11 00    	mov    ds:0x119030,ax
  10266d:	0f b7 45 fc          	movzx  eax,WORD PTR [ebp-0x4]
  102671:	66 a3 32 90 11 00    	mov    ds:0x119032,ax
  102677:	0f b7 45 fa          	movzx  eax,WORD PTR [ebp-0x6]
  10267b:	66 a3 34 90 11 00    	mov    ds:0x119034,ax
  102681:	e8 bd fe ff ff       	call   0x102543
  102686:	a3 2c 90 11 00       	mov    ds:0x11902c,eax
  10268b:	c7 05 38 90 11 00 00 	mov    DWORD PTR ds:0x119038,0x0
  102692:	00 00 00 
  102695:	c7 05 3c 90 11 00 00 	mov    DWORD PTR ds:0x11903c,0x0
  10269c:	00 00 00 
  10269f:	b8 01 00 00 00       	mov    eax,0x1
  1026a4:	c9                   	leave
  1026a5:	c3                   	ret
  1026a6:	55                   	push   ebp
  1026a7:	89 e5                	mov    ebp,esp
  1026a9:	83 ec 10             	sub    esp,0x10
  1026ac:	a1 2c 90 11 00       	mov    eax,ds:0x11902c
  1026b1:	85 c0                	test   eax,eax
  1026b3:	74 49                	je     0x1026fe
  1026b5:	0f b7 05 30 90 11 00 	movzx  eax,WORD PTR ds:0x119030
  1026bc:	0f b7 d0             	movzx  edx,ax
  1026bf:	0f b7 05 32 90 11 00 	movzx  eax,WORD PTR ds:0x119032
  1026c6:	0f b7 c0             	movzx  eax,ax
  1026c9:	0f af c2             	imul   eax,edx
  1026cc:	89 45 f8             	mov    DWORD PTR [ebp-0x8],eax
  1026cf:	c7 45 fc 00 00 00 00 	mov    DWORD PTR [ebp-0x4],0x0
  1026d6:	eb 1c                	jmp    0x1026f4
  1026d8:	a1 2c 90 11 00       	mov    eax,ds:0x11902c
  1026dd:	8b 55 fc             	mov    edx,DWORD PTR [ebp-0x4]
  1026e0:	c1 e2 02             	shl    edx,0x2
  1026e3:	01 d0                	add    eax,edx
  1026e5:	8b 55 08             	mov    edx,DWORD PTR [ebp+0x8]
  1026e8:	81 e2 ff ff ff 00    	and    edx,0xffffff
  1026ee:	89 10                	mov    DWORD PTR [eax],edx
  1026f0:	83 45 fc 01          	add    DWORD PTR [ebp-0x4],0x1
  1026f4:	8b 45 fc             	mov    eax,DWORD PTR [ebp-0x4]
  1026f7:	3b 45 f8             	cmp    eax,DWORD PTR [ebp-0x8]
  1026fa:	72 dc                	jb     0x1026d8
  1026fc:	eb 01                	jmp    0x1026ff
  1026fe:	90                   	nop
  1026ff:	c9                   	leave
  102700:	c3                   	ret
  102701:	55                   	push   ebp
  102702:	89 e5                	mov    ebp,esp
  102704:	a1 2c 90 11 00       	mov    eax,ds:0x11902c
  102709:	85 c0                	test   eax,eax
  10270b:	74 57                	je     0x102764
  10270d:	83 7d 08 00          	cmp    DWORD PTR [ebp+0x8],0x0
  102711:	78 54                	js     0x102767
  102713:	0f b7 05 30 90 11 00 	movzx  eax,WORD PTR ds:0x119030
  10271a:	0f b7 c0             	movzx  eax,ax
  10271d:	39 45 08             	cmp    DWORD PTR [ebp+0x8],eax
  102720:	7d 45                	jge    0x102767
  102722:	83 7d 0c 00          	cmp    DWORD PTR [ebp+0xc],0x0
  102726:	78 3f                	js     0x102767
  102728:	0f b7 05 32 90 11 00 	movzx  eax,WORD PTR ds:0x119032
  10272f:	0f b7 c0             	movzx  eax,ax
  102732:	39 45 0c             	cmp    DWORD PTR [ebp+0xc],eax
  102735:	7d 30                	jge    0x102767
  102737:	8b 15 2c 90 11 00    	mov    edx,DWORD PTR ds:0x11902c
  10273d:	0f b7 05 30 90 11 00 	movzx  eax,WORD PTR ds:0x119030
  102744:	0f b7 c0             	movzx  eax,ax
  102747:	0f af 45 0c          	imul   eax,DWORD PTR [ebp+0xc]
  10274b:	89 c1                	mov    ecx,eax
  10274d:	8b 45 08             	mov    eax,DWORD PTR [ebp+0x8]
  102750:	01 c8                	add    eax,ecx
  102752:	c1 e0 02             	shl    eax,0x2
  102755:	01 d0                	add    eax,edx
  102757:	8b 55 10             	mov    edx,DWORD PTR [ebp+0x10]
  10275a:	81 e2 ff ff ff 00    	and    edx,0xffffff
  102760:	89 10                	mov    DWORD PTR [eax],edx
  102762:	eb 04                	jmp    0x102768
  102764:	90                   	nop
  102765:	eb 01                	jmp    0x102768
  102767:	90                   	nop
  102768:	5d                   	pop    ebp
  102769:	c3                   	ret
  10276a:	55                   	push   ebp
  10276b:	89 e5                	mov    ebp,esp
  10276d:	53                   	push   ebx
  10276e:	83 ec 24             	sub    esp,0x24
  102771:	8b 45 10             	mov    eax,DWORD PTR [ebp+0x10]
  102774:	88 45 d8             	mov    BYTE PTR [ebp-0x28],al
  102777:	0f b6 45 d8          	movzx  eax,BYTE PTR [ebp-0x28]
  10277b:	88 45 fb             	mov    BYTE PTR [ebp-0x5],al
  10277e:	0f b6 45 fb          	movzx  eax,BYTE PTR [ebp-0x5]
  102782:	84 c0                	test   al,al
  102784:	79 04                	jns    0x10278a
  102786:	c6 45 fb 00          	mov    BYTE PTR [ebp-0x5],0x0
  10278a:	0f b6 45 fb          	movzx  eax,BYTE PTR [ebp-0x5]
  10278e:	c1 e0 04             	shl    eax,0x4
  102791:	05 40 60 10 00       	add    eax,0x106040
  102796:	89 45 ec             	mov    DWORD PTR [ebp-0x14],eax
  102799:	c7 45 f4 00 00 00 00 	mov    DWORD PTR [ebp-0xc],0x0
  1027a0:	eb 5a                	jmp    0x1027fc
  1027a2:	8b 55 f4             	mov    edx,DWORD PTR [ebp-0xc]
  1027a5:	8b 45 ec             	mov    eax,DWORD PTR [ebp-0x14]
  1027a8:	01 d0                	add    eax,edx
  1027aa:	0f b6 00             	movzx  eax,BYTE PTR [eax]
  1027ad:	88 45 eb             	mov    BYTE PTR [ebp-0x15],al
  1027b0:	c7 45 f0 00 00 00 00 	mov    DWORD PTR [ebp-0x10],0x0
  1027b7:	eb 39                	jmp    0x1027f2
  1027b9:	0f b6 55 eb          	movzx  edx,BYTE PTR [ebp-0x15]
  1027bd:	8b 45 f0             	mov    eax,DWORD PTR [ebp-0x10]
  1027c0:	bb 80 00 00 00       	mov    ebx,0x80
  1027c5:	89 c1                	mov    ecx,eax
  1027c7:	d3 fb                	sar    ebx,cl
  1027c9:	89 d8                	mov    eax,ebx
  1027cb:	21 d0                	and    eax,edx
  1027cd:	85 c0                	test   eax,eax
  1027cf:	74 1d                	je     0x1027ee
  1027d1:	8b 55 0c             	mov    edx,DWORD PTR [ebp+0xc]
  1027d4:	8b 45 f4             	mov    eax,DWORD PTR [ebp-0xc]
  1027d7:	01 c2                	add    edx,eax
  1027d9:	8b 4d 08             	mov    ecx,DWORD PTR [ebp+0x8]
  1027dc:	8b 45 f0             	mov    eax,DWORD PTR [ebp-0x10]
  1027df:	01 c8                	add    eax,ecx
  1027e1:	ff 75 14             	push   DWORD PTR [ebp+0x14]
  1027e4:	52                   	push   edx
  1027e5:	50                   	push   eax
  1027e6:	e8 16 ff ff ff       	call   0x102701
  1027eb:	83 c4 0c             	add    esp,0xc
  1027ee:	83 45 f0 01          	add    DWORD PTR [ebp-0x10],0x1
  1027f2:	83 7d f0 07          	cmp    DWORD PTR [ebp-0x10],0x7
  1027f6:	7e c1                	jle    0x1027b9
  1027f8:	83 45 f4 01          	add    DWORD PTR [ebp-0xc],0x1
  1027fc:	83 7d f4 0f          	cmp    DWORD PTR [ebp-0xc],0xf
  102800:	7e a0                	jle    0x1027a2
  102802:	90                   	nop
  102803:	90                   	nop
  102804:	8b 5d fc             	mov    ebx,DWORD PTR [ebp-0x4]
  102807:	c9                   	leave
  102808:	c3                   	ret
  102809:	55                   	push   ebp
  10280a:	89 e5                	mov    ebp,esp
  10280c:	a1 2c 90 11 00       	mov    eax,ds:0x11902c
  102811:	85 c0                	test   eax,eax
  102813:	0f 84 dc 00 00 00    	je     0x1028f5
  102819:	e9 c7 00 00 00       	jmp    0x1028e5
  10281e:	8b 45 08             	mov    eax,DWORD PTR [ebp+0x8]
  102821:	0f b6 00             	movzx  eax,BYTE PTR [eax]
  102824:	3c 0a                	cmp    al,0xa
  102826:	75 3d                	jne    0x102865
  102828:	c7 05 38 90 11 00 00 	mov    DWORD PTR ds:0x119038,0x0
  10282f:	00 00 00 
  102832:	a1 3c 90 11 00       	mov    eax,ds:0x11903c
  102837:	83 c0 10             	add    eax,0x10
  10283a:	a3 3c 90 11 00       	mov    ds:0x11903c,eax
  10283f:	0f b7 05 32 90 11 00 	movzx  eax,WORD PTR ds:0x119032
  102846:	0f b7 d0             	movzx  edx,ax
  102849:	a1 3c 90 11 00       	mov    eax,ds:0x11903c
  10284e:	39 c2                	cmp    edx,eax
  102850:	7f 0a                	jg     0x10285c
  102852:	c7 05 3c 90 11 00 00 	mov    DWORD PTR ds:0x11903c,0x0
  102859:	00 00 00 
  10285c:	83 45 08 01          	add    DWORD PTR [ebp+0x8],0x1
  102860:	e9 80 00 00 00       	jmp    0x1028e5
  102865:	8b 45 08             	mov    eax,DWORD PTR [ebp+0x8]
  102868:	0f b6 00             	movzx  eax,BYTE PTR [eax]
  10286b:	0f be c8             	movsx  ecx,al
  10286e:	8b 15 3c 90 11 00    	mov    edx,DWORD PTR ds:0x11903c
  102874:	a1 38 90 11 00       	mov    eax,ds:0x119038
  102879:	ff 75 10             	push   DWORD PTR [ebp+0x10]
  10287c:	ff 75 0c             	push   DWORD PTR [ebp+0xc]
  10287f:	51                   	push   ecx
  102880:	52                   	push   edx
  102881:	50                   	push   eax
  102882:	e8 e3 fe ff ff       	call   0x10276a
  102887:	83 c4 14             	add    esp,0x14
  10288a:	a1 38 90 11 00       	mov    eax,ds:0x119038
  10288f:	83 c0 08             	add    eax,0x8
  102892:	a3 38 90 11 00       	mov    ds:0x119038,eax
  102897:	a1 38 90 11 00       	mov    eax,ds:0x119038
  10289c:	8d 50 07             	lea    edx,[eax+0x7]
  10289f:	0f b7 05 30 90 11 00 	movzx  eax,WORD PTR ds:0x119030
  1028a6:	0f b7 c0             	movzx  eax,ax
  1028a9:	39 c2                	cmp    edx,eax
  1028ab:	7c 34                	jl     0x1028e1
  1028ad:	c7 05 38 90 11 00 00 	mov    DWORD PTR ds:0x119038,0x0
  1028b4:	00 00 00 
  1028b7:	a1 3c 90 11 00       	mov    eax,ds:0x11903c
  1028bc:	83 c0 10             	add    eax,0x10
  1028bf:	a3 3c 90 11 00       	mov    ds:0x11903c,eax
  1028c4:	0f b7 05 32 90 11 00 	movzx  eax,WORD PTR ds:0x119032
  1028cb:	0f b7 d0             	movzx  edx,ax
  1028ce:	a1 3c 90 11 00       	mov    eax,ds:0x11903c
  1028d3:	39 c2                	cmp    edx,eax
  1028d5:	7f 0a                	jg     0x1028e1
  1028d7:	c7 05 3c 90 11 00 00 	mov    DWORD PTR ds:0x11903c,0x0
  1028de:	00 00 00 
  1028e1:	83 45 08 01          	add    DWORD PTR [ebp+0x8],0x1
  1028e5:	8b 45 08             	mov    eax,DWORD PTR [ebp+0x8]
  1028e8:	0f b6 00             	movzx  eax,BYTE PTR [eax]
  1028eb:	84 c0                	test   al,al
  1028ed:	0f 85 2b ff ff ff    	jne    0x10281e
  1028f3:	eb 01                	jmp    0x1028f6
  1028f5:	90                   	nop
  1028f6:	c9                   	leave
  1028f7:	c3                   	ret
  1028f8:	55                   	push   ebp
  1028f9:	89 e5                	mov    ebp,esp
  1028fb:	83 ec 10             	sub    esp,0x10
  1028fe:	a1 2c 90 11 00       	mov    eax,ds:0x11902c
  102903:	85 c0                	test   eax,eax
  102905:	74 78                	je     0x10297f
  102907:	8b 45 08             	mov    eax,DWORD PTR [ebp+0x8]
  10290a:	89 45 fc             	mov    DWORD PTR [ebp-0x4],eax
  10290d:	8b 45 0c             	mov    eax,DWORD PTR [ebp+0xc]
  102910:	89 45 f8             	mov    DWORD PTR [ebp-0x8],eax
  102913:	eb 5e                	jmp    0x102973
  102915:	8b 45 10             	mov    eax,DWORD PTR [ebp+0x10]
  102918:	0f b6 00             	movzx  eax,BYTE PTR [eax]
  10291b:	3c 0a                	cmp    al,0xa
  10291d:	75 10                	jne    0x10292f
  10291f:	8b 45 08             	mov    eax,DWORD PTR [ebp+0x8]
  102922:	89 45 fc             	mov    DWORD PTR [ebp-0x4],eax
  102925:	83 45 f8 10          	add    DWORD PTR [ebp-0x8],0x10
  102929:	83 45 10 01          	add    DWORD PTR [ebp+0x10],0x1
  10292d:	eb 44                	jmp    0x102973
  10292f:	8b 45 10             	mov    eax,DWORD PTR [ebp+0x10]
  102932:	0f b6 00             	movzx  eax,BYTE PTR [eax]
  102935:	0f be c0             	movsx  eax,al
  102938:	ff 75 18             	push   DWORD PTR [ebp+0x18]
  10293b:	ff 75 14             	push   DWORD PTR [ebp+0x14]
  10293e:	50                   	push   eax
  10293f:	ff 75 f8             	push   DWORD PTR [ebp-0x8]
  102942:	ff 75 fc             	push   DWORD PTR [ebp-0x4]
  102945:	e8 20 fe ff ff       	call   0x10276a
  10294a:	83 c4 14             	add    esp,0x14
  10294d:	83 45 fc 08          	add    DWORD PTR [ebp-0x4],0x8
  102951:	8b 45 fc             	mov    eax,DWORD PTR [ebp-0x4]
  102954:	8d 50 07             	lea    edx,[eax+0x7]
  102957:	0f b7 05 30 90 11 00 	movzx  eax,WORD PTR ds:0x119030
  10295e:	0f b7 c0             	movzx  eax,ax
  102961:	39 c2                	cmp    edx,eax
  102963:	7c 0a                	jl     0x10296f
  102965:	8b 45 08             	mov    eax,DWORD PTR [ebp+0x8]
  102968:	89 45 fc             	mov    DWORD PTR [ebp-0x4],eax
  10296b:	83 45 f8 10          	add    DWORD PTR [ebp-0x8],0x10
  10296f:	83 45 10 01          	add    DWORD PTR [ebp+0x10],0x1
  102973:	8b 45 10             	mov    eax,DWORD PTR [ebp+0x10]
  102976:	0f b6 00             	movzx  eax,BYTE PTR [eax]
  102979:	84 c0                	test   al,al
  10297b:	75 98                	jne    0x102915
  10297d:	eb 01                	jmp    0x102980
  10297f:	90                   	nop
  102980:	c9                   	leave
  102981:	c3                   	ret
  102982:	55                   	push   ebp
  102983:	89 e5                	mov    ebp,esp
  102985:	8b 45 08             	mov    eax,DWORD PTR [ebp+0x8]
  102988:	a3 38 90 11 00       	mov    ds:0x119038,eax
  10298d:	8b 45 0c             	mov    eax,DWORD PTR [ebp+0xc]
  102990:	a3 3c 90 11 00       	mov    ds:0x11903c,eax
  102995:	90                   	nop
  102996:	5d                   	pop    ebp
  102997:	c3                   	ret
  102998:	55                   	push   ebp
  102999:	89 e5                	mov    ebp,esp
  10299b:	83 7d 08 00          	cmp    DWORD PTR [ebp+0x8],0x0
  10299f:	74 0b                	je     0x1029ac
  1029a1:	8b 15 38 90 11 00    	mov    edx,DWORD PTR ds:0x119038
  1029a7:	8b 45 08             	mov    eax,DWORD PTR [ebp+0x8]
  1029aa:	89 10                	mov    DWORD PTR [eax],edx
  1029ac:	83 7d 0c 00          	cmp    DWORD PTR [ebp+0xc],0x0
  1029b0:	74 0b                	je     0x1029bd
  1029b2:	8b 15 3c 90 11 00    	mov    edx,DWORD PTR ds:0x11903c
  1029b8:	8b 45 0c             	mov    eax,DWORD PTR [ebp+0xc]
  1029bb:	89 10                	mov    DWORD PTR [eax],edx
  1029bd:	90                   	nop
  1029be:	5d                   	pop    ebp
  1029bf:	c3                   	ret
  1029c0:	55                   	push   ebp
  1029c1:	89 e5                	mov    ebp,esp
  1029c3:	83 ec 10             	sub    esp,0x10
  1029c6:	a1 2c 90 11 00       	mov    eax,ds:0x11902c
  1029cb:	85 c0                	test   eax,eax
  1029cd:	0f 84 8e 00 00 00    	je     0x102a61
  1029d3:	8b 45 18             	mov    eax,DWORD PTR [ebp+0x18]
  1029d6:	25 ff ff ff 00       	and    eax,0xffffff
  1029db:	89 45 f4             	mov    DWORD PTR [ebp-0xc],eax
  1029de:	8b 45 0c             	mov    eax,DWORD PTR [ebp+0xc]
  1029e1:	89 45 fc             	mov    DWORD PTR [ebp-0x4],eax
  1029e4:	eb 5d                	jmp    0x102a43
  1029e6:	8b 45 08             	mov    eax,DWORD PTR [ebp+0x8]
  1029e9:	89 45 f8             	mov    DWORD PTR [ebp-0x8],eax
  1029ec:	eb 35                	jmp    0x102a23
  1029ee:	83 7d fc 00          	cmp    DWORD PTR [ebp-0x4],0x0
  1029f2:	78 2b                	js     0x102a1f
  1029f4:	83 7d f8 00          	cmp    DWORD PTR [ebp-0x8],0x0
  1029f8:	78 25                	js     0x102a1f
  1029fa:	8b 15 2c 90 11 00    	mov    edx,DWORD PTR ds:0x11902c
  102a00:	0f b7 05 30 90 11 00 	movzx  eax,WORD PTR ds:0x119030
  102a07:	0f b7 c0             	movzx  eax,ax
  102a0a:	0f af 45 fc          	imul   eax,DWORD PTR [ebp-0x4]
  102a0e:	89 c1                	mov    ecx,eax
  102a10:	8b 45 f8             	mov    eax,DWORD PTR [ebp-0x8]
  102a13:	01 c8                	add    eax,ecx
  102a15:	c1 e0 02             	shl    eax,0x2
  102a18:	01 c2                	add    edx,eax
  102a1a:	8b 45 f4             	mov    eax,DWORD PTR [ebp-0xc]
  102a1d:	89 02                	mov    DWORD PTR [edx],eax
  102a1f:	83 45 f8 01          	add    DWORD PTR [ebp-0x8],0x1
  102a23:	8b 55 08             	mov    edx,DWORD PTR [ebp+0x8]
  102a26:	8b 45 10             	mov    eax,DWORD PTR [ebp+0x10]
  102a29:	01 d0                	add    eax,edx
  102a2b:	39 45 f8             	cmp    DWORD PTR [ebp-0x8],eax
  102a2e:	7d 0f                	jge    0x102a3f
  102a30:	0f b7 05 30 90 11 00 	movzx  eax,WORD PTR ds:0x119030
  102a37:	0f b7 c0             	movzx  eax,ax
  102a3a:	39 45 f8             	cmp    DWORD PTR [ebp-0x8],eax
  102a3d:	7c af                	jl     0x1029ee
  102a3f:	83 45 fc 01          	add    DWORD PTR [ebp-0x4],0x1
  102a43:	8b 55 0c             	mov    edx,DWORD PTR [ebp+0xc]
  102a46:	8b 45 14             	mov    eax,DWORD PTR [ebp+0x14]
  102a49:	01 d0                	add    eax,edx
  102a4b:	39 45 fc             	cmp    DWORD PTR [ebp-0x4],eax
  102a4e:	7d 12                	jge    0x102a62
  102a50:	0f b7 05 32 90 11 00 	movzx  eax,WORD PTR ds:0x119032
  102a57:	0f b7 c0             	movzx  eax,ax
  102a5a:	39 45 fc             	cmp    DWORD PTR [ebp-0x4],eax
  102a5d:	7c 87                	jl     0x1029e6
  102a5f:	eb 01                	jmp    0x102a62
  102a61:	90                   	nop
  102a62:	c9                   	leave
  102a63:	c3                   	ret
  102a64:	55                   	push   ebp
  102a65:	89 e5                	mov    ebp,esp
  102a67:	83 ec 10             	sub    esp,0x10
  102a6a:	a1 2c 90 11 00       	mov    eax,ds:0x11902c
  102a6f:	85 c0                	test   eax,eax
  102a71:	0f 84 2a 01 00 00    	je     0x102ba1
  102a77:	8b 45 08             	mov    eax,DWORD PTR [ebp+0x8]
  102a7a:	89 45 fc             	mov    DWORD PTR [ebp-0x4],eax
  102a7d:	eb 6c                	jmp    0x102aeb
  102a7f:	83 7d fc 00          	cmp    DWORD PTR [ebp-0x4],0x0
  102a83:	78 62                	js     0x102ae7
  102a85:	83 7d 0c 00          	cmp    DWORD PTR [ebp+0xc],0x0
  102a89:	78 20                	js     0x102aab
  102a8b:	0f b7 05 32 90 11 00 	movzx  eax,WORD PTR ds:0x119032
  102a92:	0f b7 c0             	movzx  eax,ax
  102a95:	39 45 0c             	cmp    DWORD PTR [ebp+0xc],eax
  102a98:	7d 11                	jge    0x102aab
  102a9a:	ff 75 18             	push   DWORD PTR [ebp+0x18]
  102a9d:	ff 75 0c             	push   DWORD PTR [ebp+0xc]
  102aa0:	ff 75 fc             	push   DWORD PTR [ebp-0x4]
  102aa3:	e8 59 fc ff ff       	call   0x102701
  102aa8:	83 c4 0c             	add    esp,0xc
  102aab:	8b 55 0c             	mov    edx,DWORD PTR [ebp+0xc]
  102aae:	8b 45 14             	mov    eax,DWORD PTR [ebp+0x14]
  102ab1:	01 d0                	add    eax,edx
  102ab3:	85 c0                	test   eax,eax
  102ab5:	7e 30                	jle    0x102ae7
  102ab7:	8b 55 0c             	mov    edx,DWORD PTR [ebp+0xc]
  102aba:	8b 45 14             	mov    eax,DWORD PTR [ebp+0x14]
  102abd:	01 c2                	add    edx,eax
  102abf:	0f b7 05 32 90 11 00 	movzx  eax,WORD PTR ds:0x119032
  102ac6:	0f b7 c0             	movzx  eax,ax
  102ac9:	39 c2                	cmp    edx,eax
  102acb:	7f 1a                	jg     0x102ae7
  102acd:	8b 55 0c             	mov    edx,DWORD PTR [ebp+0xc]
  102ad0:	8b 45 14             	mov    eax,DWORD PTR [ebp+0x14]
  102ad3:	01 d0                	add    eax,edx
  102ad5:	83 e8 01             	sub    eax,0x1
  102ad8:	ff 75 18             	push   DWORD PTR [ebp+0x18]
  102adb:	50                   	push   eax
  102adc:	ff 75 fc             	push   DWORD PTR [ebp-0x4]
  102adf:	e8 1d fc ff ff       	call   0x102701
  102ae4:	83 c4 0c             	add    esp,0xc
  102ae7:	83 45 fc 01          	add    DWORD PTR [ebp-0x4],0x1
  102aeb:	8b 55 08             	mov    edx,DWORD PTR [ebp+0x8]
  102aee:	8b 45 10             	mov    eax,DWORD PTR [ebp+0x10]
  102af1:	01 d0                	add    eax,edx
  102af3:	39 45 fc             	cmp    DWORD PTR [ebp-0x4],eax
  102af6:	7d 13                	jge    0x102b0b
  102af8:	0f b7 05 30 90 11 00 	movzx  eax,WORD PTR ds:0x119030
  102aff:	0f b7 c0             	movzx  eax,ax
  102b02:	39 45 fc             	cmp    DWORD PTR [ebp-0x4],eax
  102b05:	0f 8c 74 ff ff ff    	jl     0x102a7f
  102b0b:	8b 45 0c             	mov    eax,DWORD PTR [ebp+0xc]
  102b0e:	89 45 f8             	mov    DWORD PTR [ebp-0x8],eax
  102b11:	eb 6c                	jmp    0x102b7f
  102b13:	83 7d f8 00          	cmp    DWORD PTR [ebp-0x8],0x0
  102b17:	78 62                	js     0x102b7b
  102b19:	83 7d 08 00          	cmp    DWORD PTR [ebp+0x8],0x0
  102b1d:	78 20                	js     0x102b3f
  102b1f:	0f b7 05 30 90 11 00 	movzx  eax,WORD PTR ds:0x119030
  102b26:	0f b7 c0             	movzx  eax,ax
  102b29:	39 45 08             	cmp    DWORD PTR [ebp+0x8],eax
  102b2c:	7d 11                	jge    0x102b3f
  102b2e:	ff 75 18             	push   DWORD PTR [ebp+0x18]
  102b31:	ff 75 f8             	push   DWORD PTR [ebp-0x8]
  102b34:	ff 75 08             	push   DWORD PTR [ebp+0x8]
  102b37:	e8 c5 fb ff ff       	call   0x102701
  102b3c:	83 c4 0c             	add    esp,0xc
  102b3f:	8b 55 08             	mov    edx,DWORD PTR [ebp+0x8]
  102b42:	8b 45 10             	mov    eax,DWORD PTR [ebp+0x10]
  102b45:	01 d0                	add    eax,edx
  102b47:	85 c0                	test   eax,eax
  102b49:	7e 30                	jle    0x102b7b
  102b4b:	8b 55 08             	mov    edx,DWORD PTR [ebp+0x8]
  102b4e:	8b 45 10             	mov    eax,DWORD PTR [ebp+0x10]
  102b51:	01 c2                	add    edx,eax
  102b53:	0f b7 05 30 90 11 00 	movzx  eax,WORD PTR ds:0x119030
  102b5a:	0f b7 c0             	movzx  eax,ax
  102b5d:	39 c2                	cmp    edx,eax
  102b5f:	7f 1a                	jg     0x102b7b
  102b61:	8b 55 08             	mov    edx,DWORD PTR [ebp+0x8]
  102b64:	8b 45 10             	mov    eax,DWORD PTR [ebp+0x10]
  102b67:	01 d0                	add    eax,edx
  102b69:	83 e8 01             	sub    eax,0x1
  102b6c:	ff 75 18             	push   DWORD PTR [ebp+0x18]
  102b6f:	ff 75 f8             	push   DWORD PTR [ebp-0x8]
  102b72:	50                   	push   eax
  102b73:	e8 89 fb ff ff       	call   0x102701
  102b78:	83 c4 0c             	add    esp,0xc
  102b7b:	83 45 f8 01          	add    DWORD PTR [ebp-0x8],0x1
  102b7f:	8b 55 0c             	mov    edx,DWORD PTR [ebp+0xc]
  102b82:	8b 45 14             	mov    eax,DWORD PTR [ebp+0x14]
  102b85:	01 d0                	add    eax,edx
  102b87:	39 45 f8             	cmp    DWORD PTR [ebp-0x8],eax
  102b8a:	7d 16                	jge    0x102ba2
  102b8c:	0f b7 05 32 90 11 00 	movzx  eax,WORD PTR ds:0x119032
  102b93:	0f b7 c0             	movzx  eax,ax
  102b96:	39 45 f8             	cmp    DWORD PTR [ebp-0x8],eax
  102b99:	0f 8c 74 ff ff ff    	jl     0x102b13
  102b9f:	eb 01                	jmp    0x102ba2
  102ba1:	90                   	nop
  102ba2:	c9                   	leave
  102ba3:	c3                   	ret
  102ba4:	55                   	push   ebp
  102ba5:	89 e5                	mov    ebp,esp
  102ba7:	83 ec 30             	sub    esp,0x30
  102baa:	a1 2c 90 11 00       	mov    eax,ds:0x11902c
  102baf:	85 c0                	test   eax,eax
  102bb1:	0f 84 e2 01 00 00    	je     0x102d99
  102bb7:	83 7d 10 00          	cmp    DWORD PTR [ebp+0x10],0x0
  102bbb:	0f 84 d8 01 00 00    	je     0x102d99
  102bc1:	8b 45 10             	mov    eax,DWORD PTR [ebp+0x10]
  102bc4:	0f b6 00             	movzx  eax,BYTE PTR [eax]
  102bc7:	3c 42                	cmp    al,0x42
  102bc9:	75 0d                	jne    0x102bd8
  102bcb:	8b 45 10             	mov    eax,DWORD PTR [ebp+0x10]
  102bce:	83 c0 01             	add    eax,0x1
  102bd1:	0f b6 00             	movzx  eax,BYTE PTR [eax]
  102bd4:	3c 4d                	cmp    al,0x4d
  102bd6:	74 1c                	je     0x102bf4
  102bd8:	68 00 00 ff 00       	push   0xff0000
  102bdd:	6a 20                	push   0x20
  102bdf:	6a 20                	push   0x20
  102be1:	ff 75 0c             	push   DWORD PTR [ebp+0xc]
  102be4:	ff 75 08             	push   DWORD PTR [ebp+0x8]
  102be7:	e8 d4 fd ff ff       	call   0x1029c0
  102bec:	83 c4 14             	add    esp,0x14
  102bef:	e9 a6 01 00 00       	jmp    0x102d9a
  102bf4:	8b 45 10             	mov    eax,DWORD PTR [ebp+0x10]
  102bf7:	83 c0 12             	add    eax,0x12
  102bfa:	0f b6 00             	movzx  eax,BYTE PTR [eax]
  102bfd:	0f b6 c0             	movzx  eax,al
  102c00:	8b 55 10             	mov    edx,DWORD PTR [ebp+0x10]
  102c03:	83 c2 13             	add    edx,0x13
  102c06:	0f b6 12             	movzx  edx,BYTE PTR [edx]
  102c09:	0f b6 d2             	movzx  edx,dl
  102c0c:	c1 e2 08             	shl    edx,0x8
  102c0f:	09 c2                	or     edx,eax
  102c11:	8b 45 10             	mov    eax,DWORD PTR [ebp+0x10]
  102c14:	83 c0 14             	add    eax,0x14
  102c17:	0f b6 00             	movzx  eax,BYTE PTR [eax]
  102c1a:	0f b6 c0             	movzx  eax,al
  102c1d:	c1 e0 10             	shl    eax,0x10
  102c20:	09 c2                	or     edx,eax
  102c22:	8b 45 10             	mov    eax,DWORD PTR [ebp+0x10]
  102c25:	83 c0 15             	add    eax,0x15
  102c28:	0f b6 00             	movzx  eax,BYTE PTR [eax]
  102c2b:	0f b6 c0             	movzx  eax,al
  102c2e:	c1 e0 18             	shl    eax,0x18
  102c31:	09 d0                	or     eax,edx
  102c33:	89 45 f4             	mov    DWORD PTR [ebp-0xc],eax
  102c36:	8b 45 10             	mov    eax,DWORD PTR [ebp+0x10]
  102c39:	83 c0 16             	add    eax,0x16
  102c3c:	0f b6 00             	movzx  eax,BYTE PTR [eax]
  102c3f:	0f b6 c0             	movzx  eax,al
  102c42:	8b 55 10             	mov    edx,DWORD PTR [ebp+0x10]
  102c45:	83 c2 17             	add    edx,0x17
  102c48:	0f b6 12             	movzx  edx,BYTE PTR [edx]
  102c4b:	0f b6 d2             	movzx  edx,dl
  102c4e:	c1 e2 08             	shl    edx,0x8
  102c51:	09 c2                	or     edx,eax
  102c53:	8b 45 10             	mov    eax,DWORD PTR [ebp+0x10]
  102c56:	83 c0 18             	add    eax,0x18
  102c59:	0f b6 00             	movzx  eax,BYTE PTR [eax]
  102c5c:	0f b6 c0             	movzx  eax,al
  102c5f:	c1 e0 10             	shl    eax,0x10
  102c62:	09 c2                	or     edx,eax
  102c64:	8b 45 10             	mov    eax,DWORD PTR [ebp+0x10]
  102c67:	83 c0 19             	add    eax,0x19
  102c6a:	0f b6 00             	movzx  eax,BYTE PTR [eax]
  102c6d:	0f b6 c0             	movzx  eax,al
  102c70:	c1 e0 18             	shl    eax,0x18
  102c73:	09 d0                	or     eax,edx
  102c75:	89 45 f0             	mov    DWORD PTR [ebp-0x10],eax
  102c78:	81 7d f4 80 00 00 00 	cmp    DWORD PTR [ebp-0xc],0x80
  102c7f:	77 15                	ja     0x102c96
  102c81:	81 7d f0 80 00 00 00 	cmp    DWORD PTR [ebp-0x10],0x80
  102c88:	77 0c                	ja     0x102c96
  102c8a:	83 7d f4 00          	cmp    DWORD PTR [ebp-0xc],0x0
  102c8e:	74 06                	je     0x102c96
  102c90:	83 7d f0 00          	cmp    DWORD PTR [ebp-0x10],0x0
  102c94:	75 1c                	jne    0x102cb2
  102c96:	68 00 ff ff 00       	push   0xffff00
  102c9b:	6a 20                	push   0x20
  102c9d:	6a 20                	push   0x20
  102c9f:	ff 75 0c             	push   DWORD PTR [ebp+0xc]
  102ca2:	ff 75 08             	push   DWORD PTR [ebp+0x8]
  102ca5:	e8 16 fd ff ff       	call   0x1029c0
  102caa:	83 c4 14             	add    esp,0x14
  102cad:	e9 e8 00 00 00       	jmp    0x102d9a
  102cb2:	8b 45 10             	mov    eax,DWORD PTR [ebp+0x10]
  102cb5:	83 c0 36             	add    eax,0x36
  102cb8:	89 45 ec             	mov    DWORD PTR [ebp-0x14],eax
  102cbb:	c7 45 fc 00 00 00 00 	mov    DWORD PTR [ebp-0x4],0x0
  102cc2:	e9 c4 00 00 00       	jmp    0x102d8b
  102cc7:	c7 45 f8 00 00 00 00 	mov    DWORD PTR [ebp-0x8],0x0
  102cce:	e9 a8 00 00 00       	jmp    0x102d7b
  102cd3:	8b 45 f0             	mov    eax,DWORD PTR [ebp-0x10]
  102cd6:	2b 45 fc             	sub    eax,DWORD PTR [ebp-0x4]
  102cd9:	83 e8 01             	sub    eax,0x1
  102cdc:	89 45 e8             	mov    DWORD PTR [ebp-0x18],eax
  102cdf:	8b 45 e8             	mov    eax,DWORD PTR [ebp-0x18]
  102ce2:	0f af 45 f4          	imul   eax,DWORD PTR [ebp-0xc]
  102ce6:	89 c2                	mov    edx,eax
  102ce8:	8b 45 f8             	mov    eax,DWORD PTR [ebp-0x8]
  102ceb:	01 d0                	add    eax,edx
  102ced:	c1 e0 02             	shl    eax,0x2
  102cf0:	89 45 e4             	mov    DWORD PTR [ebp-0x1c],eax
  102cf3:	8b 55 ec             	mov    edx,DWORD PTR [ebp-0x14]
  102cf6:	8b 45 e4             	mov    eax,DWORD PTR [ebp-0x1c]
  102cf9:	01 d0                	add    eax,edx
  102cfb:	0f b6 00             	movzx  eax,BYTE PTR [eax]
  102cfe:	88 45 e3             	mov    BYTE PTR [ebp-0x1d],al
  102d01:	8b 45 e4             	mov    eax,DWORD PTR [ebp-0x1c]
  102d04:	8d 50 01             	lea    edx,[eax+0x1]
  102d07:	8b 45 ec             	mov    eax,DWORD PTR [ebp-0x14]
  102d0a:	01 d0                	add    eax,edx
  102d0c:	0f b6 00             	movzx  eax,BYTE PTR [eax]
  102d0f:	88 45 e2             	mov    BYTE PTR [ebp-0x1e],al
  102d12:	8b 45 e4             	mov    eax,DWORD PTR [ebp-0x1c]
  102d15:	8d 50 02             	lea    edx,[eax+0x2]
  102d18:	8b 45 ec             	mov    eax,DWORD PTR [ebp-0x14]
  102d1b:	01 d0                	add    eax,edx
  102d1d:	0f b6 00             	movzx  eax,BYTE PTR [eax]
  102d20:	88 45 e1             	mov    BYTE PTR [ebp-0x1f],al
  102d23:	8b 45 e4             	mov    eax,DWORD PTR [ebp-0x1c]
  102d26:	8d 50 03             	lea    edx,[eax+0x3]
  102d29:	8b 45 ec             	mov    eax,DWORD PTR [ebp-0x14]
  102d2c:	01 d0                	add    eax,edx
  102d2e:	0f b6 00             	movzx  eax,BYTE PTR [eax]
  102d31:	88 45 e0             	mov    BYTE PTR [ebp-0x20],al
  102d34:	80 7d e0 00          	cmp    BYTE PTR [ebp-0x20],0x0
  102d38:	74 3c                	je     0x102d76
  102d3a:	0f b6 45 e1          	movzx  eax,BYTE PTR [ebp-0x1f]
  102d3e:	c1 e0 10             	shl    eax,0x10
  102d41:	89 c2                	mov    edx,eax
  102d43:	0f b6 45 e2          	movzx  eax,BYTE PTR [ebp-0x1e]
  102d47:	c1 e0 08             	shl    eax,0x8
  102d4a:	09 c2                	or     edx,eax
  102d4c:	0f b6 45 e3          	movzx  eax,BYTE PTR [ebp-0x1d]
  102d50:	09 d0                	or     eax,edx
  102d52:	89 45 dc             	mov    DWORD PTR [ebp-0x24],eax
  102d55:	8b 55 0c             	mov    edx,DWORD PTR [ebp+0xc]
  102d58:	8b 45 fc             	mov    eax,DWORD PTR [ebp-0x4]
  102d5b:	01 d0                	add    eax,edx
  102d5d:	89 c1                	mov    ecx,eax
  102d5f:	8b 55 08             	mov    edx,DWORD PTR [ebp+0x8]
  102d62:	8b 45 f8             	mov    eax,DWORD PTR [ebp-0x8]
  102d65:	01 d0                	add    eax,edx
  102d67:	ff 75 dc             	push   DWORD PTR [ebp-0x24]
  102d6a:	51                   	push   ecx
  102d6b:	50                   	push   eax
  102d6c:	e8 90 f9 ff ff       	call   0x102701
  102d71:	83 c4 0c             	add    esp,0xc
  102d74:	eb 01                	jmp    0x102d77
  102d76:	90                   	nop
  102d77:	83 45 f8 01          	add    DWORD PTR [ebp-0x8],0x1
  102d7b:	8b 45 f8             	mov    eax,DWORD PTR [ebp-0x8]
  102d7e:	3b 45 f4             	cmp    eax,DWORD PTR [ebp-0xc]
  102d81:	0f 82 4c ff ff ff    	jb     0x102cd3
  102d87:	83 45 fc 01          	add    DWORD PTR [ebp-0x4],0x1
  102d8b:	8b 45 fc             	mov    eax,DWORD PTR [ebp-0x4]
  102d8e:	3b 45 f0             	cmp    eax,DWORD PTR [ebp-0x10]
  102d91:	0f 82 30 ff ff ff    	jb     0x102cc7
  102d97:	eb 01                	jmp    0x102d9a
  102d99:	90                   	nop
  102d9a:	c9                   	leave
  102d9b:	c3                   	ret
  102d9c:	55                   	push   ebp
  102d9d:	89 e5                	mov    ebp,esp
  102d9f:	83 ec 14             	sub    esp,0x14
  102da2:	8b 45 08             	mov    eax,DWORD PTR [ebp+0x8]
  102da5:	66 89 45 ec          	mov    WORD PTR [ebp-0x14],ax
  102da9:	0f b7 45 ec          	movzx  eax,WORD PTR [ebp-0x14]
  102dad:	89 c2                	mov    edx,eax
  102daf:	ec                   	in     al,dx
  102db0:	88 45 ff             	mov    BYTE PTR [ebp-0x1],al
  102db3:	0f b6 45 ff          	movzx  eax,BYTE PTR [ebp-0x1]
  102db7:	c9                   	leave
  102db8:	c3                   	ret
  102db9:	55                   	push   ebp
  102dba:	89 e5                	mov    ebp,esp
  102dbc:	83 ec 08             	sub    esp,0x8
  102dbf:	8b 55 08             	mov    edx,DWORD PTR [ebp+0x8]
  102dc2:	8b 45 0c             	mov    eax,DWORD PTR [ebp+0xc]
  102dc5:	66 89 55 fc          	mov    WORD PTR [ebp-0x4],dx
  102dc9:	88 45 f8             	mov    BYTE PTR [ebp-0x8],al
  102dcc:	0f b6 45 f8          	movzx  eax,BYTE PTR [ebp-0x8]
  102dd0:	0f b7 55 fc          	movzx  edx,WORD PTR [ebp-0x4]
  102dd4:	ee                   	out    dx,al
  102dd5:	90                   	nop
  102dd6:	c9                   	leave
  102dd7:	c3                   	ret
  102dd8:	55                   	push   ebp
  102dd9:	89 e5                	mov    ebp,esp
  102ddb:	83 ec 04             	sub    esp,0x4
  102dde:	8b 45 08             	mov    eax,DWORD PTR [ebp+0x8]
  102de1:	88 45 fc             	mov    BYTE PTR [ebp-0x4],al
  102de4:	90                   	nop
  102de5:	68 fd 03 00 00       	push   0x3fd
  102dea:	e8 ad ff ff ff       	call   0x102d9c
  102def:	83 c4 04             	add    esp,0x4
  102df2:	0f b6 c0             	movzx  eax,al
  102df5:	83 e0 20             	and    eax,0x20
  102df8:	85 c0                	test   eax,eax
  102dfa:	74 e9                	je     0x102de5
  102dfc:	0f b6 45 fc          	movzx  eax,BYTE PTR [ebp-0x4]
  102e00:	0f b6 c0             	movzx  eax,al
  102e03:	50                   	push   eax
  102e04:	68 f8 03 00 00       	push   0x3f8
  102e09:	e8 ab ff ff ff       	call   0x102db9
  102e0e:	83 c4 08             	add    esp,0x8
  102e11:	90                   	nop
  102e12:	c9                   	leave
  102e13:	c3                   	ret
  102e14:	55                   	push   ebp
  102e15:	89 e5                	mov    ebp,esp
  102e17:	eb 2c                	jmp    0x102e45
  102e19:	8b 45 08             	mov    eax,DWORD PTR [ebp+0x8]
  102e1c:	0f b6 00             	movzx  eax,BYTE PTR [eax]
  102e1f:	3c 0a                	cmp    al,0xa
  102e21:	75 0a                	jne    0x102e2d
  102e23:	6a 0d                	push   0xd
  102e25:	e8 ae ff ff ff       	call   0x102dd8
  102e2a:	83 c4 04             	add    esp,0x4
  102e2d:	8b 45 08             	mov    eax,DWORD PTR [ebp+0x8]
  102e30:	8d 50 01             	lea    edx,[eax+0x1]
  102e33:	89 55 08             	mov    DWORD PTR [ebp+0x8],edx
  102e36:	0f b6 00             	movzx  eax,BYTE PTR [eax]
  102e39:	0f be c0             	movsx  eax,al
  102e3c:	50                   	push   eax
  102e3d:	e8 96 ff ff ff       	call   0x102dd8
  102e42:	83 c4 04             	add    esp,0x4
  102e45:	8b 45 08             	mov    eax,DWORD PTR [ebp+0x8]
  102e48:	0f b6 00             	movzx  eax,BYTE PTR [eax]
  102e4b:	84 c0                	test   al,al
  102e4d:	75 ca                	jne    0x102e19
  102e4f:	90                   	nop
  102e50:	90                   	nop
  102e51:	c9                   	leave
  102e52:	c3                   	ret
  102e53:	55                   	push   ebp
  102e54:	89 e5                	mov    ebp,esp
  102e56:	83 ec 24             	sub    esp,0x24
  102e59:	8b 45 08             	mov    eax,DWORD PTR [ebp+0x8]
  102e5c:	88 45 dc             	mov    BYTE PTR [ebp-0x24],al
  102e5f:	c7 45 ef 30 31 32 33 	mov    DWORD PTR [ebp-0x11],0x33323130
  102e66:	c7 45 f3 34 35 36 37 	mov    DWORD PTR [ebp-0xd],0x37363534
  102e6d:	c7 45 f7 38 39 41 42 	mov    DWORD PTR [ebp-0x9],0x42413938
  102e74:	c7 45 fb 43 44 45 46 	mov    DWORD PTR [ebp-0x5],0x46454443
  102e7b:	c6 45 ff 00          	mov    BYTE PTR [ebp-0x1],0x0
  102e7f:	0f b6 45 dc          	movzx  eax,BYTE PTR [ebp-0x24]
  102e83:	c0 e8 04             	shr    al,0x4
  102e86:	0f b6 c0             	movzx  eax,al
  102e89:	0f b6 44 05 ef       	movzx  eax,BYTE PTR [ebp+eax*1-0x11]
  102e8e:	0f be c0             	movsx  eax,al
  102e91:	50                   	push   eax
  102e92:	e8 41 ff ff ff       	call   0x102dd8
  102e97:	83 c4 04             	add    esp,0x4
  102e9a:	0f b6 45 dc          	movzx  eax,BYTE PTR [ebp-0x24]
  102e9e:	83 e0 0f             	and    eax,0xf
  102ea1:	0f b6 44 05 ef       	movzx  eax,BYTE PTR [ebp+eax*1-0x11]
  102ea6:	0f be c0             	movsx  eax,al
  102ea9:	50                   	push   eax
  102eaa:	e8 29 ff ff ff       	call   0x102dd8
  102eaf:	83 c4 04             	add    esp,0x4
  102eb2:	90                   	nop
  102eb3:	c9                   	leave
  102eb4:	c3                   	ret
  102eb5:	55                   	push   ebp
  102eb6:	89 e5                	mov    ebp,esp
  102eb8:	83 ec 10             	sub    esp,0x10
  102ebb:	c7 45 fc 00 00 00 00 	mov    DWORD PTR [ebp-0x4],0x0
  102ec2:	eb 18                	jmp    0x102edc
  102ec4:	6a 64                	push   0x64
  102ec6:	e8 d1 fe ff ff       	call   0x102d9c
  102ecb:	83 c4 04             	add    esp,0x4
  102ece:	0f b6 c0             	movzx  eax,al
  102ed1:	83 e0 02             	and    eax,0x2
  102ed4:	85 c0                	test   eax,eax
  102ed6:	74 0f                	je     0x102ee7
  102ed8:	83 45 fc 01          	add    DWORD PTR [ebp-0x4],0x1
  102edc:	81 7d fc e7 03 00 00 	cmp    DWORD PTR [ebp-0x4],0x3e7
  102ee3:	7e df                	jle    0x102ec4
  102ee5:	eb 01                	jmp    0x102ee8
  102ee7:	90                   	nop
  102ee8:	c9                   	leave
  102ee9:	c3                   	ret
  102eea:	55                   	push   ebp
  102eeb:	89 e5                	mov    ebp,esp
  102eed:	83 ec 10             	sub    esp,0x10
  102ef0:	c7 45 fc 00 00 00 00 	mov    DWORD PTR [ebp-0x4],0x0
  102ef7:	eb 18                	jmp    0x102f11
  102ef9:	6a 64                	push   0x64
  102efb:	e8 9c fe ff ff       	call   0x102d9c
  102f00:	83 c4 04             	add    esp,0x4
  102f03:	0f b6 c0             	movzx  eax,al
  102f06:	83 e0 01             	and    eax,0x1
  102f09:	85 c0                	test   eax,eax
  102f0b:	75 0f                	jne    0x102f1c
  102f0d:	83 45 fc 01          	add    DWORD PTR [ebp-0x4],0x1
  102f11:	81 7d fc e7 03 00 00 	cmp    DWORD PTR [ebp-0x4],0x3e7
  102f18:	7e df                	jle    0x102ef9
  102f1a:	eb 01                	jmp    0x102f1d
  102f1c:	90                   	nop
  102f1d:	c9                   	leave
  102f1e:	c3                   	ret
  102f1f:	55                   	push   ebp
  102f20:	89 e5                	mov    ebp,esp
  102f22:	83 ec 30             	sub    esp,0x30
  102f25:	c7 05 40 90 11 00 40 	mov    DWORD PTR ds:0x119040,0x140
  102f2c:	01 00 00 
  102f2f:	c7 05 44 90 11 00 f0 	mov    DWORD PTR ds:0x119044,0xf0
  102f36:	00 00 00 
  102f39:	c7 05 48 90 11 00 00 	mov    DWORD PTR ds:0x119048,0x0
  102f40:	00 00 00 
  102f43:	c7 05 4c 90 11 00 00 	mov    DWORD PTR ds:0x11904c,0x0
  102f4a:	00 00 00 
  102f4d:	c7 05 54 90 11 00 00 	mov    DWORD PTR ds:0x119054,0x0
  102f54:	00 00 00 
  102f57:	c7 05 58 90 11 00 00 	mov    DWORD PTR ds:0x119058,0x0
  102f5e:	00 00 00 
  102f61:	c6 45 ff 47          	mov    BYTE PTR [ebp-0x1],0x47
  102f65:	6a 20                	push   0x20
  102f67:	6a 64                	push   0x64
  102f69:	e8 4b fe ff ff       	call   0x102db9
  102f6e:	83 c4 08             	add    esp,0x8
  102f71:	c7 45 f8 00 00 00 00 	mov    DWORD PTR [ebp-0x8],0x0
  102f78:	eb 2b                	jmp    0x102fa5
  102f7a:	6a 64                	push   0x64
  102f7c:	e8 1b fe ff ff       	call   0x102d9c
  102f81:	83 c4 04             	add    esp,0x4
  102f84:	88 45 d3             	mov    BYTE PTR [ebp-0x2d],al
  102f87:	0f b6 45 d3          	movzx  eax,BYTE PTR [ebp-0x2d]
  102f8b:	83 e0 01             	and    eax,0x1
  102f8e:	85 c0                	test   eax,eax
  102f90:	74 0f                	je     0x102fa1
  102f92:	6a 60                	push   0x60
  102f94:	e8 03 fe ff ff       	call   0x102d9c
  102f99:	83 c4 04             	add    esp,0x4
  102f9c:	88 45 ff             	mov    BYTE PTR [ebp-0x1],al
  102f9f:	eb 0d                	jmp    0x102fae
  102fa1:	83 45 f8 01          	add    DWORD PTR [ebp-0x8],0x1
  102fa5:	81 7d f8 0f 27 00 00 	cmp    DWORD PTR [ebp-0x8],0x270f
  102fac:	7e cc                	jle    0x102f7a
  102fae:	80 4d ff 20          	or     BYTE PTR [ebp-0x1],0x20
  102fb2:	6a 60                	push   0x60
  102fb4:	6a 64                	push   0x64
  102fb6:	e8 fe fd ff ff       	call   0x102db9
  102fbb:	83 c4 08             	add    esp,0x8
  102fbe:	c7 45 f4 00 00 00 00 	mov    DWORD PTR [ebp-0xc],0x0
  102fc5:	eb 1c                	jmp    0x102fe3
  102fc7:	6a 64                	push   0x64
  102fc9:	e8 ce fd ff ff       	call   0x102d9c
  102fce:	83 c4 04             	add    esp,0x4
  102fd1:	88 45 d3             	mov    BYTE PTR [ebp-0x2d],al
  102fd4:	0f b6 45 d3          	movzx  eax,BYTE PTR [ebp-0x2d]
  102fd8:	83 e0 02             	and    eax,0x2
  102fdb:	85 c0                	test   eax,eax
  102fdd:	74 0f                	je     0x102fee
  102fdf:	83 45 f4 01          	add    DWORD PTR [ebp-0xc],0x1
  102fe3:	81 7d f4 0f 27 00 00 	cmp    DWORD PTR [ebp-0xc],0x270f
  102fea:	7e db                	jle    0x102fc7
  102fec:	eb 01                	jmp    0x102fef
  102fee:	90                   	nop
  102fef:	0f b6 45 ff          	movzx  eax,BYTE PTR [ebp-0x1]
  102ff3:	50                   	push   eax
  102ff4:	6a 60                	push   0x60
  102ff6:	e8 be fd ff ff       	call   0x102db9
  102ffb:	83 c4 08             	add    esp,0x8
  102ffe:	68 d4 00 00 00       	push   0xd4
  103003:	6a 64                	push   0x64
  103005:	e8 af fd ff ff       	call   0x102db9
  10300a:	83 c4 08             	add    esp,0x8
  10300d:	68 f3 00 00 00       	push   0xf3
  103012:	6a 60                	push   0x60
  103014:	e8 a0 fd ff ff       	call   0x102db9
  103019:	83 c4 08             	add    esp,0x8
  10301c:	c7 45 f0 00 00 00 00 	mov    DWORD PTR [ebp-0x10],0x0
  103023:	eb 28                	jmp    0x10304d
  103025:	6a 64                	push   0x64
  103027:	e8 70 fd ff ff       	call   0x102d9c
  10302c:	83 c4 04             	add    esp,0x4
  10302f:	88 45 d3             	mov    BYTE PTR [ebp-0x2d],al
  103032:	0f b6 45 d3          	movzx  eax,BYTE PTR [ebp-0x2d]
  103036:	83 e0 01             	and    eax,0x1
  103039:	85 c0                	test   eax,eax
  10303b:	74 0c                	je     0x103049
  10303d:	6a 60                	push   0x60
  10303f:	e8 58 fd ff ff       	call   0x102d9c
  103044:	83 c4 04             	add    esp,0x4
  103047:	eb 0d                	jmp    0x103056
  103049:	83 45 f0 01          	add    DWORD PTR [ebp-0x10],0x1
  10304d:	81 7d f0 0f 27 00 00 	cmp    DWORD PTR [ebp-0x10],0x270f
  103054:	7e cf                	jle    0x103025
  103056:	68 d4 00 00 00       	push   0xd4
  10305b:	6a 64                	push   0x64
  10305d:	e8 57 fd ff ff       	call   0x102db9
  103062:	83 c4 08             	add    esp,0x8
  103065:	6a 28                	push   0x28
  103067:	6a 60                	push   0x60
  103069:	e8 4b fd ff ff       	call   0x102db9
  10306e:	83 c4 08             	add    esp,0x8
  103071:	c7 45 ec 00 00 00 00 	mov    DWORD PTR [ebp-0x14],0x0
  103078:	eb 28                	jmp    0x1030a2
  10307a:	6a 64                	push   0x64
  10307c:	e8 1b fd ff ff       	call   0x102d9c
  103081:	83 c4 04             	add    esp,0x4
  103084:	88 45 d3             	mov    BYTE PTR [ebp-0x2d],al
  103087:	0f b6 45 d3          	movzx  eax,BYTE PTR [ebp-0x2d]
  10308b:	83 e0 01             	and    eax,0x1
  10308e:	85 c0                	test   eax,eax
  103090:	74 0c                	je     0x10309e
  103092:	6a 60                	push   0x60
  103094:	e8 03 fd ff ff       	call   0x102d9c
  103099:	83 c4 04             	add    esp,0x4
  10309c:	eb 0d                	jmp    0x1030ab
  10309e:	83 45 ec 01          	add    DWORD PTR [ebp-0x14],0x1
  1030a2:	81 7d ec 0f 27 00 00 	cmp    DWORD PTR [ebp-0x14],0x270f
  1030a9:	7e cf                	jle    0x10307a
  1030ab:	68 d4 00 00 00       	push   0xd4
  1030b0:	6a 64                	push   0x64
  1030b2:	e8 02 fd ff ff       	call   0x102db9
  1030b7:	83 c4 08             	add    esp,0x8
  1030ba:	68 e8 00 00 00       	push   0xe8
  1030bf:	6a 60                	push   0x60
  1030c1:	e8 f3 fc ff ff       	call   0x102db9
  1030c6:	83 c4 08             	add    esp,0x8
  1030c9:	c7 45 e8 00 00 00 00 	mov    DWORD PTR [ebp-0x18],0x0
  1030d0:	eb 28                	jmp    0x1030fa
  1030d2:	6a 64                	push   0x64
  1030d4:	e8 c3 fc ff ff       	call   0x102d9c
  1030d9:	83 c4 04             	add    esp,0x4
  1030dc:	88 45 d3             	mov    BYTE PTR [ebp-0x2d],al
  1030df:	0f b6 45 d3          	movzx  eax,BYTE PTR [ebp-0x2d]
  1030e3:	83 e0 01             	and    eax,0x1
  1030e6:	85 c0                	test   eax,eax
  1030e8:	74 0c                	je     0x1030f6
  1030ea:	6a 60                	push   0x60
  1030ec:	e8 ab fc ff ff       	call   0x102d9c
  1030f1:	83 c4 04             	add    esp,0x4
  1030f4:	eb 0d                	jmp    0x103103
  1030f6:	83 45 e8 01          	add    DWORD PTR [ebp-0x18],0x1
  1030fa:	81 7d e8 0f 27 00 00 	cmp    DWORD PTR [ebp-0x18],0x270f
  103101:	7e cf                	jle    0x1030d2
  103103:	68 d4 00 00 00       	push   0xd4
  103108:	6a 64                	push   0x64
  10310a:	e8 aa fc ff ff       	call   0x102db9
  10310f:	83 c4 08             	add    esp,0x8
  103112:	6a 03                	push   0x3
  103114:	6a 60                	push   0x60
  103116:	e8 9e fc ff ff       	call   0x102db9
  10311b:	83 c4 08             	add    esp,0x8
  10311e:	c7 45 e4 00 00 00 00 	mov    DWORD PTR [ebp-0x1c],0x0
  103125:	eb 28                	jmp    0x10314f
  103127:	6a 64                	push   0x64
  103129:	e8 6e fc ff ff       	call   0x102d9c
  10312e:	83 c4 04             	add    esp,0x4
  103131:	88 45 d3             	mov    BYTE PTR [ebp-0x2d],al
  103134:	0f b6 45 d3          	movzx  eax,BYTE PTR [ebp-0x2d]
  103138:	83 e0 01             	and    eax,0x1
  10313b:	85 c0                	test   eax,eax
  10313d:	74 0c                	je     0x10314b
  10313f:	6a 60                	push   0x60
  103141:	e8 56 fc ff ff       	call   0x102d9c
  103146:	83 c4 04             	add    esp,0x4
  103149:	eb 0d                	jmp    0x103158
  10314b:	83 45 e4 01          	add    DWORD PTR [ebp-0x1c],0x1
  10314f:	81 7d e4 0f 27 00 00 	cmp    DWORD PTR [ebp-0x1c],0x270f
  103156:	7e cf                	jle    0x103127
  103158:	68 d4 00 00 00       	push   0xd4
  10315d:	6a 64                	push   0x64
  10315f:	e8 55 fc ff ff       	call   0x102db9
  103164:	83 c4 08             	add    esp,0x8
  103167:	68 ea 00 00 00       	push   0xea
  10316c:	6a 60                	push   0x60
  10316e:	e8 46 fc ff ff       	call   0x102db9
  103173:	83 c4 08             	add    esp,0x8
  103176:	c7 45 e0 00 00 00 00 	mov    DWORD PTR [ebp-0x20],0x0
  10317d:	eb 28                	jmp    0x1031a7
  10317f:	6a 64                	push   0x64
  103181:	e8 16 fc ff ff       	call   0x102d9c
  103186:	83 c4 04             	add    esp,0x4
  103189:	88 45 d3             	mov    BYTE PTR [ebp-0x2d],al
  10318c:	0f b6 45 d3          	movzx  eax,BYTE PTR [ebp-0x2d]
  103190:	83 e0 01             	and    eax,0x1
  103193:	85 c0                	test   eax,eax
  103195:	74 0c                	je     0x1031a3
  103197:	6a 60                	push   0x60
  103199:	e8 fe fb ff ff       	call   0x102d9c
  10319e:	83 c4 04             	add    esp,0x4
  1031a1:	eb 0d                	jmp    0x1031b0
  1031a3:	83 45 e0 01          	add    DWORD PTR [ebp-0x20],0x1
  1031a7:	81 7d e0 0f 27 00 00 	cmp    DWORD PTR [ebp-0x20],0x270f
  1031ae:	7e cf                	jle    0x10317f
  1031b0:	68 d4 00 00 00       	push   0xd4
  1031b5:	6a 64                	push   0x64
  1031b7:	e8 fd fb ff ff       	call   0x102db9
  1031bc:	83 c4 08             	add    esp,0x8
  1031bf:	68 f4 00 00 00       	push   0xf4
  1031c4:	6a 60                	push   0x60
  1031c6:	e8 ee fb ff ff       	call   0x102db9
  1031cb:	83 c4 08             	add    esp,0x8
  1031ce:	c6 45 df 00          	mov    BYTE PTR [ebp-0x21],0x0
  1031d2:	c7 45 d8 00 00 00 00 	mov    DWORD PTR [ebp-0x28],0x0
  1031d9:	eb 2b                	jmp    0x103206
  1031db:	6a 64                	push   0x64
  1031dd:	e8 ba fb ff ff       	call   0x102d9c
  1031e2:	83 c4 04             	add    esp,0x4
  1031e5:	88 45 d3             	mov    BYTE PTR [ebp-0x2d],al
  1031e8:	0f b6 45 d3          	movzx  eax,BYTE PTR [ebp-0x2d]
  1031ec:	83 e0 01             	and    eax,0x1
  1031ef:	85 c0                	test   eax,eax
  1031f1:	74 0f                	je     0x103202
  1031f3:	6a 60                	push   0x60
  1031f5:	e8 a2 fb ff ff       	call   0x102d9c
  1031fa:	83 c4 04             	add    esp,0x4
  1031fd:	88 45 df             	mov    BYTE PTR [ebp-0x21],al
  103200:	eb 0d                	jmp    0x10320f
  103202:	83 45 d8 01          	add    DWORD PTR [ebp-0x28],0x1
  103206:	81 7d d8 0f 27 00 00 	cmp    DWORD PTR [ebp-0x28],0x270f
  10320d:	7e cc                	jle    0x1031db
  10320f:	68 40 68 10 00       	push   0x106840
  103214:	e8 fb fb ff ff       	call   0x102e14
  103219:	83 c4 04             	add    esp,0x4
  10321c:	0f b6 45 df          	movzx  eax,BYTE PTR [ebp-0x21]
  103220:	50                   	push   eax
  103221:	e8 2d fc ff ff       	call   0x102e53
  103226:	83 c4 04             	add    esp,0x4
  103229:	68 64 68 10 00       	push   0x106864
  10322e:	e8 e1 fb ff ff       	call   0x102e14
  103233:	83 c4 04             	add    esp,0x4
  103236:	c7 45 d4 00 00 00 00 	mov    DWORD PTR [ebp-0x2c],0x0
  10323d:	eb 26                	jmp    0x103265
  10323f:	6a 64                	push   0x64
  103241:	e8 56 fb ff ff       	call   0x102d9c
  103246:	83 c4 04             	add    esp,0x4
  103249:	88 45 d3             	mov    BYTE PTR [ebp-0x2d],al
  10324c:	0f b6 45 d3          	movzx  eax,BYTE PTR [ebp-0x2d]
  103250:	83 e0 01             	and    eax,0x1
  103253:	85 c0                	test   eax,eax
  103255:	74 16                	je     0x10326d
  103257:	6a 60                	push   0x60
  103259:	e8 3e fb ff ff       	call   0x102d9c
  10325e:	83 c4 04             	add    esp,0x4
  103261:	83 45 d4 01          	add    DWORD PTR [ebp-0x2c],0x1
  103265:	83 7d d4 63          	cmp    DWORD PTR [ebp-0x2c],0x63
  103269:	7e d4                	jle    0x10323f
  10326b:	eb 01                	jmp    0x10326e
  10326d:	90                   	nop
  10326e:	c7 05 58 90 11 00 01 	mov    DWORD PTR ds:0x119058,0x1
  103275:	00 00 00 
  103278:	b8 01 00 00 00       	mov    eax,0x1
  10327d:	c9                   	leave
  10327e:	c3                   	ret
  10327f:	55                   	push   ebp
  103280:	89 e5                	mov    ebp,esp
  103282:	83 ec 10             	sub    esp,0x10
  103285:	a1 4c 90 11 00       	mov    eax,ds:0x11904c
  10328a:	83 c0 01             	add    eax,0x1
  10328d:	a3 4c 90 11 00       	mov    ds:0x11904c,eax
  103292:	6a 64                	push   0x64
  103294:	e8 03 fb ff ff       	call   0x102d9c
  103299:	83 c4 04             	add    esp,0x4
  10329c:	88 45 ff             	mov    BYTE PTR [ebp-0x1],al
  10329f:	0f b6 45 ff          	movzx  eax,BYTE PTR [ebp-0x1]
  1032a3:	83 e0 01             	and    eax,0x1
  1032a6:	85 c0                	test   eax,eax
  1032a8:	75 12                	jne    0x1032bc
  1032aa:	68 66 68 10 00       	push   0x106866
  1032af:	e8 60 fb ff ff       	call   0x102e14
  1032b4:	83 c4 04             	add    esp,0x4
  1032b7:	e9 c5 01 00 00       	jmp    0x103481
  1032bc:	6a 60                	push   0x60
  1032be:	e8 d9 fa ff ff       	call   0x102d9c
  1032c3:	83 c4 04             	add    esp,0x4
  1032c6:	88 45 fe             	mov    BYTE PTR [ebp-0x2],al
  1032c9:	0f b6 45 ff          	movzx  eax,BYTE PTR [ebp-0x1]
  1032cd:	83 e0 20             	and    eax,0x20
  1032d0:	85 c0                	test   eax,eax
  1032d2:	75 12                	jne    0x1032e6
  1032d4:	68 7c 68 10 00       	push   0x10687c
  1032d9:	e8 36 fb ff ff       	call   0x102e14
  1032de:	83 c4 04             	add    esp,0x4
  1032e1:	e9 9b 01 00 00       	jmp    0x103481
  1032e6:	a1 58 90 11 00       	mov    eax,ds:0x119058
  1032eb:	85 c0                	test   eax,eax
  1032ed:	0f 84 8a 01 00 00    	je     0x10347d
  1032f3:	a1 48 90 11 00       	mov    eax,ds:0x119048
  1032f8:	83 c0 01             	add    eax,0x1
  1032fb:	a3 48 90 11 00       	mov    ds:0x119048,eax
  103300:	a1 54 90 11 00       	mov    eax,ds:0x119054
  103305:	85 c0                	test   eax,eax
  103307:	75 0f                	jne    0x103318
  103309:	0f b6 45 fe          	movzx  eax,BYTE PTR [ebp-0x2]
  10330d:	83 e0 08             	and    eax,0x8
  103310:	85 c0                	test   eax,eax
  103312:	0f 84 68 01 00 00    	je     0x103480
  103318:	a1 54 90 11 00       	mov    eax,ds:0x119054
  10331d:	8d 50 01             	lea    edx,[eax+0x1]
  103320:	89 15 54 90 11 00    	mov    DWORD PTR ds:0x119054,edx
  103326:	0f b6 55 fe          	movzx  edx,BYTE PTR [ebp-0x2]
  10332a:	88 90 50 90 11 00    	mov    BYTE PTR [eax+0x119050],dl
  103330:	a1 54 90 11 00       	mov    eax,ds:0x119054
  103335:	83 f8 03             	cmp    eax,0x3
  103338:	0f 85 43 01 00 00    	jne    0x103481
  10333e:	0f b6 05 51 90 11 00 	movzx  eax,BYTE PTR ds:0x119051
  103345:	88 45 fd             	mov    BYTE PTR [ebp-0x3],al
  103348:	0f b6 05 52 90 11 00 	movzx  eax,BYTE PTR ds:0x119052
  10334f:	88 45 fc             	mov    BYTE PTR [ebp-0x4],al
  103352:	0f be 55 fd          	movsx  edx,BYTE PTR [ebp-0x3]
  103356:	a1 40 90 11 00       	mov    eax,ds:0x119040
  10335b:	01 d0                	add    eax,edx
  10335d:	a3 40 90 11 00       	mov    ds:0x119040,eax
  103362:	8b 15 44 90 11 00    	mov    edx,DWORD PTR ds:0x119044
  103368:	0f be 45 fc          	movsx  eax,BYTE PTR [ebp-0x4]
  10336c:	29 c2                	sub    edx,eax
  10336e:	89 15 44 90 11 00    	mov    DWORD PTR ds:0x119044,edx
  103374:	a1 40 90 11 00       	mov    eax,ds:0x119040
  103379:	85 c0                	test   eax,eax
  10337b:	79 0a                	jns    0x103387
  10337d:	c7 05 40 90 11 00 00 	mov    DWORD PTR ds:0x119040,0x0
  103384:	00 00 00 
  103387:	a1 40 90 11 00       	mov    eax,ds:0x119040
  10338c:	3d ff 03 00 00       	cmp    eax,0x3ff
  103391:	7e 0a                	jle    0x10339d
  103393:	c7 05 40 90 11 00 ff 	mov    DWORD PTR ds:0x119040,0x3ff
  10339a:	03 00 00 
  10339d:	a1 44 90 11 00       	mov    eax,ds:0x119044
  1033a2:	85 c0                	test   eax,eax
  1033a4:	79 0a                	jns    0x1033b0
  1033a6:	c7 05 44 90 11 00 00 	mov    DWORD PTR ds:0x119044,0x0
  1033ad:	00 00 00 
  1033b0:	a1 44 90 11 00       	mov    eax,ds:0x119044
  1033b5:	3d ff 02 00 00       	cmp    eax,0x2ff
  1033ba:	7e 0a                	jle    0x1033c6
  1033bc:	c7 05 44 90 11 00 ff 	mov    DWORD PTR ds:0x119044,0x2ff
  1033c3:	02 00 00 
  1033c6:	68 93 68 10 00       	push   0x106893
  1033cb:	e8 44 fa ff ff       	call   0x102e14
  1033d0:	83 c4 04             	add    esp,0x4
  1033d3:	0f b6 45 fd          	movzx  eax,BYTE PTR [ebp-0x3]
  1033d7:	0f b6 c0             	movzx  eax,al
  1033da:	50                   	push   eax
  1033db:	e8 73 fa ff ff       	call   0x102e53
  1033e0:	83 c4 04             	add    esp,0x4
  1033e3:	68 a7 68 10 00       	push   0x1068a7
  1033e8:	e8 27 fa ff ff       	call   0x102e14
  1033ed:	83 c4 04             	add    esp,0x4
  1033f0:	0f b6 45 fc          	movzx  eax,BYTE PTR [ebp-0x4]
  1033f4:	0f b6 c0             	movzx  eax,al
  1033f7:	50                   	push   eax
  1033f8:	e8 56 fa ff ff       	call   0x102e53
  1033fd:	83 c4 04             	add    esp,0x4
  103400:	68 ac 68 10 00       	push   0x1068ac
  103405:	e8 0a fa ff ff       	call   0x102e14
  10340a:	83 c4 04             	add    esp,0x4
  10340d:	a1 40 90 11 00       	mov    eax,ds:0x119040
  103412:	c1 f8 08             	sar    eax,0x8
  103415:	0f b6 c0             	movzx  eax,al
  103418:	50                   	push   eax
  103419:	e8 35 fa ff ff       	call   0x102e53
  10341e:	83 c4 04             	add    esp,0x4
  103421:	a1 40 90 11 00       	mov    eax,ds:0x119040
  103426:	0f b6 c0             	movzx  eax,al
  103429:	50                   	push   eax
  10342a:	e8 24 fa ff ff       	call   0x102e53
  10342f:	83 c4 04             	add    esp,0x4
  103432:	68 b9 68 10 00       	push   0x1068b9
  103437:	e8 d8 f9 ff ff       	call   0x102e14
  10343c:	83 c4 04             	add    esp,0x4
  10343f:	a1 44 90 11 00       	mov    eax,ds:0x119044
  103444:	c1 f8 08             	sar    eax,0x8
  103447:	0f b6 c0             	movzx  eax,al
  10344a:	50                   	push   eax
  10344b:	e8 03 fa ff ff       	call   0x102e53
  103450:	83 c4 04             	add    esp,0x4
  103453:	a1 44 90 11 00       	mov    eax,ds:0x119044
  103458:	0f b6 c0             	movzx  eax,al
  10345b:	50                   	push   eax
  10345c:	e8 f2 f9 ff ff       	call   0x102e53
  103461:	83 c4 04             	add    esp,0x4
  103464:	68 64 68 10 00       	push   0x106864
  103469:	e8 a6 f9 ff ff       	call   0x102e14
  10346e:	83 c4 04             	add    esp,0x4
  103471:	c7 05 54 90 11 00 00 	mov    DWORD PTR ds:0x119054,0x0
  103478:	00 00 00 
  10347b:	eb 04                	jmp    0x103481
  10347d:	90                   	nop
  10347e:	eb 01                	jmp    0x103481
  103480:	90                   	nop
  103481:	c9                   	leave
  103482:	c3                   	ret
  103483:	55                   	push   ebp
  103484:	89 e5                	mov    ebp,esp
  103486:	83 ec 30             	sub    esp,0x30
  103489:	c7 45 f8 00 00 00 00 	mov    DWORD PTR [ebp-0x8],0x0
  103490:	eb 26                	jmp    0x1034b8
  103492:	6a 64                	push   0x64
  103494:	e8 03 f9 ff ff       	call   0x102d9c
  103499:	83 c4 04             	add    esp,0x4
  10349c:	88 45 db             	mov    BYTE PTR [ebp-0x25],al
  10349f:	0f b6 45 db          	movzx  eax,BYTE PTR [ebp-0x25]
  1034a3:	83 e0 01             	and    eax,0x1
  1034a6:	85 c0                	test   eax,eax
  1034a8:	74 16                	je     0x1034c0
  1034aa:	6a 60                	push   0x60
  1034ac:	e8 eb f8 ff ff       	call   0x102d9c
  1034b1:	83 c4 04             	add    esp,0x4
  1034b4:	83 45 f8 01          	add    DWORD PTR [ebp-0x8],0x1
  1034b8:	83 7d f8 0f          	cmp    DWORD PTR [ebp-0x8],0xf
  1034bc:	7e d4                	jle    0x103492
  1034be:	eb 01                	jmp    0x1034c1
  1034c0:	90                   	nop
  1034c1:	c7 05 54 90 11 00 00 	mov    DWORD PTR ds:0x119054,0x0
  1034c8:	00 00 00 
  1034cb:	c6 45 ff 47          	mov    BYTE PTR [ebp-0x1],0x47
  1034cf:	6a 20                	push   0x20
  1034d1:	6a 64                	push   0x64
  1034d3:	e8 e1 f8 ff ff       	call   0x102db9
  1034d8:	83 c4 08             	add    esp,0x8
  1034db:	c7 45 f4 00 00 00 00 	mov    DWORD PTR [ebp-0xc],0x0
  1034e2:	eb 2b                	jmp    0x10350f
  1034e4:	6a 64                	push   0x64
  1034e6:	e8 b1 f8 ff ff       	call   0x102d9c
  1034eb:	83 c4 04             	add    esp,0x4
  1034ee:	88 45 db             	mov    BYTE PTR [ebp-0x25],al
  1034f1:	0f b6 45 db          	movzx  eax,BYTE PTR [ebp-0x25]
  1034f5:	83 e0 01             	and    eax,0x1
  1034f8:	85 c0                	test   eax,eax
  1034fa:	74 0f                	je     0x10350b
  1034fc:	6a 60                	push   0x60
  1034fe:	e8 99 f8 ff ff       	call   0x102d9c
  103503:	83 c4 04             	add    esp,0x4
  103506:	88 45 ff             	mov    BYTE PTR [ebp-0x1],al
  103509:	eb 0d                	jmp    0x103518
  10350b:	83 45 f4 01          	add    DWORD PTR [ebp-0xc],0x1
  10350f:	81 7d f4 0f 27 00 00 	cmp    DWORD PTR [ebp-0xc],0x270f
  103516:	7e cc                	jle    0x1034e4
  103518:	68 c3 68 10 00       	push   0x1068c3
  10351d:	e8 f2 f8 ff ff       	call   0x102e14
  103522:	83 c4 04             	add    esp,0x4
  103525:	0f b6 45 ff          	movzx  eax,BYTE PTR [ebp-0x1]
  103529:	50                   	push   eax
  10352a:	e8 24 f9 ff ff       	call   0x102e53
  10352f:	83 c4 04             	add    esp,0x4
  103532:	68 dd 68 10 00       	push   0x1068dd
  103537:	e8 d8 f8 ff ff       	call   0x102e14
  10353c:	83 c4 04             	add    esp,0x4
  10353f:	0f b6 45 ff          	movzx  eax,BYTE PTR [ebp-0x1]
  103543:	c1 f8 05             	sar    eax,0x5
  103546:	0f b6 c0             	movzx  eax,al
  103549:	83 e0 01             	and    eax,0x1
  10354c:	50                   	push   eax
  10354d:	e8 01 f9 ff ff       	call   0x102e53
  103552:	83 c4 04             	add    esp,0x4
  103555:	68 e5 68 10 00       	push   0x1068e5
  10355a:	e8 b5 f8 ff ff       	call   0x102e14
  10355f:	83 c4 04             	add    esp,0x4
  103562:	80 4d ff 22          	or     BYTE PTR [ebp-0x1],0x22
  103566:	68 e8 68 10 00       	push   0x1068e8
  10356b:	e8 a4 f8 ff ff       	call   0x102e14
  103570:	83 c4 04             	add    esp,0x4
  103573:	0f b6 45 ff          	movzx  eax,BYTE PTR [ebp-0x1]
  103577:	50                   	push   eax
  103578:	e8 d6 f8 ff ff       	call   0x102e53
  10357d:	83 c4 04             	add    esp,0x4
  103580:	68 64 68 10 00       	push   0x106864
  103585:	e8 8a f8 ff ff       	call   0x102e14
  10358a:	83 c4 04             	add    esp,0x4
  10358d:	6a 60                	push   0x60
  10358f:	6a 64                	push   0x64
  103591:	e8 23 f8 ff ff       	call   0x102db9
  103596:	83 c4 08             	add    esp,0x8
  103599:	c7 45 f0 00 00 00 00 	mov    DWORD PTR [ebp-0x10],0x0
  1035a0:	eb 2d                	jmp    0x1035cf
  1035a2:	6a 64                	push   0x64
  1035a4:	e8 f3 f7 ff ff       	call   0x102d9c
  1035a9:	83 c4 04             	add    esp,0x4
  1035ac:	88 45 db             	mov    BYTE PTR [ebp-0x25],al
  1035af:	0f b6 45 db          	movzx  eax,BYTE PTR [ebp-0x25]
  1035b3:	83 e0 02             	and    eax,0x2
  1035b6:	85 c0                	test   eax,eax
  1035b8:	75 11                	jne    0x1035cb
  1035ba:	0f b6 45 ff          	movzx  eax,BYTE PTR [ebp-0x1]
  1035be:	50                   	push   eax
  1035bf:	6a 60                	push   0x60
  1035c1:	e8 f3 f7 ff ff       	call   0x102db9
  1035c6:	83 c4 08             	add    esp,0x8
  1035c9:	eb 0d                	jmp    0x1035d8
  1035cb:	83 45 f0 01          	add    DWORD PTR [ebp-0x10],0x1
  1035cf:	81 7d f0 0f 27 00 00 	cmp    DWORD PTR [ebp-0x10],0x270f
  1035d6:	7e ca                	jle    0x1035a2
  1035d8:	c7 45 d4 00 00 00 00 	mov    DWORD PTR [ebp-0x2c],0x0
  1035df:	eb 09                	jmp    0x1035ea
  1035e1:	8b 45 d4             	mov    eax,DWORD PTR [ebp-0x2c]
  1035e4:	83 c0 01             	add    eax,0x1
  1035e7:	89 45 d4             	mov    DWORD PTR [ebp-0x2c],eax
  1035ea:	8b 45 d4             	mov    eax,DWORD PTR [ebp-0x2c]
  1035ed:	3d e7 03 00 00       	cmp    eax,0x3e7
  1035f2:	7e ed                	jle    0x1035e1
  1035f4:	68 d4 00 00 00       	push   0xd4
  1035f9:	6a 64                	push   0x64
  1035fb:	e8 b9 f7 ff ff       	call   0x102db9
  103600:	83 c4 08             	add    esp,0x8
  103603:	68 f3 00 00 00       	push   0xf3
  103608:	6a 60                	push   0x60
  10360a:	e8 aa f7 ff ff       	call   0x102db9
  10360f:	83 c4 08             	add    esp,0x8
  103612:	c7 45 ec 00 00 00 00 	mov    DWORD PTR [ebp-0x14],0x0
  103619:	eb 28                	jmp    0x103643
  10361b:	6a 64                	push   0x64
  10361d:	e8 7a f7 ff ff       	call   0x102d9c
  103622:	83 c4 04             	add    esp,0x4
  103625:	88 45 db             	mov    BYTE PTR [ebp-0x25],al
  103628:	0f b6 45 db          	movzx  eax,BYTE PTR [ebp-0x25]
  10362c:	83 e0 01             	and    eax,0x1
  10362f:	85 c0                	test   eax,eax
  103631:	74 0c                	je     0x10363f
  103633:	6a 60                	push   0x60
  103635:	e8 62 f7 ff ff       	call   0x102d9c
  10363a:	83 c4 04             	add    esp,0x4
  10363d:	eb 0d                	jmp    0x10364c
  10363f:	83 45 ec 01          	add    DWORD PTR [ebp-0x14],0x1
  103643:	81 7d ec 0f 27 00 00 	cmp    DWORD PTR [ebp-0x14],0x270f
  10364a:	7e cf                	jle    0x10361b
  10364c:	68 d4 00 00 00       	push   0xd4
  103651:	6a 64                	push   0x64
  103653:	e8 61 f7 ff ff       	call   0x102db9
  103658:	83 c4 08             	add    esp,0x8
  10365b:	6a 28                	push   0x28
  10365d:	6a 60                	push   0x60
  10365f:	e8 55 f7 ff ff       	call   0x102db9
  103664:	83 c4 08             	add    esp,0x8
  103667:	c7 45 e8 00 00 00 00 	mov    DWORD PTR [ebp-0x18],0x0
  10366e:	eb 28                	jmp    0x103698
  103670:	6a 64                	push   0x64
  103672:	e8 25 f7 ff ff       	call   0x102d9c
  103677:	83 c4 04             	add    esp,0x4
  10367a:	88 45 db             	mov    BYTE PTR [ebp-0x25],al
  10367d:	0f b6 45 db          	movzx  eax,BYTE PTR [ebp-0x25]
  103681:	83 e0 01             	and    eax,0x1
  103684:	85 c0                	test   eax,eax
  103686:	74 0c                	je     0x103694
  103688:	6a 60                	push   0x60
  10368a:	e8 0d f7 ff ff       	call   0x102d9c
  10368f:	83 c4 04             	add    esp,0x4
  103692:	eb 0d                	jmp    0x1036a1
  103694:	83 45 e8 01          	add    DWORD PTR [ebp-0x18],0x1
  103698:	81 7d e8 0f 27 00 00 	cmp    DWORD PTR [ebp-0x18],0x270f
  10369f:	7e cf                	jle    0x103670
  1036a1:	68 d4 00 00 00       	push   0xd4
  1036a6:	6a 64                	push   0x64
  1036a8:	e8 0c f7 ff ff       	call   0x102db9
  1036ad:	83 c4 08             	add    esp,0x8
  1036b0:	68 e8 00 00 00       	push   0xe8
  1036b5:	6a 60                	push   0x60
  1036b7:	e8 fd f6 ff ff       	call   0x102db9
  1036bc:	83 c4 08             	add    esp,0x8
  1036bf:	c7 45 e4 00 00 00 00 	mov    DWORD PTR [ebp-0x1c],0x0
  1036c6:	eb 28                	jmp    0x1036f0
  1036c8:	6a 64                	push   0x64
  1036ca:	e8 cd f6 ff ff       	call   0x102d9c
  1036cf:	83 c4 04             	add    esp,0x4
  1036d2:	88 45 db             	mov    BYTE PTR [ebp-0x25],al
  1036d5:	0f b6 45 db          	movzx  eax,BYTE PTR [ebp-0x25]
  1036d9:	83 e0 01             	and    eax,0x1
  1036dc:	85 c0                	test   eax,eax
  1036de:	74 0c                	je     0x1036ec
  1036e0:	6a 60                	push   0x60
  1036e2:	e8 b5 f6 ff ff       	call   0x102d9c
  1036e7:	83 c4 04             	add    esp,0x4
  1036ea:	eb 0d                	jmp    0x1036f9
  1036ec:	83 45 e4 01          	add    DWORD PTR [ebp-0x1c],0x1
  1036f0:	81 7d e4 0f 27 00 00 	cmp    DWORD PTR [ebp-0x1c],0x270f
  1036f7:	7e cf                	jle    0x1036c8
  1036f9:	68 d4 00 00 00       	push   0xd4
  1036fe:	6a 64                	push   0x64
  103700:	e8 b4 f6 ff ff       	call   0x102db9
  103705:	83 c4 08             	add    esp,0x8
  103708:	6a 03                	push   0x3
  10370a:	6a 60                	push   0x60
  10370c:	e8 a8 f6 ff ff       	call   0x102db9
  103711:	83 c4 08             	add    esp,0x8
  103714:	c7 45 e0 00 00 00 00 	mov    DWORD PTR [ebp-0x20],0x0
  10371b:	eb 28                	jmp    0x103745
  10371d:	6a 64                	push   0x64
  10371f:	e8 78 f6 ff ff       	call   0x102d9c
  103724:	83 c4 04             	add    esp,0x4
  103727:	88 45 db             	mov    BYTE PTR [ebp-0x25],al
  10372a:	0f b6 45 db          	movzx  eax,BYTE PTR [ebp-0x25]
  10372e:	83 e0 01             	and    eax,0x1
  103731:	85 c0                	test   eax,eax
  103733:	74 0c                	je     0x103741
  103735:	6a 60                	push   0x60
  103737:	e8 60 f6 ff ff       	call   0x102d9c
  10373c:	83 c4 04             	add    esp,0x4
  10373f:	eb 0d                	jmp    0x10374e
  103741:	83 45 e0 01          	add    DWORD PTR [ebp-0x20],0x1
  103745:	81 7d e0 0f 27 00 00 	cmp    DWORD PTR [ebp-0x20],0x270f
  10374c:	7e cf                	jle    0x10371d
  10374e:	68 d4 00 00 00       	push   0xd4
  103753:	6a 64                	push   0x64
  103755:	e8 5f f6 ff ff       	call   0x102db9
  10375a:	83 c4 08             	add    esp,0x8
  10375d:	68 f4 00 00 00       	push   0xf4
  103762:	6a 60                	push   0x60
  103764:	e8 50 f6 ff ff       	call   0x102db9
  103769:	83 c4 08             	add    esp,0x8
  10376c:	c7 45 dc 00 00 00 00 	mov    DWORD PTR [ebp-0x24],0x0
  103773:	eb 28                	jmp    0x10379d
  103775:	6a 64                	push   0x64
  103777:	e8 20 f6 ff ff       	call   0x102d9c
  10377c:	83 c4 04             	add    esp,0x4
  10377f:	88 45 db             	mov    BYTE PTR [ebp-0x25],al
  103782:	0f b6 45 db          	movzx  eax,BYTE PTR [ebp-0x25]
  103786:	83 e0 01             	and    eax,0x1
  103789:	85 c0                	test   eax,eax
  10378b:	74 0c                	je     0x103799
  10378d:	6a 60                	push   0x60
  10378f:	e8 08 f6 ff ff       	call   0x102d9c
  103794:	83 c4 04             	add    esp,0x4
  103797:	eb 0d                	jmp    0x1037a6
  103799:	83 45 dc 01          	add    DWORD PTR [ebp-0x24],0x1
  10379d:	81 7d dc 0f 27 00 00 	cmp    DWORD PTR [ebp-0x24],0x270f
  1037a4:	7e cf                	jle    0x103775
  1037a6:	c7 05 58 90 11 00 01 	mov    DWORD PTR ds:0x119058,0x1
  1037ad:	00 00 00 
  1037b0:	90                   	nop
  1037b1:	c9                   	leave
  1037b2:	c3                   	ret
  1037b3:	55                   	push   ebp
  1037b4:	89 e5                	mov    ebp,esp
  1037b6:	a1 40 90 11 00       	mov    eax,ds:0x119040
  1037bb:	5d                   	pop    ebp
  1037bc:	c3                   	ret
  1037bd:	55                   	push   ebp
  1037be:	89 e5                	mov    ebp,esp
  1037c0:	a1 44 90 11 00       	mov    eax,ds:0x119044
  1037c5:	5d                   	pop    ebp
  1037c6:	c3                   	ret
  1037c7:	55                   	push   ebp
  1037c8:	89 e5                	mov    ebp,esp
  1037ca:	a1 4c 90 11 00       	mov    eax,ds:0x11904c
  1037cf:	5d                   	pop    ebp
  1037d0:	c3                   	ret
  1037d1:	55                   	push   ebp
  1037d2:	89 e5                	mov    ebp,esp
  1037d4:	b8 00 00 00 00       	mov    eax,0x0
  1037d9:	5d                   	pop    ebp
  1037da:	c3                   	ret
  1037db:	55                   	push   ebp
  1037dc:	89 e5                	mov    ebp,esp
  1037de:	83 ec 04             	sub    esp,0x4
  1037e1:	8b 45 08             	mov    eax,DWORD PTR [ebp+0x8]
  1037e4:	66 89 45 fc          	mov    WORD PTR [ebp-0x4],ax
  1037e8:	8b 45 0c             	mov    eax,DWORD PTR [ebp+0xc]
  1037eb:	0f b7 55 fc          	movzx  edx,WORD PTR [ebp-0x4]
  1037ef:	ef                   	out    dx,eax
  1037f0:	90                   	nop
  1037f1:	c9                   	leave
  1037f2:	c3                   	ret
  1037f3:	55                   	push   ebp
  1037f4:	89 e5                	mov    ebp,esp
  1037f6:	83 ec 14             	sub    esp,0x14
  1037f9:	8b 45 08             	mov    eax,DWORD PTR [ebp+0x8]
  1037fc:	66 89 45 ec          	mov    WORD PTR [ebp-0x14],ax
  103800:	0f b7 45 ec          	movzx  eax,WORD PTR [ebp-0x14]
  103804:	89 c2                	mov    edx,eax
  103806:	ed                   	in     eax,dx
  103807:	89 45 fc             	mov    DWORD PTR [ebp-0x4],eax
  10380a:	8b 45 fc             	mov    eax,DWORD PTR [ebp-0x4]
  10380d:	c9                   	leave
  10380e:	c3                   	ret
  10380f:	55                   	push   ebp
  103810:	89 e5                	mov    ebp,esp
  103812:	53                   	push   ebx
  103813:	83 ec 10             	sub    esp,0x10
  103816:	8b 5d 08             	mov    ebx,DWORD PTR [ebp+0x8]
  103819:	8b 4d 0c             	mov    ecx,DWORD PTR [ebp+0xc]
  10381c:	8b 55 10             	mov    edx,DWORD PTR [ebp+0x10]
  10381f:	8b 45 14             	mov    eax,DWORD PTR [ebp+0x14]
  103822:	88 5d f8             	mov    BYTE PTR [ebp-0x8],bl
  103825:	88 4d f4             	mov    BYTE PTR [ebp-0xc],cl
  103828:	88 55 f0             	mov    BYTE PTR [ebp-0x10],dl
  10382b:	88 45 ec             	mov    BYTE PTR [ebp-0x14],al
  10382e:	0f b6 45 f8          	movzx  eax,BYTE PTR [ebp-0x8]
  103832:	c1 e0 10             	shl    eax,0x10
  103835:	89 c2                	mov    edx,eax
  103837:	0f b6 45 f4          	movzx  eax,BYTE PTR [ebp-0xc]
  10383b:	c1 e0 0b             	shl    eax,0xb
  10383e:	09 c2                	or     edx,eax
  103840:	0f b6 45 f0          	movzx  eax,BYTE PTR [ebp-0x10]
  103844:	c1 e0 08             	shl    eax,0x8
  103847:	09 c2                	or     edx,eax
  103849:	0f b6 45 ec          	movzx  eax,BYTE PTR [ebp-0x14]
  10384d:	25 fc 00 00 00       	and    eax,0xfc
  103852:	09 d0                	or     eax,edx
  103854:	0d 00 00 00 80       	or     eax,0x80000000
  103859:	8b 5d fc             	mov    ebx,DWORD PTR [ebp-0x4]
  10385c:	c9                   	leave
  10385d:	c3                   	ret
  10385e:	55                   	push   ebp
  10385f:	89 e5                	mov    ebp,esp
  103861:	53                   	push   ebx
  103862:	83 ec 20             	sub    esp,0x20
  103865:	8b 5d 08             	mov    ebx,DWORD PTR [ebp+0x8]
  103868:	8b 4d 0c             	mov    ecx,DWORD PTR [ebp+0xc]
  10386b:	8b 55 10             	mov    edx,DWORD PTR [ebp+0x10]
  10386e:	8b 45 14             	mov    eax,DWORD PTR [ebp+0x14]
  103871:	88 5d e8             	mov    BYTE PTR [ebp-0x18],bl
  103874:	88 4d e4             	mov    BYTE PTR [ebp-0x1c],cl
  103877:	88 55 e0             	mov    BYTE PTR [ebp-0x20],dl
  10387a:	88 45 dc             	mov    BYTE PTR [ebp-0x24],al
  10387d:	0f b6 5d dc          	movzx  ebx,BYTE PTR [ebp-0x24]
  103881:	0f b6 4d e0          	movzx  ecx,BYTE PTR [ebp-0x20]
  103885:	0f b6 55 e4          	movzx  edx,BYTE PTR [ebp-0x1c]
  103889:	0f b6 45 e8          	movzx  eax,BYTE PTR [ebp-0x18]
  10388d:	53                   	push   ebx
  10388e:	51                   	push   ecx
  10388f:	52                   	push   edx
  103890:	50                   	push   eax
  103891:	e8 79 ff ff ff       	call   0x10380f
  103896:	83 c4 10             	add    esp,0x10
  103899:	89 45 f8             	mov    DWORD PTR [ebp-0x8],eax
  10389c:	ff 75 f8             	push   DWORD PTR [ebp-0x8]
  10389f:	68 f8 0c 00 00       	push   0xcf8
  1038a4:	e8 32 ff ff ff       	call   0x1037db
  1038a9:	83 c4 08             	add    esp,0x8
  1038ac:	68 fc 0c 00 00       	push   0xcfc
  1038b1:	e8 3d ff ff ff       	call   0x1037f3
  1038b6:	83 c4 04             	add    esp,0x4
  1038b9:	0f b6 55 dc          	movzx  edx,BYTE PTR [ebp-0x24]
  1038bd:	83 e2 03             	and    edx,0x3
  1038c0:	c1 e2 03             	shl    edx,0x3
  1038c3:	89 d1                	mov    ecx,edx
  1038c5:	d3 e8                	shr    eax,cl
  1038c7:	8b 5d fc             	mov    ebx,DWORD PTR [ebp-0x4]
  1038ca:	c9                   	leave
  1038cb:	c3                   	ret
  1038cc:	55                   	push   ebp
  1038cd:	89 e5                	mov    ebp,esp
  1038cf:	53                   	push   ebx
  1038d0:	83 ec 20             	sub    esp,0x20
  1038d3:	8b 5d 08             	mov    ebx,DWORD PTR [ebp+0x8]
  1038d6:	8b 4d 0c             	mov    ecx,DWORD PTR [ebp+0xc]
  1038d9:	8b 55 10             	mov    edx,DWORD PTR [ebp+0x10]
  1038dc:	8b 45 14             	mov    eax,DWORD PTR [ebp+0x14]
  1038df:	88 5d e8             	mov    BYTE PTR [ebp-0x18],bl
  1038e2:	88 4d e4             	mov    BYTE PTR [ebp-0x1c],cl
  1038e5:	88 55 e0             	mov    BYTE PTR [ebp-0x20],dl
  1038e8:	88 45 dc             	mov    BYTE PTR [ebp-0x24],al
  1038eb:	0f b6 5d dc          	movzx  ebx,BYTE PTR [ebp-0x24]
  1038ef:	0f b6 4d e0          	movzx  ecx,BYTE PTR [ebp-0x20]
  1038f3:	0f b6 55 e4          	movzx  edx,BYTE PTR [ebp-0x1c]
  1038f7:	0f b6 45 e8          	movzx  eax,BYTE PTR [ebp-0x18]
  1038fb:	53                   	push   ebx
  1038fc:	51                   	push   ecx
  1038fd:	52                   	push   edx
  1038fe:	50                   	push   eax
  1038ff:	e8 0b ff ff ff       	call   0x10380f
  103904:	83 c4 10             	add    esp,0x10
  103907:	89 45 f8             	mov    DWORD PTR [ebp-0x8],eax
  10390a:	ff 75 f8             	push   DWORD PTR [ebp-0x8]
  10390d:	68 f8 0c 00 00       	push   0xcf8
  103912:	e8 c4 fe ff ff       	call   0x1037db
  103917:	83 c4 08             	add    esp,0x8
  10391a:	68 fc 0c 00 00       	push   0xcfc
  10391f:	e8 cf fe ff ff       	call   0x1037f3
  103924:	83 c4 04             	add    esp,0x4
  103927:	0f b6 55 dc          	movzx  edx,BYTE PTR [ebp-0x24]
  10392b:	83 e2 02             	and    edx,0x2
  10392e:	c1 e2 03             	shl    edx,0x3
  103931:	89 d1                	mov    ecx,edx
  103933:	d3 e8                	shr    eax,cl
  103935:	8b 5d fc             	mov    ebx,DWORD PTR [ebp-0x4]
  103938:	c9                   	leave
  103939:	c3                   	ret
  10393a:	55                   	push   ebp
  10393b:	89 e5                	mov    ebp,esp
  10393d:	53                   	push   ebx
  10393e:	83 ec 20             	sub    esp,0x20
  103941:	8b 5d 08             	mov    ebx,DWORD PTR [ebp+0x8]
  103944:	8b 4d 0c             	mov    ecx,DWORD PTR [ebp+0xc]
  103947:	8b 55 10             	mov    edx,DWORD PTR [ebp+0x10]
  10394a:	8b 45 14             	mov    eax,DWORD PTR [ebp+0x14]
  10394d:	88 5d e8             	mov    BYTE PTR [ebp-0x18],bl
  103950:	88 4d e4             	mov    BYTE PTR [ebp-0x1c],cl
  103953:	88 55 e0             	mov    BYTE PTR [ebp-0x20],dl
  103956:	88 45 dc             	mov    BYTE PTR [ebp-0x24],al
  103959:	0f b6 5d dc          	movzx  ebx,BYTE PTR [ebp-0x24]
  10395d:	0f b6 4d e0          	movzx  ecx,BYTE PTR [ebp-0x20]
  103961:	0f b6 55 e4          	movzx  edx,BYTE PTR [ebp-0x1c]
  103965:	0f b6 45 e8          	movzx  eax,BYTE PTR [ebp-0x18]
  103969:	53                   	push   ebx
  10396a:	51                   	push   ecx
  10396b:	52                   	push   edx
  10396c:	50                   	push   eax
  10396d:	e8 9d fe ff ff       	call   0x10380f
  103972:	83 c4 10             	add    esp,0x10
  103975:	89 45 f8             	mov    DWORD PTR [ebp-0x8],eax
  103978:	ff 75 f8             	push   DWORD PTR [ebp-0x8]
  10397b:	68 f8 0c 00 00       	push   0xcf8
  103980:	e8 56 fe ff ff       	call   0x1037db
  103985:	83 c4 08             	add    esp,0x8
  103988:	68 fc 0c 00 00       	push   0xcfc
  10398d:	e8 61 fe ff ff       	call   0x1037f3
  103992:	83 c4 04             	add    esp,0x4
  103995:	8b 5d fc             	mov    ebx,DWORD PTR [ebp-0x4]
  103998:	c9                   	leave
  103999:	c3                   	ret
  10399a:	55                   	push   ebp
  10399b:	89 e5                	mov    ebp,esp
  10399d:	57                   	push   edi
  10399e:	56                   	push   esi
  10399f:	53                   	push   ebx
  1039a0:	83 ec 24             	sub    esp,0x24
  1039a3:	8b 75 08             	mov    esi,DWORD PTR [ebp+0x8]
  1039a6:	8b 5d 0c             	mov    ebx,DWORD PTR [ebp+0xc]
  1039a9:	8b 4d 10             	mov    ecx,DWORD PTR [ebp+0x10]
  1039ac:	8b 55 14             	mov    edx,DWORD PTR [ebp+0x14]
  1039af:	8b 7d 18             	mov    edi,DWORD PTR [ebp+0x18]
  1039b2:	89 f0                	mov    eax,esi
  1039b4:	88 45 e0             	mov    BYTE PTR [ebp-0x20],al
  1039b7:	88 5d dc             	mov    BYTE PTR [ebp-0x24],bl
  1039ba:	88 4d d8             	mov    BYTE PTR [ebp-0x28],cl
  1039bd:	88 55 d4             	mov    BYTE PTR [ebp-0x2c],dl
  1039c0:	89 f8                	mov    eax,edi
  1039c2:	88 45 d0             	mov    BYTE PTR [ebp-0x30],al
  1039c5:	0f b6 5d d4          	movzx  ebx,BYTE PTR [ebp-0x2c]
  1039c9:	0f b6 4d d8          	movzx  ecx,BYTE PTR [ebp-0x28]
  1039cd:	0f b6 55 dc          	movzx  edx,BYTE PTR [ebp-0x24]
  1039d1:	0f b6 45 e0          	movzx  eax,BYTE PTR [ebp-0x20]
  1039d5:	53                   	push   ebx
  1039d6:	51                   	push   ecx
  1039d7:	52                   	push   edx
  1039d8:	50                   	push   eax
  1039d9:	e8 31 fe ff ff       	call   0x10380f
  1039de:	83 c4 10             	add    esp,0x10
  1039e1:	89 45 f0             	mov    DWORD PTR [ebp-0x10],eax
  1039e4:	ff 75 f0             	push   DWORD PTR [ebp-0x10]
  1039e7:	68 f8 0c 00 00       	push   0xcf8
  1039ec:	e8 ea fd ff ff       	call   0x1037db
  1039f1:	83 c4 08             	add    esp,0x8
  1039f4:	68 fc 0c 00 00       	push   0xcfc
  1039f9:	e8 f5 fd ff ff       	call   0x1037f3
  1039fe:	83 c4 04             	add    esp,0x4
  103a01:	89 45 ec             	mov    DWORD PTR [ebp-0x14],eax
  103a04:	0f b6 45 d4          	movzx  eax,BYTE PTR [ebp-0x2c]
  103a08:	83 e0 03             	and    eax,0x3
  103a0b:	c1 e0 03             	shl    eax,0x3
  103a0e:	ba ff 00 00 00       	mov    edx,0xff
  103a13:	89 c1                	mov    ecx,eax
  103a15:	d3 e2                	shl    edx,cl
  103a17:	89 d0                	mov    eax,edx
  103a19:	f7 d0                	not    eax
  103a1b:	21 45 ec             	and    DWORD PTR [ebp-0x14],eax
  103a1e:	0f b6 55 d0          	movzx  edx,BYTE PTR [ebp-0x30]
  103a22:	0f b6 45 d4          	movzx  eax,BYTE PTR [ebp-0x2c]
  103a26:	83 e0 03             	and    eax,0x3
  103a29:	c1 e0 03             	shl    eax,0x3
  103a2c:	89 c1                	mov    ecx,eax
  103a2e:	d3 e2                	shl    edx,cl
  103a30:	89 d0                	mov    eax,edx
  103a32:	09 45 ec             	or     DWORD PTR [ebp-0x14],eax
  103a35:	ff 75 ec             	push   DWORD PTR [ebp-0x14]
  103a38:	68 fc 0c 00 00       	push   0xcfc
  103a3d:	e8 99 fd ff ff       	call   0x1037db
  103a42:	83 c4 08             	add    esp,0x8
  103a45:	90                   	nop
  103a46:	8d 65 f4             	lea    esp,[ebp-0xc]
  103a49:	5b                   	pop    ebx
  103a4a:	5e                   	pop    esi
  103a4b:	5f                   	pop    edi
  103a4c:	5d                   	pop    ebp
  103a4d:	c3                   	ret
  103a4e:	55                   	push   ebp
  103a4f:	89 e5                	mov    ebp,esp
  103a51:	57                   	push   edi
  103a52:	56                   	push   esi
  103a53:	53                   	push   ebx
  103a54:	83 ec 24             	sub    esp,0x24
  103a57:	8b 75 08             	mov    esi,DWORD PTR [ebp+0x8]
  103a5a:	8b 5d 0c             	mov    ebx,DWORD PTR [ebp+0xc]
  103a5d:	8b 4d 10             	mov    ecx,DWORD PTR [ebp+0x10]
  103a60:	8b 55 14             	mov    edx,DWORD PTR [ebp+0x14]
  103a63:	8b 7d 18             	mov    edi,DWORD PTR [ebp+0x18]
  103a66:	89 f0                	mov    eax,esi
  103a68:	88 45 e0             	mov    BYTE PTR [ebp-0x20],al
  103a6b:	88 5d dc             	mov    BYTE PTR [ebp-0x24],bl
  103a6e:	88 4d d8             	mov    BYTE PTR [ebp-0x28],cl
  103a71:	88 55 d4             	mov    BYTE PTR [ebp-0x2c],dl
  103a74:	89 f8                	mov    eax,edi
  103a76:	66 89 45 d0          	mov    WORD PTR [ebp-0x30],ax
  103a7a:	0f b6 5d d4          	movzx  ebx,BYTE PTR [ebp-0x2c]
  103a7e:	0f b6 4d d8          	movzx  ecx,BYTE PTR [ebp-0x28]
  103a82:	0f b6 55 dc          	movzx  edx,BYTE PTR [ebp-0x24]
  103a86:	0f b6 45 e0          	movzx  eax,BYTE PTR [ebp-0x20]
  103a8a:	53                   	push   ebx
  103a8b:	51                   	push   ecx
  103a8c:	52                   	push   edx
  103a8d:	50                   	push   eax
  103a8e:	e8 7c fd ff ff       	call   0x10380f
  103a93:	83 c4 10             	add    esp,0x10
  103a96:	89 45 f0             	mov    DWORD PTR [ebp-0x10],eax
  103a99:	ff 75 f0             	push   DWORD PTR [ebp-0x10]
  103a9c:	68 f8 0c 00 00       	push   0xcf8
  103aa1:	e8 35 fd ff ff       	call   0x1037db
  103aa6:	83 c4 08             	add    esp,0x8
  103aa9:	68 fc 0c 00 00       	push   0xcfc
  103aae:	e8 40 fd ff ff       	call   0x1037f3
  103ab3:	83 c4 04             	add    esp,0x4
  103ab6:	89 45 ec             	mov    DWORD PTR [ebp-0x14],eax
  103ab9:	0f b6 45 d4          	movzx  eax,BYTE PTR [ebp-0x2c]
  103abd:	83 e0 02             	and    eax,0x2
  103ac0:	c1 e0 03             	shl    eax,0x3
  103ac3:	ba ff ff 00 00       	mov    edx,0xffff
  103ac8:	89 c1                	mov    ecx,eax
  103aca:	d3 e2                	shl    edx,cl
  103acc:	89 d0                	mov    eax,edx
  103ace:	f7 d0                	not    eax
  103ad0:	21 45 ec             	and    DWORD PTR [ebp-0x14],eax
  103ad3:	0f b7 55 d0          	movzx  edx,WORD PTR [ebp-0x30]
  103ad7:	0f b6 45 d4          	movzx  eax,BYTE PTR [ebp-0x2c]
  103adb:	83 e0 02             	and    eax,0x2
  103ade:	c1 e0 03             	shl    eax,0x3
  103ae1:	89 c1                	mov    ecx,eax
  103ae3:	d3 e2                	shl    edx,cl
  103ae5:	89 d0                	mov    eax,edx
  103ae7:	09 45 ec             	or     DWORD PTR [ebp-0x14],eax
  103aea:	ff 75 ec             	push   DWORD PTR [ebp-0x14]
  103aed:	68 fc 0c 00 00       	push   0xcfc
  103af2:	e8 e4 fc ff ff       	call   0x1037db
  103af7:	83 c4 08             	add    esp,0x8
  103afa:	90                   	nop
  103afb:	8d 65 f4             	lea    esp,[ebp-0xc]
  103afe:	5b                   	pop    ebx
  103aff:	5e                   	pop    esi
  103b00:	5f                   	pop    edi
  103b01:	5d                   	pop    ebp
  103b02:	c3                   	ret
  103b03:	55                   	push   ebp
  103b04:	89 e5                	mov    ebp,esp
  103b06:	53                   	push   ebx
  103b07:	83 ec 20             	sub    esp,0x20
  103b0a:	8b 5d 08             	mov    ebx,DWORD PTR [ebp+0x8]
  103b0d:	8b 4d 0c             	mov    ecx,DWORD PTR [ebp+0xc]
  103b10:	8b 55 10             	mov    edx,DWORD PTR [ebp+0x10]
  103b13:	8b 45 14             	mov    eax,DWORD PTR [ebp+0x14]
  103b16:	88 5d e8             	mov    BYTE PTR [ebp-0x18],bl
  103b19:	88 4d e4             	mov    BYTE PTR [ebp-0x1c],cl
  103b1c:	88 55 e0             	mov    BYTE PTR [ebp-0x20],dl
  103b1f:	88 45 dc             	mov    BYTE PTR [ebp-0x24],al
  103b22:	0f b6 5d dc          	movzx  ebx,BYTE PTR [ebp-0x24]
  103b26:	0f b6 4d e0          	movzx  ecx,BYTE PTR [ebp-0x20]
  103b2a:	0f b6 55 e4          	movzx  edx,BYTE PTR [ebp-0x1c]
  103b2e:	0f b6 45 e8          	movzx  eax,BYTE PTR [ebp-0x18]
  103b32:	53                   	push   ebx
  103b33:	51                   	push   ecx
  103b34:	52                   	push   edx
  103b35:	50                   	push   eax
  103b36:	e8 d4 fc ff ff       	call   0x10380f
  103b3b:	83 c4 10             	add    esp,0x10
  103b3e:	89 45 f8             	mov    DWORD PTR [ebp-0x8],eax
  103b41:	ff 75 f8             	push   DWORD PTR [ebp-0x8]
  103b44:	68 f8 0c 00 00       	push   0xcf8
  103b49:	e8 8d fc ff ff       	call   0x1037db
  103b4e:	83 c4 08             	add    esp,0x8
  103b51:	ff 75 18             	push   DWORD PTR [ebp+0x18]
  103b54:	68 fc 0c 00 00       	push   0xcfc
  103b59:	e8 7d fc ff ff       	call   0x1037db
  103b5e:	83 c4 08             	add    esp,0x8
  103b61:	90                   	nop
  103b62:	8b 5d fc             	mov    ebx,DWORD PTR [ebp-0x4]
  103b65:	c9                   	leave
  103b66:	c3                   	ret
  103b67:	55                   	push   ebp
  103b68:	89 e5                	mov    ebp,esp
  103b6a:	83 ec 08             	sub    esp,0x8
  103b6d:	8b 55 08             	mov    edx,DWORD PTR [ebp+0x8]
  103b70:	8b 45 0c             	mov    eax,DWORD PTR [ebp+0xc]
  103b73:	66 89 55 fc          	mov    WORD PTR [ebp-0x4],dx
  103b77:	66 89 45 f8          	mov    WORD PTR [ebp-0x8],ax
  103b7b:	0f b7 45 f8          	movzx  eax,WORD PTR [ebp-0x8]
  103b7f:	0f b7 55 fc          	movzx  edx,WORD PTR [ebp-0x4]
  103b83:	66 ef                	out    dx,ax
  103b85:	90                   	nop
  103b86:	c9                   	leave
  103b87:	c3                   	ret
  103b88:	55                   	push   ebp
  103b89:	89 e5                	mov    ebp,esp
  103b8b:	83 ec 14             	sub    esp,0x14
  103b8e:	8b 45 08             	mov    eax,DWORD PTR [ebp+0x8]
  103b91:	66 89 45 ec          	mov    WORD PTR [ebp-0x14],ax
  103b95:	0f b7 45 ec          	movzx  eax,WORD PTR [ebp-0x14]
  103b99:	89 c2                	mov    edx,eax
  103b9b:	66 ed                	in     ax,dx
  103b9d:	66 89 45 fe          	mov    WORD PTR [ebp-0x2],ax
  103ba1:	0f b7 45 fe          	movzx  eax,WORD PTR [ebp-0x2]
  103ba5:	c9                   	leave
  103ba6:	c3                   	ret
  103ba7:	55                   	push   ebp
  103ba8:	89 e5                	mov    ebp,esp
  103baa:	83 ec 28             	sub    esp,0x28
  103bad:	66 c7 45 f6 00 00    	mov    WORD PTR [ebp-0xa],0x0
  103bb3:	e9 28 01 00 00       	jmp    0x103ce0
  103bb8:	c6 45 f5 00          	mov    BYTE PTR [ebp-0xb],0x0
  103bbc:	e9 0a 01 00 00       	jmp    0x103ccb
  103bc1:	0f b6 55 f5          	movzx  edx,BYTE PTR [ebp-0xb]
  103bc5:	0f b7 45 f6          	movzx  eax,WORD PTR [ebp-0xa]
  103bc9:	0f b6 c0             	movzx  eax,al
  103bcc:	6a 00                	push   0x0
  103bce:	6a 00                	push   0x0
  103bd0:	52                   	push   edx
  103bd1:	50                   	push   eax
  103bd2:	e8 f5 fc ff ff       	call   0x1038cc
  103bd7:	83 c4 10             	add    esp,0x10
  103bda:	66 89 45 f2          	mov    WORD PTR [ebp-0xe],ax
  103bde:	66 83 7d f2 ff       	cmp    WORD PTR [ebp-0xe],0xffff
  103be3:	0f 84 d7 00 00 00    	je     0x103cc0
  103be9:	0f b6 55 f5          	movzx  edx,BYTE PTR [ebp-0xb]
  103bed:	0f b7 45 f6          	movzx  eax,WORD PTR [ebp-0xa]
  103bf1:	0f b6 c0             	movzx  eax,al
  103bf4:	6a 08                	push   0x8
  103bf6:	6a 00                	push   0x0
  103bf8:	52                   	push   edx
  103bf9:	50                   	push   eax
  103bfa:	e8 3b fd ff ff       	call   0x10393a
  103bff:	83 c4 10             	add    esp,0x10
  103c02:	89 45 ec             	mov    DWORD PTR [ebp-0x14],eax
  103c05:	8b 45 ec             	mov    eax,DWORD PTR [ebp-0x14]
  103c08:	c1 e8 18             	shr    eax,0x18
  103c0b:	88 45 eb             	mov    BYTE PTR [ebp-0x15],al
  103c0e:	8b 45 ec             	mov    eax,DWORD PTR [ebp-0x14]
  103c11:	c1 e8 10             	shr    eax,0x10
  103c14:	88 45 ea             	mov    BYTE PTR [ebp-0x16],al
  103c17:	8b 45 ec             	mov    eax,DWORD PTR [ebp-0x14]
  103c1a:	c1 e8 08             	shr    eax,0x8
  103c1d:	88 45 e9             	mov    BYTE PTR [ebp-0x17],al
  103c20:	80 7d eb 0c          	cmp    BYTE PTR [ebp-0x15],0xc
  103c24:	0f 85 97 00 00 00    	jne    0x103cc1
  103c2a:	80 7d ea 03          	cmp    BYTE PTR [ebp-0x16],0x3
  103c2e:	0f 85 8d 00 00 00    	jne    0x103cc1
  103c34:	80 7d e9 00          	cmp    BYTE PTR [ebp-0x17],0x0
  103c38:	0f 85 83 00 00 00    	jne    0x103cc1
  103c3e:	0f b6 55 f5          	movzx  edx,BYTE PTR [ebp-0xb]
  103c42:	0f b7 45 f6          	movzx  eax,WORD PTR [ebp-0xa]
  103c46:	0f b6 c0             	movzx  eax,al
  103c49:	6a 20                	push   0x20
  103c4b:	6a 00                	push   0x0
  103c4d:	52                   	push   edx
  103c4e:	50                   	push   eax
  103c4f:	e8 e6 fc ff ff       	call   0x10393a
  103c54:	83 c4 10             	add    esp,0x10
  103c57:	89 45 e4             	mov    DWORD PTR [ebp-0x1c],eax
  103c5a:	8b 45 e4             	mov    eax,DWORD PTR [ebp-0x1c]
  103c5d:	83 e0 fe             	and    eax,0xfffffffe
  103c60:	66 a3 5c 90 11 00    	mov    ds:0x11905c,ax
  103c66:	0f b6 55 f5          	movzx  edx,BYTE PTR [ebp-0xb]
  103c6a:	0f b7 45 f6          	movzx  eax,WORD PTR [ebp-0xa]
  103c6e:	0f b6 c0             	movzx  eax,al
  103c71:	6a 04                	push   0x4
  103c73:	6a 00                	push   0x0
  103c75:	52                   	push   edx
  103c76:	50                   	push   eax
  103c77:	e8 50 fc ff ff       	call   0x1038cc
  103c7c:	83 c4 10             	add    esp,0x10
  103c7f:	66 89 45 e2          	mov    WORD PTR [ebp-0x1e],ax
  103c83:	66 83 4d e2 05       	or     WORD PTR [ebp-0x1e],0x5
  103c88:	0f b7 4d e2          	movzx  ecx,WORD PTR [ebp-0x1e]
  103c8c:	0f b6 55 f5          	movzx  edx,BYTE PTR [ebp-0xb]
  103c90:	0f b7 45 f6          	movzx  eax,WORD PTR [ebp-0xa]
  103c94:	0f b6 c0             	movzx  eax,al
  103c97:	83 ec 0c             	sub    esp,0xc
  103c9a:	51                   	push   ecx
  103c9b:	6a 04                	push   0x4
  103c9d:	6a 00                	push   0x0
  103c9f:	52                   	push   edx
  103ca0:	50                   	push   eax
  103ca1:	e8 a8 fd ff ff       	call   0x103a4e
  103ca6:	83 c4 20             	add    esp,0x20
  103ca9:	83 ec 0c             	sub    esp,0xc
  103cac:	68 04 69 10 00       	push   0x106904
  103cb1:	e8 de da ff ff       	call   0x101794
  103cb6:	83 c4 10             	add    esp,0x10
  103cb9:	b8 01 00 00 00       	mov    eax,0x1
  103cbe:	eb 31                	jmp    0x103cf1
  103cc0:	90                   	nop
  103cc1:	0f b6 45 f5          	movzx  eax,BYTE PTR [ebp-0xb]
  103cc5:	83 c0 01             	add    eax,0x1
  103cc8:	88 45 f5             	mov    BYTE PTR [ebp-0xb],al
  103ccb:	80 7d f5 1f          	cmp    BYTE PTR [ebp-0xb],0x1f
  103ccf:	0f 86 ec fe ff ff    	jbe    0x103bc1
  103cd5:	0f b7 45 f6          	movzx  eax,WORD PTR [ebp-0xa]
  103cd9:	83 c0 01             	add    eax,0x1
  103cdc:	66 89 45 f6          	mov    WORD PTR [ebp-0xa],ax
  103ce0:	66 81 7d f6 ff 00    	cmp    WORD PTR [ebp-0xa],0xff
  103ce6:	0f 86 cc fe ff ff    	jbe    0x103bb8
  103cec:	b8 00 00 00 00       	mov    eax,0x0
  103cf1:	c9                   	leave
  103cf2:	c3                   	ret
  103cf3:	55                   	push   ebp
  103cf4:	89 e5                	mov    ebp,esp
  103cf6:	83 ec 10             	sub    esp,0x10
  103cf9:	0f b7 05 5c 90 11 00 	movzx  eax,WORD PTR ds:0x11905c
  103d00:	66 89 45 fa          	mov    WORD PTR [ebp-0x6],ax
  103d04:	0f b7 45 fa          	movzx  eax,WORD PTR [ebp-0x6]
  103d08:	6a 00                	push   0x0
  103d0a:	50                   	push   eax
  103d0b:	e8 57 fe ff ff       	call   0x103b67
  103d10:	83 c4 08             	add    esp,0x8
  103d13:	c7 45 fc e8 03 00 00 	mov    DWORD PTR [ebp-0x4],0x3e8
  103d1a:	eb 1c                	jmp    0x103d38
  103d1c:	c7 45 f4 00 00 00 00 	mov    DWORD PTR [ebp-0xc],0x0
  103d23:	eb 09                	jmp    0x103d2e
  103d25:	8b 45 f4             	mov    eax,DWORD PTR [ebp-0xc]
  103d28:	83 c0 01             	add    eax,0x1
  103d2b:	89 45 f4             	mov    DWORD PTR [ebp-0xc],eax
  103d2e:	8b 45 f4             	mov    eax,DWORD PTR [ebp-0xc]
  103d31:	3d e7 03 00 00       	cmp    eax,0x3e7
  103d36:	7e ed                	jle    0x103d25
  103d38:	0f b7 45 fa          	movzx  eax,WORD PTR [ebp-0x6]
  103d3c:	83 c0 02             	add    eax,0x2
  103d3f:	0f b7 c0             	movzx  eax,ax
  103d42:	50                   	push   eax
  103d43:	e8 40 fe ff ff       	call   0x103b88
  103d48:	83 c4 04             	add    esp,0x4
  103d4b:	0f b7 c0             	movzx  eax,ax
  103d4e:	83 e0 20             	and    eax,0x20
  103d51:	85 c0                	test   eax,eax
  103d53:	75 0d                	jne    0x103d62
  103d55:	8b 45 fc             	mov    eax,DWORD PTR [ebp-0x4]
  103d58:	8d 50 ff             	lea    edx,[eax-0x1]
  103d5b:	89 55 fc             	mov    DWORD PTR [ebp-0x4],edx
  103d5e:	85 c0                	test   eax,eax
  103d60:	75 ba                	jne    0x103d1c
  103d62:	0f b7 45 fa          	movzx  eax,WORD PTR [ebp-0x6]
  103d66:	6a 02                	push   0x2
  103d68:	50                   	push   eax
  103d69:	e8 f9 fd ff ff       	call   0x103b67
  103d6e:	83 c4 08             	add    esp,0x8
  103d71:	c7 45 fc e8 03 00 00 	mov    DWORD PTR [ebp-0x4],0x3e8
  103d78:	eb 1c                	jmp    0x103d96
  103d7a:	c7 45 f0 00 00 00 00 	mov    DWORD PTR [ebp-0x10],0x0
  103d81:	eb 09                	jmp    0x103d8c
  103d83:	8b 45 f0             	mov    eax,DWORD PTR [ebp-0x10]
  103d86:	83 c0 01             	add    eax,0x1
  103d89:	89 45 f0             	mov    DWORD PTR [ebp-0x10],eax
  103d8c:	8b 45 f0             	mov    eax,DWORD PTR [ebp-0x10]
  103d8f:	3d e7 03 00 00       	cmp    eax,0x3e7
  103d94:	7e ed                	jle    0x103d83
  103d96:	0f b7 45 fa          	movzx  eax,WORD PTR [ebp-0x6]
  103d9a:	50                   	push   eax
  103d9b:	e8 e8 fd ff ff       	call   0x103b88
  103da0:	83 c4 04             	add    esp,0x4
  103da3:	0f b7 c0             	movzx  eax,ax
  103da6:	83 e0 02             	and    eax,0x2
  103da9:	85 c0                	test   eax,eax
  103dab:	74 0d                	je     0x103dba
  103dad:	8b 45 fc             	mov    eax,DWORD PTR [ebp-0x4]
  103db0:	8d 50 ff             	lea    edx,[eax-0x1]
  103db3:	89 55 fc             	mov    DWORD PTR [ebp-0x4],edx
  103db6:	85 c0                	test   eax,eax
  103db8:	75 c0                	jne    0x103d7a
  103dba:	0f b7 45 fa          	movzx  eax,WORD PTR [ebp-0x6]
  103dbe:	83 c0 02             	add    eax,0x2
  103dc1:	0f b7 c0             	movzx  eax,ax
  103dc4:	68 ff ff 00 00       	push   0xffff
  103dc9:	50                   	push   eax
  103dca:	e8 98 fd ff ff       	call   0x103b67
  103dcf:	83 c4 08             	add    esp,0x8
  103dd2:	90                   	nop
  103dd3:	c9                   	leave
  103dd4:	c3                   	ret
  103dd5:	55                   	push   ebp
  103dd6:	89 e5                	mov    ebp,esp
  103dd8:	83 ec 18             	sub    esp,0x18
  103ddb:	0f b7 05 5c 90 11 00 	movzx  eax,WORD PTR ds:0x11905c
  103de2:	66 89 45 f6          	mov    WORD PTR [ebp-0xa],ax
  103de6:	0f b7 45 f6          	movzx  eax,WORD PTR [ebp-0xa]
  103dea:	83 c0 10             	add    eax,0x10
  103ded:	0f b7 c0             	movzx  eax,ax
  103df0:	50                   	push   eax
  103df1:	e8 92 fd ff ff       	call   0x103b88
  103df6:	83 c4 04             	add    esp,0x4
  103df9:	66 89 45 f4          	mov    WORD PTR [ebp-0xc],ax
  103dfd:	0f b7 45 f4          	movzx  eax,WORD PTR [ebp-0xc]
  103e01:	83 e0 01             	and    eax,0x1
  103e04:	85 c0                	test   eax,eax
  103e06:	0f 84 b4 00 00 00    	je     0x103ec0
  103e0c:	83 ec 0c             	sub    esp,0xc
  103e0f:	68 20 69 10 00       	push   0x106920
  103e14:	e8 7b d9 ff ff       	call   0x101794
  103e19:	83 c4 10             	add    esp,0x10
  103e1c:	0f b7 45 f4          	movzx  eax,WORD PTR [ebp-0xc]
  103e20:	80 cc 02             	or     ah,0x2
  103e23:	0f b7 d0             	movzx  edx,ax
  103e26:	0f b7 45 f6          	movzx  eax,WORD PTR [ebp-0xa]
  103e2a:	83 c0 10             	add    eax,0x10
  103e2d:	0f b7 c0             	movzx  eax,ax
  103e30:	83 ec 08             	sub    esp,0x8
  103e33:	52                   	push   edx
  103e34:	50                   	push   eax
  103e35:	e8 2d fd ff ff       	call   0x103b67
  103e3a:	83 c4 10             	add    esp,0x10
  103e3d:	c7 45 ec 00 00 00 00 	mov    DWORD PTR [ebp-0x14],0x0
  103e44:	eb 09                	jmp    0x103e4f
  103e46:	8b 45 ec             	mov    eax,DWORD PTR [ebp-0x14]
  103e49:	83 c0 01             	add    eax,0x1
  103e4c:	89 45 ec             	mov    DWORD PTR [ebp-0x14],eax
  103e4f:	8b 45 ec             	mov    eax,DWORD PTR [ebp-0x14]
  103e52:	3d 9f 86 01 00       	cmp    eax,0x1869f
  103e57:	7e ed                	jle    0x103e46
  103e59:	0f b7 45 f4          	movzx  eax,WORD PTR [ebp-0xc]
  103e5d:	25 ff fd 00 00       	and    eax,0xfdff
  103e62:	89 c2                	mov    edx,eax
  103e64:	0f b7 45 f6          	movzx  eax,WORD PTR [ebp-0xa]
  103e68:	83 c0 10             	add    eax,0x10
  103e6b:	0f b7 c0             	movzx  eax,ax
  103e6e:	83 ec 08             	sub    esp,0x8
  103e71:	52                   	push   edx
  103e72:	50                   	push   eax
  103e73:	e8 ef fc ff ff       	call   0x103b67
  103e78:	83 c4 10             	add    esp,0x10
  103e7b:	0f b7 45 f6          	movzx  eax,WORD PTR [ebp-0xa]
  103e7f:	83 c0 10             	add    eax,0x10
  103e82:	0f b7 c0             	movzx  eax,ax
  103e85:	83 ec 0c             	sub    esp,0xc
  103e88:	50                   	push   eax
  103e89:	e8 fa fc ff ff       	call   0x103b88
  103e8e:	83 c4 10             	add    esp,0x10
  103e91:	66 89 45 f4          	mov    WORD PTR [ebp-0xc],ax
  103e95:	0f b7 45 f4          	movzx  eax,WORD PTR [ebp-0xc]
  103e99:	83 c8 04             	or     eax,0x4
  103e9c:	0f b7 d0             	movzx  edx,ax
  103e9f:	0f b7 45 f6          	movzx  eax,WORD PTR [ebp-0xa]
  103ea3:	83 c0 10             	add    eax,0x10
  103ea6:	0f b7 c0             	movzx  eax,ax
  103ea9:	83 ec 08             	sub    esp,0x8
  103eac:	52                   	push   edx
  103ead:	50                   	push   eax
  103eae:	e8 b4 fc ff ff       	call   0x103b67
  103eb3:	83 c4 10             	add    esp,0x10
  103eb6:	b8 01 00 00 00       	mov    eax,0x1
  103ebb:	e9 df 00 00 00       	jmp    0x103f9f
  103ec0:	0f b7 45 f6          	movzx  eax,WORD PTR [ebp-0xa]
  103ec4:	83 c0 12             	add    eax,0x12
  103ec7:	0f b7 c0             	movzx  eax,ax
  103eca:	83 ec 0c             	sub    esp,0xc
  103ecd:	50                   	push   eax
  103ece:	e8 b5 fc ff ff       	call   0x103b88
  103ed3:	83 c4 10             	add    esp,0x10
  103ed6:	66 89 45 f2          	mov    WORD PTR [ebp-0xe],ax
  103eda:	0f b7 45 f2          	movzx  eax,WORD PTR [ebp-0xe]
  103ede:	83 e0 01             	and    eax,0x1
  103ee1:	85 c0                	test   eax,eax
  103ee3:	0f 84 b1 00 00 00    	je     0x103f9a
  103ee9:	83 ec 0c             	sub    esp,0xc
  103eec:	68 40 69 10 00       	push   0x106940
  103ef1:	e8 9e d8 ff ff       	call   0x101794
  103ef6:	83 c4 10             	add    esp,0x10
  103ef9:	0f b7 45 f2          	movzx  eax,WORD PTR [ebp-0xe]
  103efd:	80 cc 02             	or     ah,0x2
  103f00:	0f b7 d0             	movzx  edx,ax
  103f03:	0f b7 45 f6          	movzx  eax,WORD PTR [ebp-0xa]
  103f07:	83 c0 12             	add    eax,0x12
  103f0a:	0f b7 c0             	movzx  eax,ax
  103f0d:	83 ec 08             	sub    esp,0x8
  103f10:	52                   	push   edx
  103f11:	50                   	push   eax
  103f12:	e8 50 fc ff ff       	call   0x103b67
  103f17:	83 c4 10             	add    esp,0x10
  103f1a:	c7 45 e8 00 00 00 00 	mov    DWORD PTR [ebp-0x18],0x0
  103f21:	eb 09                	jmp    0x103f2c
  103f23:	8b 45 e8             	mov    eax,DWORD PTR [ebp-0x18]
  103f26:	83 c0 01             	add    eax,0x1
  103f29:	89 45 e8             	mov    DWORD PTR [ebp-0x18],eax
  103f2c:	8b 45 e8             	mov    eax,DWORD PTR [ebp-0x18]
  103f2f:	3d 9f 86 01 00       	cmp    eax,0x1869f
  103f34:	7e ed                	jle    0x103f23
  103f36:	0f b7 45 f2          	movzx  eax,WORD PTR [ebp-0xe]
  103f3a:	25 ff fd 00 00       	and    eax,0xfdff
  103f3f:	89 c2                	mov    edx,eax
  103f41:	0f b7 45 f6          	movzx  eax,WORD PTR [ebp-0xa]
  103f45:	83 c0 12             	add    eax,0x12
  103f48:	0f b7 c0             	movzx  eax,ax
  103f4b:	83 ec 08             	sub    esp,0x8
  103f4e:	52                   	push   edx
  103f4f:	50                   	push   eax
  103f50:	e8 12 fc ff ff       	call   0x103b67
  103f55:	83 c4 10             	add    esp,0x10
  103f58:	0f b7 45 f6          	movzx  eax,WORD PTR [ebp-0xa]
  103f5c:	83 c0 12             	add    eax,0x12
  103f5f:	0f b7 c0             	movzx  eax,ax
  103f62:	83 ec 0c             	sub    esp,0xc
  103f65:	50                   	push   eax
  103f66:	e8 1d fc ff ff       	call   0x103b88
  103f6b:	83 c4 10             	add    esp,0x10
  103f6e:	66 89 45 f2          	mov    WORD PTR [ebp-0xe],ax
  103f72:	0f b7 45 f2          	movzx  eax,WORD PTR [ebp-0xe]
  103f76:	83 c8 04             	or     eax,0x4
  103f79:	0f b7 d0             	movzx  edx,ax
  103f7c:	0f b7 45 f6          	movzx  eax,WORD PTR [ebp-0xa]
  103f80:	83 c0 12             	add    eax,0x12
  103f83:	0f b7 c0             	movzx  eax,ax
  103f86:	83 ec 08             	sub    esp,0x8
  103f89:	52                   	push   edx
  103f8a:	50                   	push   eax
  103f8b:	e8 d7 fb ff ff       	call   0x103b67
  103f90:	83 c4 10             	add    esp,0x10
  103f93:	b8 01 00 00 00       	mov    eax,0x1
  103f98:	eb 05                	jmp    0x103f9f
  103f9a:	b8 00 00 00 00       	mov    eax,0x0
  103f9f:	c9                   	leave
  103fa0:	c3                   	ret
  103fa1:	55                   	push   ebp
  103fa2:	89 e5                	mov    ebp,esp
  103fa4:	83 ec 08             	sub    esp,0x8
  103fa7:	83 ec 0c             	sub    esp,0xc
  103faa:	68 60 69 10 00       	push   0x106960
  103faf:	e8 e0 d7 ff ff       	call   0x101794
  103fb4:	83 c4 10             	add    esp,0x10
  103fb7:	e8 eb fb ff ff       	call   0x103ba7
  103fbc:	85 c0                	test   eax,eax
  103fbe:	75 12                	jne    0x103fd2
  103fc0:	83 ec 0c             	sub    esp,0xc
  103fc3:	68 78 69 10 00       	push   0x106978
  103fc8:	e8 c7 d7 ff ff       	call   0x101794
  103fcd:	83 c4 10             	add    esp,0x10
  103fd0:	eb 51                	jmp    0x104023
  103fd2:	e8 1c fd ff ff       	call   0x103cf3
  103fd7:	e8 f9 fd ff ff       	call   0x103dd5
  103fdc:	85 c0                	test   eax,eax
  103fde:	74 43                	je     0x104023
  103fe0:	83 ec 0c             	sub    esp,0xc
  103fe3:	68 98 69 10 00       	push   0x106998
  103fe8:	e8 a7 d7 ff ff       	call   0x101794
  103fed:	83 c4 10             	add    esp,0x10
  103ff0:	83 ec 0c             	sub    esp,0xc
  103ff3:	68 c8 69 10 00       	push   0x1069c8
  103ff8:	e8 97 d7 ff ff       	call   0x101794
  103ffd:	83 c4 10             	add    esp,0x10
  104000:	c7 05 80 90 11 00 01 	mov    DWORD PTR ds:0x119080,0x1
  104007:	00 00 00 
  10400a:	c6 05 74 90 11 00 01 	mov    BYTE PTR ds:0x119074,0x1
  104011:	66 c7 05 78 90 11 00 	mov    WORD PTR ds:0x119078,0x627
  104018:	27 06 
  10401a:	66 c7 05 7a 90 11 00 	mov    WORD PTR ds:0x11907a,0x1
  104021:	01 00 
  104023:	c9                   	leave
  104024:	c3                   	ret
  104025:	55                   	push   ebp
  104026:	89 e5                	mov    ebp,esp
  104028:	a1 80 90 11 00       	mov    eax,ds:0x119080
  10402d:	5d                   	pop    ebp
  10402e:	c3                   	ret
  10402f:	55                   	push   ebp
  104030:	89 e5                	mov    ebp,esp
  104032:	a1 80 90 11 00       	mov    eax,ds:0x119080
  104037:	5d                   	pop    ebp
  104038:	c3                   	ret
  104039:	55                   	push   ebp
  10403a:	89 e5                	mov    ebp,esp
  10403c:	a1 80 90 11 00       	mov    eax,ds:0x119080
  104041:	85 c0                	test   eax,eax
  104043:	75 07                	jne    0x10404c
  104045:	b8 00 00 00 00       	mov    eax,0x0
  10404a:	eb 27                	jmp    0x104073
  10404c:	8b 15 20 80 10 00    	mov    edx,DWORD PTR ds:0x108020
  104052:	8b 45 08             	mov    eax,DWORD PTR [ebp+0x8]
  104055:	89 10                	mov    DWORD PTR [eax],edx
  104057:	8b 15 24 80 10 00    	mov    edx,DWORD PTR ds:0x108024
  10405d:	8b 45 0c             	mov    eax,DWORD PTR [ebp+0xc]
  104060:	89 10                	mov    DWORD PTR [eax],edx
  104062:	0f b6 15 85 90 11 00 	movzx  edx,BYTE PTR ds:0x119085
  104069:	8b 45 10             	mov    eax,DWORD PTR [ebp+0x10]
  10406c:	88 10                	mov    BYTE PTR [eax],dl
  10406e:	b8 01 00 00 00       	mov    eax,0x1
  104073:	5d                   	pop    ebp
  104074:	c3                   	ret
  104075:	55                   	push   ebp
  104076:	89 e5                	mov    ebp,esp
  104078:	83 ec 08             	sub    esp,0x8
  10407b:	8b 55 14             	mov    edx,DWORD PTR [ebp+0x14]
  10407e:	8b 45 18             	mov    eax,DWORD PTR [ebp+0x18]
  104081:	88 55 fc             	mov    BYTE PTR [ebp-0x4],dl
  104084:	88 45 f8             	mov    BYTE PTR [ebp-0x8],al
  104087:	8b 45 0c             	mov    eax,DWORD PTR [ebp+0xc]
  10408a:	89 c2                	mov    edx,eax
  10408c:	8b 45 08             	mov    eax,DWORD PTR [ebp+0x8]
  10408f:	66 89 14 c5 a2 90 11 	mov    WORD PTR [eax*8+0x1190a2],dx
  104096:	00 
  104097:	8b 45 0c             	mov    eax,DWORD PTR [ebp+0xc]
  10409a:	c1 e8 10             	shr    eax,0x10
  10409d:	89 c2                	mov    edx,eax
  10409f:	8b 45 08             	mov    eax,DWORD PTR [ebp+0x8]
  1040a2:	88 14 c5 a4 90 11 00 	mov    BYTE PTR [eax*8+0x1190a4],dl
  1040a9:	8b 45 0c             	mov    eax,DWORD PTR [ebp+0xc]
  1040ac:	c1 e8 18             	shr    eax,0x18
  1040af:	89 c2                	mov    edx,eax
  1040b1:	8b 45 08             	mov    eax,DWORD PTR [ebp+0x8]
  1040b4:	88 14 c5 a7 90 11 00 	mov    BYTE PTR [eax*8+0x1190a7],dl
  1040bb:	8b 45 10             	mov    eax,DWORD PTR [ebp+0x10]
  1040be:	89 c2                	mov    edx,eax
  1040c0:	8b 45 08             	mov    eax,DWORD PTR [ebp+0x8]
  1040c3:	66 89 14 c5 a0 90 11 	mov    WORD PTR [eax*8+0x1190a0],dx
  1040ca:	00 
  1040cb:	8b 45 10             	mov    eax,DWORD PTR [ebp+0x10]
  1040ce:	c1 e8 10             	shr    eax,0x10
  1040d1:	83 e0 0f             	and    eax,0xf
  1040d4:	89 c2                	mov    edx,eax
  1040d6:	0f b6 45 f8          	movzx  eax,BYTE PTR [ebp-0x8]
  1040da:	83 e0 f0             	and    eax,0xfffffff0
  1040dd:	09 c2                	or     edx,eax
  1040df:	8b 45 08             	mov    eax,DWORD PTR [ebp+0x8]
  1040e2:	88 14 c5 a6 90 11 00 	mov    BYTE PTR [eax*8+0x1190a6],dl
  1040e9:	8b 45 08             	mov    eax,DWORD PTR [ebp+0x8]
  1040ec:	0f b6 55 fc          	movzx  edx,BYTE PTR [ebp-0x4]
  1040f0:	88 14 c5 a5 90 11 00 	mov    BYTE PTR [eax*8+0x1190a5],dl
  1040f7:	90                   	nop
  1040f8:	c9                   	leave
  1040f9:	c3                   	ret
  1040fa:	55                   	push   ebp
  1040fb:	89 e5                	mov    ebp,esp
  1040fd:	6a 40                	push   0x40
  1040ff:	68 89 00 00 00       	push   0x89
  104104:	ff 75 10             	push   DWORD PTR [ebp+0x10]
  104107:	ff 75 0c             	push   DWORD PTR [ebp+0xc]
  10410a:	ff 75 08             	push   DWORD PTR [ebp+0x8]
  10410d:	e8 63 ff ff ff       	call   0x104075
  104112:	83 c4 14             	add    esp,0x14
  104115:	90                   	nop
  104116:	c9                   	leave
  104117:	c3                   	ret
  104118:	55                   	push   ebp
  104119:	89 e5                	mov    ebp,esp
  10411b:	57                   	push   edi
  10411c:	53                   	push   ebx
  10411d:	66 c7 05 d0 90 11 00 	mov    WORD PTR ds:0x1190d0,0x2f
  104124:	2f 00 
  104126:	b8 a0 90 11 00       	mov    eax,0x1190a0
  10412b:	a3 d2 90 11 00       	mov    ds:0x1190d2,eax
  104130:	6a 00                	push   0x0
  104132:	6a 00                	push   0x0
  104134:	6a 00                	push   0x0
  104136:	6a 00                	push   0x0
  104138:	6a 00                	push   0x0
  10413a:	e8 36 ff ff ff       	call   0x104075
  10413f:	83 c4 14             	add    esp,0x14
  104142:	68 cf 00 00 00       	push   0xcf
  104147:	68 9a 00 00 00       	push   0x9a
  10414c:	6a ff                	push   0xffffffff
  10414e:	6a 00                	push   0x0
  104150:	6a 01                	push   0x1
  104152:	e8 1e ff ff ff       	call   0x104075
  104157:	83 c4 14             	add    esp,0x14
  10415a:	68 cf 00 00 00       	push   0xcf
  10415f:	68 92 00 00 00       	push   0x92
  104164:	6a ff                	push   0xffffffff
  104166:	6a 00                	push   0x0
  104168:	6a 02                	push   0x2
  10416a:	e8 06 ff ff ff       	call   0x104075
  10416f:	83 c4 14             	add    esp,0x14
  104172:	68 cf 00 00 00       	push   0xcf
  104177:	68 fa 00 00 00       	push   0xfa
  10417c:	6a ff                	push   0xffffffff
  10417e:	6a 00                	push   0x0
  104180:	6a 03                	push   0x3
  104182:	e8 ee fe ff ff       	call   0x104075
  104187:	83 c4 14             	add    esp,0x14
  10418a:	68 cf 00 00 00       	push   0xcf
  10418f:	68 f3 00 00 00       	push   0xf3
  104194:	6a ff                	push   0xffffffff
  104196:	6a 00                	push   0x0
  104198:	6a 04                	push   0x4
  10419a:	e8 d6 fe ff ff       	call   0x104075
  10419f:	83 c4 14             	add    esp,0x14
  1041a2:	b8 e0 90 11 00       	mov    eax,0x1190e0
  1041a7:	6a 67                	push   0x67
  1041a9:	50                   	push   eax
  1041aa:	6a 05                	push   0x5
  1041ac:	e8 49 ff ff ff       	call   0x1040fa
  1041b1:	83 c4 0c             	add    esp,0xc
  1041b4:	bb e0 90 11 00       	mov    ebx,0x1190e0
  1041b9:	b8 00 00 00 00       	mov    eax,0x0
  1041be:	ba 1a 00 00 00       	mov    edx,0x1a
  1041c3:	89 df                	mov    edi,ebx
  1041c5:	89 d1                	mov    ecx,edx
  1041c7:	f3 ab                	rep stos DWORD PTR es:[edi],eax
  1041c9:	c7 05 e8 90 11 00 10 	mov    DWORD PTR ds:0x1190e8,0x10
  1041d0:	00 00 00 
  1041d3:	c7 05 e4 90 11 00 00 	mov    DWORD PTR ds:0x1190e4,0x90000
  1041da:	00 09 00 
  1041dd:	66 c7 05 46 91 11 00 	mov    WORD PTR ds:0x119146,0x68
  1041e4:	68 00 
  1041e6:	b8 01 00 00 00       	mov    eax,0x1
  1041eb:	8d 65 f8             	lea    esp,[ebp-0x8]
  1041ee:	5b                   	pop    ebx
  1041ef:	5f                   	pop    edi
  1041f0:	5d                   	pop    ebp
  1041f1:	c3                   	ret
  1041f2:	55                   	push   ebp
  1041f3:	89 e5                	mov    ebp,esp
  1041f5:	0f 01 15 d0 90 11 00 	lgdtd  ds:0x1190d0
  1041fc:	ea 03 32 10 00 08 00 	jmp    0x8:0x103203
  104203:	b8 10 00 00 00       	mov    eax,0x10
  104208:	8e d8                	mov    ds,eax
  10420a:	8e c0                	mov    es,eax
  10420c:	8e e0                	mov    fs,eax
  10420e:	8e e8                	mov    gs,eax
  104210:	8e d0                	mov    ss,eax
  104212:	b8 28 00 00 00       	mov    eax,0x28
  104217:	0f 00 d8             	ltr    eax
  10421a:	b8 01 00 00 00       	mov    eax,0x1
  10421f:	5d                   	pop    ebp
  104220:	c3                   	ret
  104221:	55                   	push   ebp
  104222:	89 e5                	mov    ebp,esp
  104224:	8b 45 08             	mov    eax,DWORD PTR [ebp+0x8]
  104227:	a3 e4 90 11 00       	mov    ds:0x1190e4,eax
  10422c:	90                   	nop
  10422d:	5d                   	pop    ebp
  10422e:	c3                   	ret
  10422f:	55                   	push   ebp
  104230:	89 e5                	mov    ebp,esp
  104232:	83 ec 08             	sub    esp,0x8
  104235:	8b 55 10             	mov    edx,DWORD PTR [ebp+0x10]
  104238:	8b 45 14             	mov    eax,DWORD PTR [ebp+0x14]
  10423b:	66 89 55 fc          	mov    WORD PTR [ebp-0x4],dx
  10423f:	88 45 f8             	mov    BYTE PTR [ebp-0x8],al
  104242:	8b 45 0c             	mov    eax,DWORD PTR [ebp+0xc]
  104245:	89 c2                	mov    edx,eax
  104247:	8b 45 08             	mov    eax,DWORD PTR [ebp+0x8]
  10424a:	66 89 14 c5 60 91 11 	mov    WORD PTR [eax*8+0x119160],dx
  104251:	00 
  104252:	8b 45 0c             	mov    eax,DWORD PTR [ebp+0xc]
  104255:	c1 e8 10             	shr    eax,0x10
  104258:	89 c2                	mov    edx,eax
  10425a:	8b 45 08             	mov    eax,DWORD PTR [ebp+0x8]
  10425d:	66 89 14 c5 66 91 11 	mov    WORD PTR [eax*8+0x119166],dx
  104264:	00 
  104265:	8b 45 08             	mov    eax,DWORD PTR [ebp+0x8]
  104268:	0f b7 55 fc          	movzx  edx,WORD PTR [ebp-0x4]
  10426c:	66 89 14 c5 62 91 11 	mov    WORD PTR [eax*8+0x119162],dx
  104273:	00 
  104274:	8b 45 08             	mov    eax,DWORD PTR [ebp+0x8]
  104277:	c6 04 c5 64 91 11 00 	mov    BYTE PTR [eax*8+0x119164],0x0
  10427e:	00 
  10427f:	8b 45 08             	mov    eax,DWORD PTR [ebp+0x8]
  104282:	0f b6 55 f8          	movzx  edx,BYTE PTR [ebp-0x8]
  104286:	88 14 c5 65 91 11 00 	mov    BYTE PTR [eax*8+0x119165],dl
  10428d:	90                   	nop
  10428e:	c9                   	leave
  10428f:	c3                   	ret
  104290:	55                   	push   ebp
  104291:	89 e5                	mov    ebp,esp
  104293:	83 ec 10             	sub    esp,0x10
  104296:	66 c7 05 60 99 11 00 	mov    WORD PTR ds:0x119960,0x7ff
  10429d:	ff 07 
  10429f:	b8 60 91 11 00       	mov    eax,0x119160
  1042a4:	a3 62 99 11 00       	mov    ds:0x119962,eax
  1042a9:	c7 45 fc 00 00 00 00 	mov    DWORD PTR [ebp-0x4],0x0
  1042b0:	eb 15                	jmp    0x1042c7
  1042b2:	6a 00                	push   0x0
  1042b4:	6a 00                	push   0x0
  1042b6:	6a 00                	push   0x0
  1042b8:	ff 75 fc             	push   DWORD PTR [ebp-0x4]
  1042bb:	e8 6f ff ff ff       	call   0x10422f
  1042c0:	83 c4 10             	add    esp,0x10
  1042c3:	83 45 fc 01          	add    DWORD PTR [ebp-0x4],0x1
  1042c7:	81 7d fc ff 00 00 00 	cmp    DWORD PTR [ebp-0x4],0xff
  1042ce:	7e e2                	jle    0x1042b2
  1042d0:	b8 01 00 00 00       	mov    eax,0x1
  1042d5:	c9                   	leave
  1042d6:	c3                   	ret
  1042d7:	55                   	push   ebp
  1042d8:	89 e5                	mov    ebp,esp
  1042da:	0f 01 1d 60 99 11 00 	lidtd  ds:0x119960
  1042e1:	b8 01 00 00 00       	mov    eax,0x1
  1042e6:	5d                   	pop    ebp
  1042e7:	c3                   	ret
  1042e8:	55                   	push   ebp
  1042e9:	89 e5                	mov    ebp,esp
  1042eb:	b8 28 35 10 00       	mov    eax,0x103528
  1042f0:	68 8f 00 00 00       	push   0x8f
  1042f5:	6a 08                	push   0x8
  1042f7:	50                   	push   eax
  1042f8:	6a 00                	push   0x0
  1042fa:	e8 30 ff ff ff       	call   0x10422f
  1042ff:	83 c4 10             	add    esp,0x10
  104302:	b8 30 35 10 00       	mov    eax,0x103530
  104307:	68 8f 00 00 00       	push   0x8f
  10430c:	6a 08                	push   0x8
  10430e:	50                   	push   eax
  10430f:	6a 01                	push   0x1
  104311:	e8 19 ff ff ff       	call   0x10422f
  104316:	83 c4 10             	add    esp,0x10
  104319:	b8 38 35 10 00       	mov    eax,0x103538
  10431e:	68 8f 00 00 00       	push   0x8f
  104323:	6a 08                	push   0x8
  104325:	50                   	push   eax
  104326:	6a 02                	push   0x2
  104328:	e8 02 ff ff ff       	call   0x10422f
  10432d:	83 c4 10             	add    esp,0x10
  104330:	b8 40 35 10 00       	mov    eax,0x103540
  104335:	68 8f 00 00 00       	push   0x8f
  10433a:	6a 08                	push   0x8
  10433c:	50                   	push   eax
  10433d:	6a 03                	push   0x3
  10433f:	e8 eb fe ff ff       	call   0x10422f
  104344:	83 c4 10             	add    esp,0x10
  104347:	b8 48 35 10 00       	mov    eax,0x103548
  10434c:	68 8f 00 00 00       	push   0x8f
  104351:	6a 08                	push   0x8
  104353:	50                   	push   eax
  104354:	6a 04                	push   0x4
  104356:	e8 d4 fe ff ff       	call   0x10422f
  10435b:	83 c4 10             	add    esp,0x10
  10435e:	b8 50 35 10 00       	mov    eax,0x103550
  104363:	68 8f 00 00 00       	push   0x8f
  104368:	6a 08                	push   0x8
  10436a:	50                   	push   eax
  10436b:	6a 05                	push   0x5
  10436d:	e8 bd fe ff ff       	call   0x10422f
  104372:	83 c4 10             	add    esp,0x10
  104375:	b8 58 35 10 00       	mov    eax,0x103558
  10437a:	68 8f 00 00 00       	push   0x8f
  10437f:	6a 08                	push   0x8
  104381:	50                   	push   eax
  104382:	6a 06                	push   0x6
  104384:	e8 a6 fe ff ff       	call   0x10422f
  104389:	83 c4 10             	add    esp,0x10
  10438c:	b8 60 35 10 00       	mov    eax,0x103560
  104391:	68 8f 00 00 00       	push   0x8f
  104396:	6a 08                	push   0x8
  104398:	50                   	push   eax
  104399:	6a 07                	push   0x7
  10439b:	e8 8f fe ff ff       	call   0x10422f
  1043a0:	83 c4 10             	add    esp,0x10
  1043a3:	b8 68 35 10 00       	mov    eax,0x103568
  1043a8:	68 8f 00 00 00       	push   0x8f
  1043ad:	6a 08                	push   0x8
  1043af:	50                   	push   eax
  1043b0:	6a 08                	push   0x8
  1043b2:	e8 78 fe ff ff       	call   0x10422f
  1043b7:	83 c4 10             	add    esp,0x10
  1043ba:	b8 6c 35 10 00       	mov    eax,0x10356c
  1043bf:	68 8f 00 00 00       	push   0x8f
  1043c4:	6a 08                	push   0x8
  1043c6:	50                   	push   eax
  1043c7:	6a 09                	push   0x9
  1043c9:	e8 61 fe ff ff       	call   0x10422f
  1043ce:	83 c4 10             	add    esp,0x10
  1043d1:	b8 74 35 10 00       	mov    eax,0x103574
  1043d6:	68 8f 00 00 00       	push   0x8f
  1043db:	6a 08                	push   0x8
  1043dd:	50                   	push   eax
  1043de:	6a 0a                	push   0xa
  1043e0:	e8 4a fe ff ff       	call   0x10422f
  1043e5:	83 c4 10             	add    esp,0x10
  1043e8:	b8 78 35 10 00       	mov    eax,0x103578
  1043ed:	68 8f 00 00 00       	push   0x8f
  1043f2:	6a 08                	push   0x8
  1043f4:	50                   	push   eax
  1043f5:	6a 0b                	push   0xb
  1043f7:	e8 33 fe ff ff       	call   0x10422f
  1043fc:	83 c4 10             	add    esp,0x10
  1043ff:	b8 7c 35 10 00       	mov    eax,0x10357c
  104404:	68 8f 00 00 00       	push   0x8f
  104409:	6a 08                	push   0x8
  10440b:	50                   	push   eax
  10440c:	6a 0c                	push   0xc
  10440e:	e8 1c fe ff ff       	call   0x10422f
  104413:	83 c4 10             	add    esp,0x10
  104416:	b8 80 35 10 00       	mov    eax,0x103580
  10441b:	68 8f 00 00 00       	push   0x8f
  104420:	6a 08                	push   0x8
  104422:	50                   	push   eax
  104423:	6a 0d                	push   0xd
  104425:	e8 05 fe ff ff       	call   0x10422f
  10442a:	83 c4 10             	add    esp,0x10
  10442d:	b8 84 35 10 00       	mov    eax,0x103584
  104432:	68 8f 00 00 00       	push   0x8f
  104437:	6a 08                	push   0x8
  104439:	50                   	push   eax
  10443a:	6a 0e                	push   0xe
  10443c:	e8 ee fd ff ff       	call   0x10422f
  104441:	83 c4 10             	add    esp,0x10
  104444:	b8 88 35 10 00       	mov    eax,0x103588
  104449:	68 8f 00 00 00       	push   0x8f
  10444e:	6a 08                	push   0x8
  104450:	50                   	push   eax
  104451:	6a 0f                	push   0xf
  104453:	e8 d7 fd ff ff       	call   0x10422f
  104458:	83 c4 10             	add    esp,0x10
  10445b:	b8 90 35 10 00       	mov    eax,0x103590
  104460:	68 8f 00 00 00       	push   0x8f
  104465:	6a 08                	push   0x8
  104467:	50                   	push   eax
  104468:	6a 10                	push   0x10
  10446a:	e8 c0 fd ff ff       	call   0x10422f
  10446f:	83 c4 10             	add    esp,0x10
  104472:	b8 9c 35 10 00       	mov    eax,0x10359c
  104477:	68 8f 00 00 00       	push   0x8f
  10447c:	6a 08                	push   0x8
  10447e:	50                   	push   eax
  10447f:	6a 11                	push   0x11
  104481:	e8 a9 fd ff ff       	call   0x10422f
  104486:	83 c4 10             	add    esp,0x10
  104489:	b8 a4 35 10 00       	mov    eax,0x1035a4
  10448e:	68 8f 00 00 00       	push   0x8f
  104493:	6a 08                	push   0x8
  104495:	50                   	push   eax
  104496:	6a 12                	push   0x12
  104498:	e8 92 fd ff ff       	call   0x10422f
  10449d:	83 c4 10             	add    esp,0x10
  1044a0:	b8 b0 35 10 00       	mov    eax,0x1035b0
  1044a5:	68 8f 00 00 00       	push   0x8f
  1044aa:	6a 08                	push   0x8
  1044ac:	50                   	push   eax
  1044ad:	6a 13                	push   0x13
  1044af:	e8 7b fd ff ff       	call   0x10422f
  1044b4:	83 c4 10             	add    esp,0x10
  1044b7:	b8 bc 35 10 00       	mov    eax,0x1035bc
  1044bc:	68 ee 00 00 00       	push   0xee
  1044c1:	6a 08                	push   0x8
  1044c3:	50                   	push   eax
  1044c4:	68 80 00 00 00       	push   0x80
  1044c9:	e8 61 fd ff ff       	call   0x10422f
  1044ce:	83 c4 10             	add    esp,0x10
  1044d1:	b8 e0 35 10 00       	mov    eax,0x1035e0
  1044d6:	68 8e 00 00 00       	push   0x8e
  1044db:	6a 08                	push   0x8
  1044dd:	50                   	push   eax
  1044de:	6a 20                	push   0x20
  1044e0:	e8 4a fd ff ff       	call   0x10422f
  1044e5:	83 c4 10             	add    esp,0x10
  1044e8:	b8 01 00 00 00       	mov    eax,0x1
  1044ed:	c9                   	leave
  1044ee:	c3                   	ret
  1044ef:	55                   	push   ebp
  1044f0:	89 e5                	mov    ebp,esp
  1044f2:	b8 ec 35 10 00       	mov    eax,0x1035ec
  1044f7:	68 8e 00 00 00       	push   0x8e
  1044fc:	6a 08                	push   0x8
  1044fe:	50                   	push   eax
  1044ff:	6a 2c                	push   0x2c
  104501:	e8 29 fd ff ff       	call   0x10422f
  104506:	83 c4 10             	add    esp,0x10
  104509:	b8 01 00 00 00       	mov    eax,0x1
  10450e:	c9                   	leave
  10450f:	c3                   	ret
  104510:	50                   	push   eax
  104511:	53                   	push   ebx
  104512:	51                   	push   ecx
  104513:	52                   	push   edx
  104514:	56                   	push   esi
  104515:	57                   	push   edi
  104516:	55                   	push   ebp
  104517:	e8 71 08 00 00       	call   0x104d8d
  10451c:	5d                   	pop    ebp
  10451d:	5f                   	pop    edi
  10451e:	5e                   	pop    esi
  10451f:	5a                   	pop    edx
  104520:	59                   	pop    ecx
  104521:	5b                   	pop    ebx
  104522:	58                   	pop    eax
  104523:	83 c4 08             	add    esp,0x8
  104526:	cf                   	iret
  104527:	90                   	nop
  104528:	6a 00                	push   0x0
  10452a:	6a 00                	push   0x0
  10452c:	eb e2                	jmp    0x104510
  10452e:	66 90                	xchg   ax,ax
  104530:	6a 01                	push   0x1
  104532:	6a 00                	push   0x0
  104534:	eb da                	jmp    0x104510
  104536:	66 90                	xchg   ax,ax
  104538:	6a 02                	push   0x2
  10453a:	6a 00                	push   0x0
  10453c:	eb d2                	jmp    0x104510
  10453e:	66 90                	xchg   ax,ax
  104540:	6a 03                	push   0x3
  104542:	6a 00                	push   0x0
  104544:	eb ca                	jmp    0x104510
  104546:	66 90                	xchg   ax,ax
  104548:	6a 04                	push   0x4
  10454a:	6a 00                	push   0x0
  10454c:	eb c2                	jmp    0x104510
  10454e:	66 90                	xchg   ax,ax
  104550:	6a 05                	push   0x5
  104552:	6a 00                	push   0x0
  104554:	eb ba                	jmp    0x104510
  104556:	66 90                	xchg   ax,ax
  104558:	6a 06                	push   0x6
  10455a:	6a 00                	push   0x0
  10455c:	eb b2                	jmp    0x104510
  10455e:	66 90                	xchg   ax,ax
  104560:	6a 07                	push   0x7
  104562:	6a 00                	push   0x0
  104564:	eb aa                	jmp    0x104510
  104566:	66 90                	xchg   ax,ax
  104568:	6a 08                	push   0x8
  10456a:	eb a4                	jmp    0x104510
  10456c:	6a 09                	push   0x9
  10456e:	6a 00                	push   0x0
  104570:	eb 9e                	jmp    0x104510
  104572:	66 90                	xchg   ax,ax
  104574:	6a 0a                	push   0xa
  104576:	eb 98                	jmp    0x104510
  104578:	6a 0b                	push   0xb
  10457a:	eb 94                	jmp    0x104510
  10457c:	6a 0c                	push   0xc
  10457e:	eb 90                	jmp    0x104510
  104580:	6a 0d                	push   0xd
  104582:	eb 8c                	jmp    0x104510
  104584:	6a 0e                	push   0xe
  104586:	eb 88                	jmp    0x104510
  104588:	6a 0f                	push   0xf
  10458a:	6a 00                	push   0x0
  10458c:	eb 82                	jmp    0x104510
  10458e:	66 90                	xchg   ax,ax
  104590:	6a 10                	push   0x10
  104592:	6a 00                	push   0x0
  104594:	e9 77 ff ff ff       	jmp    0x104510
  104599:	8d 76 00             	lea    esi,[esi+0x0]
  10459c:	6a 11                	push   0x11
  10459e:	e9 6d ff ff ff       	jmp    0x104510
  1045a3:	90                   	nop
  1045a4:	6a 12                	push   0x12
  1045a6:	6a 00                	push   0x0
  1045a8:	e9 63 ff ff ff       	jmp    0x104510
  1045ad:	8d 76 00             	lea    esi,[esi+0x0]
  1045b0:	6a 13                	push   0x13
  1045b2:	6a 00                	push   0x0
  1045b4:	e9 57 ff ff ff       	jmp    0x104510
  1045b9:	8d 76 00             	lea    esi,[esi+0x0]
  1045bc:	55                   	push   ebp
  1045bd:	89 e5                	mov    ebp,esp
  1045bf:	53                   	push   ebx
  1045c0:	57                   	push   edi
  1045c1:	56                   	push   esi
  1045c2:	89 ef                	mov    edi,ebp
  1045c4:	83 c7 14             	add    edi,0x14
  1045c7:	83 c7 0c             	add    edi,0xc
  1045ca:	57                   	push   edi
  1045cb:	56                   	push   esi
  1045cc:	52                   	push   edx
  1045cd:	51                   	push   ecx
  1045ce:	53                   	push   ebx
  1045cf:	50                   	push   eax
  1045d0:	e8 cc 09 00 00       	call   0x104fa1
  1045d5:	83 c4 18             	add    esp,0x18
  1045d8:	5e                   	pop    esi
  1045d9:	5f                   	pop    edi
  1045da:	5b                   	pop    ebx
  1045db:	5d                   	pop    ebp
  1045dc:	cf                   	iret
  1045dd:	8d 76 00             	lea    esi,[esi+0x0]
  1045e0:	60                   	pusha
  1045e1:	e8 a2 1a 00 00       	call   0x106088
  1045e6:	b0 20                	mov    al,0x20
  1045e8:	e6 20                	out    0x20,al
  1045ea:	61                   	popa
  1045eb:	cf                   	iret
  1045ec:	60                   	pusha
  1045ed:	e8 8d ec ff ff       	call   0x10327f
  1045f2:	b0 20                	mov    al,0x20
  1045f4:	e6 a0                	out    0xa0,al
  1045f6:	e6 20                	out    0x20,al
  1045f8:	61                   	popa
  1045f9:	cf                   	iret
  1045fa:	55                   	push   ebp
  1045fb:	89 e5                	mov    ebp,esp
  1045fd:	83 ec 28             	sub    esp,0x28
  104600:	c7 45 e3 30 31 32 33 	mov    DWORD PTR [ebp-0x1d],0x33323130
  104607:	c7 45 e7 34 35 36 37 	mov    DWORD PTR [ebp-0x19],0x37363534
  10460e:	c7 45 eb 38 39 41 42 	mov    DWORD PTR [ebp-0x15],0x42413938
  104615:	c7 45 ef 43 44 45 46 	mov    DWORD PTR [ebp-0x11],0x46454443
  10461c:	c6 45 f3 00          	mov    BYTE PTR [ebp-0xd],0x0
  104620:	c6 45 d8 30          	mov    BYTE PTR [ebp-0x28],0x30
  104624:	c6 45 d9 78          	mov    BYTE PTR [ebp-0x27],0x78
  104628:	c7 45 f4 07 00 00 00 	mov    DWORD PTR [ebp-0xc],0x7
  10462f:	eb 29                	jmp    0x10465a
  104631:	8b 45 f4             	mov    eax,DWORD PTR [ebp-0xc]
  104634:	c1 e0 02             	shl    eax,0x2
  104637:	8b 55 08             	mov    edx,DWORD PTR [ebp+0x8]
  10463a:	89 c1                	mov    ecx,eax
  10463c:	d3 ea                	shr    edx,cl
  10463e:	89 d0                	mov    eax,edx
  104640:	83 e0 0f             	and    eax,0xf
  104643:	89 c2                	mov    edx,eax
  104645:	b8 09 00 00 00       	mov    eax,0x9
  10464a:	2b 45 f4             	sub    eax,DWORD PTR [ebp-0xc]
  10464d:	0f b6 54 15 e3       	movzx  edx,BYTE PTR [ebp+edx*1-0x1d]
  104652:	88 54 05 d8          	mov    BYTE PTR [ebp+eax*1-0x28],dl
  104656:	83 6d f4 01          	sub    DWORD PTR [ebp-0xc],0x1
  10465a:	83 7d f4 00          	cmp    DWORD PTR [ebp-0xc],0x0
  10465e:	79 d1                	jns    0x104631
  104660:	c6 45 e2 00          	mov    BYTE PTR [ebp-0x1e],0x0
  104664:	83 ec 0c             	sub    esp,0xc
  104667:	8d 45 d8             	lea    eax,[ebp-0x28]
  10466a:	50                   	push   eax
  10466b:	e8 3e ce ff ff       	call   0x1014ae
  104670:	83 c4 10             	add    esp,0x10
  104673:	90                   	nop
  104674:	c9                   	leave
  104675:	c3                   	ret
  104676:	55                   	push   ebp
  104677:	89 e5                	mov    ebp,esp
  104679:	83 ec 28             	sub    esp,0x28
  10467c:	c7 45 e3 30 31 32 33 	mov    DWORD PTR [ebp-0x1d],0x33323130
  104683:	c7 45 e7 34 35 36 37 	mov    DWORD PTR [ebp-0x19],0x37363534
  10468a:	c7 45 eb 38 39 41 42 	mov    DWORD PTR [ebp-0x15],0x42413938
  104691:	c7 45 ef 43 44 45 46 	mov    DWORD PTR [ebp-0x11],0x46454443
  104698:	c6 45 f3 00          	mov    BYTE PTR [ebp-0xd],0x0
  10469c:	c6 45 d8 30          	mov    BYTE PTR [ebp-0x28],0x30
  1046a0:	c6 45 d9 78          	mov    BYTE PTR [ebp-0x27],0x78
  1046a4:	c7 45 f4 07 00 00 00 	mov    DWORD PTR [ebp-0xc],0x7
  1046ab:	eb 29                	jmp    0x1046d6
  1046ad:	8b 45 f4             	mov    eax,DWORD PTR [ebp-0xc]
  1046b0:	c1 e0 02             	shl    eax,0x2
  1046b3:	8b 55 10             	mov    edx,DWORD PTR [ebp+0x10]
  1046b6:	89 c1                	mov    ecx,eax
  1046b8:	d3 ea                	shr    edx,cl
  1046ba:	89 d0                	mov    eax,edx
  1046bc:	83 e0 0f             	and    eax,0xf
  1046bf:	89 c2                	mov    edx,eax
  1046c1:	b8 09 00 00 00       	mov    eax,0x9
  1046c6:	2b 45 f4             	sub    eax,DWORD PTR [ebp-0xc]
  1046c9:	0f b6 54 15 e3       	movzx  edx,BYTE PTR [ebp+edx*1-0x1d]
  1046ce:	88 54 05 d8          	mov    BYTE PTR [ebp+eax*1-0x28],dl
  1046d2:	83 6d f4 01          	sub    DWORD PTR [ebp-0xc],0x1
  1046d6:	83 7d f4 00          	cmp    DWORD PTR [ebp-0xc],0x0
  1046da:	79 d1                	jns    0x1046ad
  1046dc:	c6 45 e2 00          	mov    BYTE PTR [ebp-0x1e],0x0
  1046e0:	83 ec 04             	sub    esp,0x4
  1046e3:	8d 45 d8             	lea    eax,[ebp-0x28]
  1046e6:	50                   	push   eax
  1046e7:	ff 75 0c             	push   DWORD PTR [ebp+0xc]
  1046ea:	ff 75 08             	push   DWORD PTR [ebp+0x8]
  1046ed:	e8 e1 d0 ff ff       	call   0x1017d3
  1046f2:	83 c4 10             	add    esp,0x10
  1046f5:	90                   	nop
  1046f6:	c9                   	leave
  1046f7:	c3                   	ret
  1046f8:	55                   	push   ebp
  1046f9:	89 e5                	mov    ebp,esp
  1046fb:	83 7d 08 1e          	cmp    DWORD PTR [ebp+0x8],0x1e
  1046ff:	0f 87 ab 00 00 00    	ja     0x1047b0
  104705:	8b 45 08             	mov    eax,DWORD PTR [ebp+0x8]
  104708:	c1 e0 02             	shl    eax,0x2
  10470b:	05 7c 6b 10 00       	add    eax,0x106b7c
  104710:	8b 00                	mov    eax,DWORD PTR [eax]
  104712:	ff e0                	jmp    eax
  104714:	b8 f0 69 10 00       	mov    eax,0x1069f0
  104719:	e9 97 00 00 00       	jmp    0x1047b5
  10471e:	b8 ff 69 10 00       	mov    eax,0x1069ff
  104723:	e9 8d 00 00 00       	jmp    0x1047b5
  104728:	b8 0f 6a 10 00       	mov    eax,0x106a0f
  10472d:	e9 83 00 00 00       	jmp    0x1047b5
  104732:	b8 26 6a 10 00       	mov    eax,0x106a26
  104737:	eb 7c                	jmp    0x1047b5
  104739:	b8 31 6a 10 00       	mov    eax,0x106a31
  10473e:	eb 75                	jmp    0x1047b5
  104740:	b8 3a 6a 10 00       	mov    eax,0x106a3a
  104745:	eb 6e                	jmp    0x1047b5
  104747:	b8 4f 6a 10 00       	mov    eax,0x106a4f
  10474c:	eb 67                	jmp    0x1047b5
  10474e:	b8 5e 6a 10 00       	mov    eax,0x106a5e
  104753:	eb 60                	jmp    0x1047b5
  104755:	b8 73 6a 10 00       	mov    eax,0x106a73
  10475a:	eb 59                	jmp    0x1047b5
  10475c:	b8 80 6a 10 00       	mov    eax,0x106a80
  104761:	eb 52                	jmp    0x1047b5
  104763:	b8 9c 6a 10 00       	mov    eax,0x106a9c
  104768:	eb 4b                	jmp    0x1047b5
  10476a:	b8 a8 6a 10 00       	mov    eax,0x106aa8
  10476f:	eb 44                	jmp    0x1047b5
  104771:	b8 bc 6a 10 00       	mov    eax,0x106abc
  104776:	eb 3d                	jmp    0x1047b5
  104778:	b8 d0 6a 10 00       	mov    eax,0x106ad0
  10477d:	eb 36                	jmp    0x1047b5
  10477f:	b8 e9 6a 10 00       	mov    eax,0x106ae9
  104784:	eb 2f                	jmp    0x1047b5
  104786:	b8 f4 6a 10 00       	mov    eax,0x106af4
  10478b:	eb 28                	jmp    0x1047b5
  10478d:	b8 02 6b 10 00       	mov    eax,0x106b02
  104792:	eb 21                	jmp    0x1047b5
  104794:	b8 12 6b 10 00       	mov    eax,0x106b12
  104799:	eb 1a                	jmp    0x1047b5
  10479b:	b8 20 6b 10 00       	mov    eax,0x106b20
  1047a0:	eb 13                	jmp    0x1047b5
  1047a2:	b8 3e 6b 10 00       	mov    eax,0x106b3e
  1047a7:	eb 0c                	jmp    0x1047b5
  1047a9:	b8 57 6b 10 00       	mov    eax,0x106b57
  1047ae:	eb 05                	jmp    0x1047b5
  1047b0:	b8 6a 6b 10 00       	mov    eax,0x106b6a
  1047b5:	5d                   	pop    ebp
  1047b6:	c3                   	ret
  1047b7:	55                   	push   ebp
  1047b8:	89 e5                	mov    ebp,esp
  1047ba:	83 7d 08 0e          	cmp    DWORD PTR [ebp+0x8],0xe
  1047be:	74 35                	je     0x1047f5
  1047c0:	83 7d 08 0e          	cmp    DWORD PTR [ebp+0x8],0xe
  1047c4:	77 36                	ja     0x1047fc
  1047c6:	83 7d 08 0d          	cmp    DWORD PTR [ebp+0x8],0xd
  1047ca:	74 22                	je     0x1047ee
  1047cc:	83 7d 08 0d          	cmp    DWORD PTR [ebp+0x8],0xd
  1047d0:	77 2a                	ja     0x1047fc
  1047d2:	83 7d 08 00          	cmp    DWORD PTR [ebp+0x8],0x0
  1047d6:	74 08                	je     0x1047e0
  1047d8:	83 7d 08 06          	cmp    DWORD PTR [ebp+0x8],0x6
  1047dc:	74 09                	je     0x1047e7
  1047de:	eb 1c                	jmp    0x1047fc
  1047e0:	b8 f8 6b 10 00       	mov    eax,0x106bf8
  1047e5:	eb 1a                	jmp    0x104801
  1047e7:	b8 14 6c 10 00       	mov    eax,0x106c14
  1047ec:	eb 13                	jmp    0x104801
  1047ee:	b8 38 6c 10 00       	mov    eax,0x106c38
  1047f3:	eb 0c                	jmp    0x104801
  1047f5:	b8 60 6c 10 00       	mov    eax,0x106c60
  1047fa:	eb 05                	jmp    0x104801
  1047fc:	b8 8a 6c 10 00       	mov    eax,0x106c8a
  104801:	5d                   	pop    ebp
  104802:	c3                   	ret
  104803:	55                   	push   ebp
  104804:	89 e5                	mov    ebp,esp
  104806:	83 ec 08             	sub    esp,0x8
  104809:	83 ec 0c             	sub    esp,0xc
  10480c:	68 a2 6c 10 00       	push   0x106ca2
  104811:	e8 98 cc ff ff       	call   0x1014ae
  104816:	83 c4 10             	add    esp,0x10
  104819:	83 ec 0c             	sub    esp,0xc
  10481c:	ff 75 08             	push   DWORD PTR [ebp+0x8]
  10481f:	e8 d6 fd ff ff       	call   0x1045fa
  104824:	83 c4 10             	add    esp,0x10
  104827:	83 ec 0c             	sub    esp,0xc
  10482a:	68 b6 6c 10 00       	push   0x106cb6
  10482f:	e8 7a cc ff ff       	call   0x1014ae
  104834:	83 c4 10             	add    esp,0x10
  104837:	83 ec 0c             	sub    esp,0xc
  10483a:	ff 75 08             	push   DWORD PTR [ebp+0x8]
  10483d:	e8 b6 fe ff ff       	call   0x1046f8
  104842:	83 c4 10             	add    esp,0x10
  104845:	83 ec 0c             	sub    esp,0xc
  104848:	50                   	push   eax
  104849:	e8 60 cc ff ff       	call   0x1014ae
  10484e:	83 c4 10             	add    esp,0x10
  104851:	83 ec 0c             	sub    esp,0xc
  104854:	68 b9 6c 10 00       	push   0x106cb9
  104859:	e8 50 cc ff ff       	call   0x1014ae
  10485e:	83 c4 10             	add    esp,0x10
  104861:	83 ec 0c             	sub    esp,0xc
  104864:	ff 75 0c             	push   DWORD PTR [ebp+0xc]
  104867:	e8 8e fd ff ff       	call   0x1045fa
  10486c:	83 c4 10             	add    esp,0x10
  10486f:	83 ec 0c             	sub    esp,0xc
  104872:	68 cc 6c 10 00       	push   0x106ccc
  104877:	e8 32 cc ff ff       	call   0x1014ae
  10487c:	83 c4 10             	add    esp,0x10
  10487f:	a1 04 90 11 00       	mov    eax,ds:0x119004
  104884:	83 ec 0c             	sub    esp,0xc
  104887:	50                   	push   eax
  104888:	e8 27 06 00 00       	call   0x104eb4
  10488d:	83 c4 10             	add    esp,0x10
  104890:	90                   	nop
  104891:	c9                   	leave
  104892:	c3                   	ret
  104893:	55                   	push   ebp
  104894:	89 e5                	mov    ebp,esp
  104896:	83 ec 38             	sub    esp,0x38
  104899:	89 6d f4             	mov    DWORD PTR [ebp-0xc],ebp
  10489c:	8b 45 f4             	mov    eax,DWORD PTR [ebp-0xc]
  10489f:	8b 40 e4             	mov    eax,DWORD PTR [eax-0x1c]
  1048a2:	89 45 f0             	mov    DWORD PTR [ebp-0x10],eax
  1048a5:	8b 45 f4             	mov    eax,DWORD PTR [ebp-0xc]
  1048a8:	8b 40 e8             	mov    eax,DWORD PTR [eax-0x18]
  1048ab:	89 45 ec             	mov    DWORD PTR [ebp-0x14],eax
  1048ae:	8b 45 f4             	mov    eax,DWORD PTR [ebp-0xc]
  1048b1:	8b 40 ec             	mov    eax,DWORD PTR [eax-0x14]
  1048b4:	89 45 e8             	mov    DWORD PTR [ebp-0x18],eax
  1048b7:	8b 45 f4             	mov    eax,DWORD PTR [ebp-0xc]
  1048ba:	8b 40 f0             	mov    eax,DWORD PTR [eax-0x10]
  1048bd:	89 45 e4             	mov    DWORD PTR [ebp-0x1c],eax
  1048c0:	8b 45 f4             	mov    eax,DWORD PTR [ebp-0xc]
  1048c3:	8b 40 f4             	mov    eax,DWORD PTR [eax-0xc]
  1048c6:	89 45 e0             	mov    DWORD PTR [ebp-0x20],eax
  1048c9:	8b 45 f4             	mov    eax,DWORD PTR [ebp-0xc]
  1048cc:	8b 40 f8             	mov    eax,DWORD PTR [eax-0x8]
  1048cf:	89 45 dc             	mov    DWORD PTR [ebp-0x24],eax
  1048d2:	8b 45 f4             	mov    eax,DWORD PTR [ebp-0xc]
  1048d5:	8b 40 fc             	mov    eax,DWORD PTR [eax-0x4]
  1048d8:	89 45 d8             	mov    DWORD PTR [ebp-0x28],eax
  1048db:	8b 45 f4             	mov    eax,DWORD PTR [ebp-0xc]
  1048de:	83 c0 1c             	add    eax,0x1c
  1048e1:	89 45 d4             	mov    DWORD PTR [ebp-0x2c],eax
  1048e4:	0f 20 c0             	mov    eax,cr0
  1048e7:	89 45 d0             	mov    DWORD PTR [ebp-0x30],eax
  1048ea:	0f 20 d0             	mov    eax,cr2
  1048ed:	89 45 cc             	mov    DWORD PTR [ebp-0x34],eax
  1048f0:	0f 20 d8             	mov    eax,cr3
  1048f3:	89 45 c8             	mov    DWORD PTR [ebp-0x38],eax
  1048f6:	e8 48 d9 ff ff       	call   0x102243
  1048fb:	e8 9a ca ff ff       	call   0x10139a
  104900:	83 ec 08             	sub    esp,0x8
  104903:	6a 00                	push   0x0
  104905:	6a 07                	push   0x7
  104907:	e8 e4 ca ff ff       	call   0x1013f0
  10490c:	83 c4 10             	add    esp,0x10
  10490f:	83 ec 04             	sub    esp,0x4
  104912:	68 f8 6c 10 00       	push   0x106cf8
  104917:	6a 00                	push   0x0
  104919:	6a 00                	push   0x0
  10491b:	e8 b3 ce ff ff       	call   0x1017d3
  104920:	83 c4 10             	add    esp,0x10
  104923:	83 ec 04             	sub    esp,0x4
  104926:	68 4c 6d 10 00       	push   0x106d4c
  10492b:	6a 01                	push   0x1
  10492d:	6a 00                	push   0x0
  10492f:	e8 9f ce ff ff       	call   0x1017d3
  104934:	83 c4 10             	add    esp,0x10
  104937:	83 ec 08             	sub    esp,0x8
  10493a:	6a 00                	push   0x0
  10493c:	6a 0c                	push   0xc
  10493e:	e8 ad ca ff ff       	call   0x1013f0
  104943:	83 c4 10             	add    esp,0x10
  104946:	83 ec 04             	sub    esp,0x4
  104949:	68 9d 6d 10 00       	push   0x106d9d
  10494e:	6a 01                	push   0x1
  104950:	6a 20                	push   0x20
  104952:	e8 7c ce ff ff       	call   0x1017d3
  104957:	83 c4 10             	add    esp,0x10
  10495a:	83 ec 08             	sub    esp,0x8
  10495d:	6a 00                	push   0x0
  10495f:	6a 07                	push   0x7
  104961:	e8 8a ca ff ff       	call   0x1013f0
  104966:	83 c4 10             	add    esp,0x10
  104969:	83 ec 04             	sub    esp,0x4
  10496c:	68 4c 6d 10 00       	push   0x106d4c
  104971:	6a 02                	push   0x2
  104973:	6a 00                	push   0x0
  104975:	e8 59 ce ff ff       	call   0x1017d3
  10497a:	83 c4 10             	add    esp,0x10
  10497d:	83 ec 04             	sub    esp,0x4
  104980:	68 f8 6c 10 00       	push   0x106cf8
  104985:	6a 03                	push   0x3
  104987:	6a 00                	push   0x0
  104989:	e8 45 ce ff ff       	call   0x1017d3
  10498e:	83 c4 10             	add    esp,0x10
  104991:	83 ec 08             	sub    esp,0x8
  104994:	6a 00                	push   0x0
  104996:	6a 0e                	push   0xe
  104998:	e8 53 ca ff ff       	call   0x1013f0
  10499d:	83 c4 10             	add    esp,0x10
  1049a0:	83 ec 04             	sub    esp,0x4
  1049a3:	68 ab 6d 10 00       	push   0x106dab
  1049a8:	6a 05                	push   0x5
  1049aa:	6a 02                	push   0x2
  1049ac:	e8 22 ce ff ff       	call   0x1017d3
  1049b1:	83 c4 10             	add    esp,0x10
  1049b4:	83 ec 08             	sub    esp,0x8
  1049b7:	6a 00                	push   0x0
  1049b9:	6a 0b                	push   0xb
  1049bb:	e8 30 ca ff ff       	call   0x1013f0
  1049c0:	83 c4 10             	add    esp,0x10
  1049c3:	83 ec 04             	sub    esp,0x4
  1049c6:	68 c2 6d 10 00       	push   0x106dc2
  1049cb:	6a 06                	push   0x6
  1049cd:	6a 04                	push   0x4
  1049cf:	e8 ff cd ff ff       	call   0x1017d3
  1049d4:	83 c4 10             	add    esp,0x10
  1049d7:	83 ec 08             	sub    esp,0x8
  1049da:	6a 00                	push   0x0
  1049dc:	6a 0f                	push   0xf
  1049de:	e8 0d ca ff ff       	call   0x1013f0
  1049e3:	83 c4 10             	add    esp,0x10
  1049e6:	83 ec 0c             	sub    esp,0xc
  1049e9:	ff 75 08             	push   DWORD PTR [ebp+0x8]
  1049ec:	e8 07 fd ff ff       	call   0x1046f8
  1049f1:	83 c4 10             	add    esp,0x10
  1049f4:	83 ec 04             	sub    esp,0x4
  1049f7:	50                   	push   eax
  1049f8:	6a 06                	push   0x6
  1049fa:	6a 14                	push   0x14
  1049fc:	e8 d2 cd ff ff       	call   0x1017d3
  104a01:	83 c4 10             	add    esp,0x10
  104a04:	83 ec 08             	sub    esp,0x8
  104a07:	6a 00                	push   0x0
  104a09:	6a 0b                	push   0xb
  104a0b:	e8 e0 c9 ff ff       	call   0x1013f0
  104a10:	83 c4 10             	add    esp,0x10
  104a13:	83 ec 04             	sub    esp,0x4
  104a16:	68 c8 6d 10 00       	push   0x106dc8
  104a1b:	6a 07                	push   0x7
  104a1d:	6a 04                	push   0x4
  104a1f:	e8 af cd ff ff       	call   0x1017d3
  104a24:	83 c4 10             	add    esp,0x10
  104a27:	83 ec 08             	sub    esp,0x8
  104a2a:	6a 00                	push   0x0
  104a2c:	6a 0f                	push   0xf
  104a2e:	e8 bd c9 ff ff       	call   0x1013f0
  104a33:	83 c4 10             	add    esp,0x10
  104a36:	83 ec 04             	sub    esp,0x4
  104a39:	ff 75 08             	push   DWORD PTR [ebp+0x8]
  104a3c:	6a 07                	push   0x7
  104a3e:	6a 14                	push   0x14
  104a40:	e8 31 fc ff ff       	call   0x104676
  104a45:	83 c4 10             	add    esp,0x10
  104a48:	83 ec 08             	sub    esp,0x8
  104a4b:	6a 00                	push   0x0
  104a4d:	6a 0b                	push   0xb
  104a4f:	e8 9c c9 ff ff       	call   0x1013f0
  104a54:	83 c4 10             	add    esp,0x10
  104a57:	83 ec 04             	sub    esp,0x4
  104a5a:	68 d0 6d 10 00       	push   0x106dd0
  104a5f:	6a 08                	push   0x8
  104a61:	6a 04                	push   0x4
  104a63:	e8 6b cd ff ff       	call   0x1017d3
  104a68:	83 c4 10             	add    esp,0x10
  104a6b:	83 ec 08             	sub    esp,0x8
  104a6e:	6a 00                	push   0x0
  104a70:	6a 0f                	push   0xf
  104a72:	e8 79 c9 ff ff       	call   0x1013f0
  104a77:	83 c4 10             	add    esp,0x10
  104a7a:	83 ec 04             	sub    esp,0x4
  104a7d:	ff 75 0c             	push   DWORD PTR [ebp+0xc]
  104a80:	6a 08                	push   0x8
  104a82:	6a 14                	push   0x14
  104a84:	e8 ed fb ff ff       	call   0x104676
  104a89:	83 c4 10             	add    esp,0x10
  104a8c:	83 ec 08             	sub    esp,0x8
  104a8f:	6a 00                	push   0x0
  104a91:	6a 0b                	push   0xb
  104a93:	e8 58 c9 ff ff       	call   0x1013f0
  104a98:	83 c4 10             	add    esp,0x10
  104a9b:	83 ec 04             	sub    esp,0x4
  104a9e:	68 dc 6d 10 00       	push   0x106ddc
  104aa3:	6a 09                	push   0x9
  104aa5:	6a 04                	push   0x4
  104aa7:	e8 27 cd ff ff       	call   0x1017d3
  104aac:	83 c4 10             	add    esp,0x10
  104aaf:	83 ec 08             	sub    esp,0x8
  104ab2:	6a 00                	push   0x0
  104ab4:	6a 07                	push   0x7
  104ab6:	e8 35 c9 ff ff       	call   0x1013f0
  104abb:	83 c4 10             	add    esp,0x10
  104abe:	83 ec 0c             	sub    esp,0xc
  104ac1:	ff 75 08             	push   DWORD PTR [ebp+0x8]
  104ac4:	e8 ee fc ff ff       	call   0x1047b7
  104ac9:	83 c4 10             	add    esp,0x10
  104acc:	83 ec 04             	sub    esp,0x4
  104acf:	50                   	push   eax
  104ad0:	6a 09                	push   0x9
  104ad2:	6a 14                	push   0x14
  104ad4:	e8 fa cc ff ff       	call   0x1017d3
  104ad9:	83 c4 10             	add    esp,0x10
  104adc:	83 ec 08             	sub    esp,0x8
  104adf:	6a 00                	push   0x0
  104ae1:	6a 0e                	push   0xe
  104ae3:	e8 08 c9 ff ff       	call   0x1013f0
  104ae8:	83 c4 10             	add    esp,0x10
  104aeb:	83 ec 04             	sub    esp,0x4
  104aee:	68 e9 6d 10 00       	push   0x106de9
  104af3:	6a 0b                	push   0xb
  104af5:	6a 02                	push   0x2
  104af7:	e8 d7 cc ff ff       	call   0x1017d3
  104afc:	83 c4 10             	add    esp,0x10
  104aff:	83 ec 08             	sub    esp,0x8
  104b02:	6a 00                	push   0x0
  104b04:	6a 0a                	push   0xa
  104b06:	e8 e5 c8 ff ff       	call   0x1013f0
  104b0b:	83 c4 10             	add    esp,0x10
  104b0e:	83 ec 04             	sub    esp,0x4
  104b11:	68 fd 6d 10 00       	push   0x106dfd
  104b16:	6a 0c                	push   0xc
  104b18:	6a 04                	push   0x4
  104b1a:	e8 b4 cc ff ff       	call   0x1017d3
  104b1f:	83 c4 10             	add    esp,0x10
  104b22:	83 ec 04             	sub    esp,0x4
  104b25:	ff 75 10             	push   DWORD PTR [ebp+0x10]
  104b28:	6a 0c                	push   0xc
  104b2a:	6a 0c                	push   0xc
  104b2c:	e8 45 fb ff ff       	call   0x104676
  104b31:	83 c4 10             	add    esp,0x10
  104b34:	83 ec 04             	sub    esp,0x4
  104b37:	68 02 6e 10 00       	push   0x106e02
  104b3c:	6a 0c                	push   0xc
  104b3e:	6a 1a                	push   0x1a
  104b40:	e8 8e cc ff ff       	call   0x1017d3
  104b45:	83 c4 10             	add    esp,0x10
  104b48:	83 ec 04             	sub    esp,0x4
  104b4b:	ff 75 f0             	push   DWORD PTR [ebp-0x10]
  104b4e:	6a 0c                	push   0xc
  104b50:	6a 22                	push   0x22
  104b52:	e8 1f fb ff ff       	call   0x104676
  104b57:	83 c4 10             	add    esp,0x10
  104b5a:	83 ec 04             	sub    esp,0x4
  104b5d:	68 07 6e 10 00       	push   0x106e07
  104b62:	6a 0c                	push   0xc
  104b64:	6a 30                	push   0x30
  104b66:	e8 68 cc ff ff       	call   0x1017d3
  104b6b:	83 c4 10             	add    esp,0x10
  104b6e:	83 ec 04             	sub    esp,0x4
  104b71:	ff 75 ec             	push   DWORD PTR [ebp-0x14]
  104b74:	6a 0c                	push   0xc
  104b76:	6a 38                	push   0x38
  104b78:	e8 f9 fa ff ff       	call   0x104676
  104b7d:	83 c4 10             	add    esp,0x10
  104b80:	83 ec 04             	sub    esp,0x4
  104b83:	68 0c 6e 10 00       	push   0x106e0c
  104b88:	6a 0d                	push   0xd
  104b8a:	6a 04                	push   0x4
  104b8c:	e8 42 cc ff ff       	call   0x1017d3
  104b91:	83 c4 10             	add    esp,0x10
  104b94:	83 ec 04             	sub    esp,0x4
  104b97:	ff 75 e8             	push   DWORD PTR [ebp-0x18]
  104b9a:	6a 0d                	push   0xd
  104b9c:	6a 0c                	push   0xc
  104b9e:	e8 d3 fa ff ff       	call   0x104676
  104ba3:	83 c4 10             	add    esp,0x10
  104ba6:	83 ec 04             	sub    esp,0x4
  104ba9:	68 11 6e 10 00       	push   0x106e11
  104bae:	6a 0d                	push   0xd
  104bb0:	6a 1a                	push   0x1a
  104bb2:	e8 1c cc ff ff       	call   0x1017d3
  104bb7:	83 c4 10             	add    esp,0x10
  104bba:	83 ec 04             	sub    esp,0x4
  104bbd:	ff 75 e4             	push   DWORD PTR [ebp-0x1c]
  104bc0:	6a 0d                	push   0xd
  104bc2:	6a 22                	push   0x22
  104bc4:	e8 ad fa ff ff       	call   0x104676
  104bc9:	83 c4 10             	add    esp,0x10
  104bcc:	83 ec 04             	sub    esp,0x4
  104bcf:	68 16 6e 10 00       	push   0x106e16
  104bd4:	6a 0d                	push   0xd
  104bd6:	6a 30                	push   0x30
  104bd8:	e8 f6 cb ff ff       	call   0x1017d3
  104bdd:	83 c4 10             	add    esp,0x10
  104be0:	83 ec 04             	sub    esp,0x4
  104be3:	ff 75 e0             	push   DWORD PTR [ebp-0x20]
  104be6:	6a 0d                	push   0xd
  104be8:	6a 38                	push   0x38
  104bea:	e8 87 fa ff ff       	call   0x104676
  104bef:	83 c4 10             	add    esp,0x10
  104bf2:	83 ec 04             	sub    esp,0x4
  104bf5:	68 1b 6e 10 00       	push   0x106e1b
  104bfa:	6a 0e                	push   0xe
  104bfc:	6a 04                	push   0x4
  104bfe:	e8 d0 cb ff ff       	call   0x1017d3
  104c03:	83 c4 10             	add    esp,0x10
  104c06:	83 ec 04             	sub    esp,0x4
  104c09:	ff 75 dc             	push   DWORD PTR [ebp-0x24]
  104c0c:	6a 0e                	push   0xe
  104c0e:	6a 0c                	push   0xc
  104c10:	e8 61 fa ff ff       	call   0x104676
  104c15:	83 c4 10             	add    esp,0x10
  104c18:	83 ec 04             	sub    esp,0x4
  104c1b:	68 20 6e 10 00       	push   0x106e20
  104c20:	6a 0e                	push   0xe
  104c22:	6a 1a                	push   0x1a
  104c24:	e8 aa cb ff ff       	call   0x1017d3
  104c29:	83 c4 10             	add    esp,0x10
  104c2c:	83 ec 04             	sub    esp,0x4
  104c2f:	ff 75 d8             	push   DWORD PTR [ebp-0x28]
  104c32:	6a 0e                	push   0xe
  104c34:	6a 22                	push   0x22
  104c36:	e8 3b fa ff ff       	call   0x104676
  104c3b:	83 c4 10             	add    esp,0x10
  104c3e:	83 ec 04             	sub    esp,0x4
  104c41:	68 25 6e 10 00       	push   0x106e25
  104c46:	6a 0e                	push   0xe
  104c48:	6a 30                	push   0x30
  104c4a:	e8 84 cb ff ff       	call   0x1017d3
  104c4f:	83 c4 10             	add    esp,0x10
  104c52:	83 ec 04             	sub    esp,0x4
  104c55:	ff 75 d4             	push   DWORD PTR [ebp-0x2c]
  104c58:	6a 0e                	push   0xe
  104c5a:	6a 38                	push   0x38
  104c5c:	e8 15 fa ff ff       	call   0x104676
  104c61:	83 c4 10             	add    esp,0x10
  104c64:	83 ec 08             	sub    esp,0x8
  104c67:	6a 00                	push   0x0
  104c69:	6a 0e                	push   0xe
  104c6b:	e8 80 c7 ff ff       	call   0x1013f0
  104c70:	83 c4 10             	add    esp,0x10
  104c73:	83 ec 04             	sub    esp,0x4
  104c76:	68 2a 6e 10 00       	push   0x106e2a
  104c7b:	6a 10                	push   0x10
  104c7d:	6a 02                	push   0x2
  104c7f:	e8 4f cb ff ff       	call   0x1017d3
  104c84:	83 c4 10             	add    esp,0x10
  104c87:	83 ec 08             	sub    esp,0x8
  104c8a:	6a 00                	push   0x0
  104c8c:	6a 0a                	push   0xa
  104c8e:	e8 5d c7 ff ff       	call   0x1013f0
  104c93:	83 c4 10             	add    esp,0x10
  104c96:	83 ec 04             	sub    esp,0x4
  104c99:	68 3d 6e 10 00       	push   0x106e3d
  104c9e:	6a 11                	push   0x11
  104ca0:	6a 04                	push   0x4
  104ca2:	e8 2c cb ff ff       	call   0x1017d3
  104ca7:	83 c4 10             	add    esp,0x10
  104caa:	83 ec 04             	sub    esp,0x4
  104cad:	ff 75 d0             	push   DWORD PTR [ebp-0x30]
  104cb0:	6a 11                	push   0x11
  104cb2:	6a 0c                	push   0xc
  104cb4:	e8 bd f9 ff ff       	call   0x104676
  104cb9:	83 c4 10             	add    esp,0x10
  104cbc:	83 ec 04             	sub    esp,0x4
  104cbf:	68 42 6e 10 00       	push   0x106e42
  104cc4:	6a 11                	push   0x11
  104cc6:	6a 1a                	push   0x1a
  104cc8:	e8 06 cb ff ff       	call   0x1017d3
  104ccd:	83 c4 10             	add    esp,0x10
  104cd0:	83 ec 04             	sub    esp,0x4
  104cd3:	ff 75 cc             	push   DWORD PTR [ebp-0x34]
  104cd6:	6a 11                	push   0x11
  104cd8:	6a 22                	push   0x22
  104cda:	e8 97 f9 ff ff       	call   0x104676
  104cdf:	83 c4 10             	add    esp,0x10
  104ce2:	83 ec 04             	sub    esp,0x4
  104ce5:	68 47 6e 10 00       	push   0x106e47
  104cea:	6a 11                	push   0x11
  104cec:	6a 30                	push   0x30
  104cee:	e8 e0 ca ff ff       	call   0x1017d3
  104cf3:	83 c4 10             	add    esp,0x10
  104cf6:	83 ec 04             	sub    esp,0x4
  104cf9:	ff 75 c8             	push   DWORD PTR [ebp-0x38]
  104cfc:	6a 11                	push   0x11
  104cfe:	6a 38                	push   0x38
  104d00:	e8 71 f9 ff ff       	call   0x104676
  104d05:	83 c4 10             	add    esp,0x10
  104d08:	83 7d 08 0e          	cmp    DWORD PTR [ebp+0x8],0xe
  104d0c:	75 44                	jne    0x104d52
  104d0e:	83 ec 08             	sub    esp,0x8
  104d11:	6a 00                	push   0x0
  104d13:	6a 0c                	push   0xc
  104d15:	e8 d6 c6 ff ff       	call   0x1013f0
  104d1a:	83 c4 10             	add    esp,0x10
  104d1d:	83 ec 04             	sub    esp,0x4
  104d20:	68 4c 6e 10 00       	push   0x106e4c
  104d25:	6a 12                	push   0x12
  104d27:	6a 04                	push   0x4
  104d29:	e8 a5 ca ff ff       	call   0x1017d3
  104d2e:	83 c4 10             	add    esp,0x10
  104d31:	83 ec 08             	sub    esp,0x8
  104d34:	6a 00                	push   0x0
  104d36:	6a 0f                	push   0xf
  104d38:	e8 b3 c6 ff ff       	call   0x1013f0
  104d3d:	83 c4 10             	add    esp,0x10
  104d40:	83 ec 04             	sub    esp,0x4
  104d43:	ff 75 cc             	push   DWORD PTR [ebp-0x34]
  104d46:	6a 12                	push   0x12
  104d48:	6a 1a                	push   0x1a
  104d4a:	e8 27 f9 ff ff       	call   0x104676
  104d4f:	83 c4 10             	add    esp,0x10
  104d52:	83 ec 08             	sub    esp,0x8
  104d55:	6a 00                	push   0x0
  104d57:	6a 0c                	push   0xc
  104d59:	e8 92 c6 ff ff       	call   0x1013f0
  104d5e:	83 c4 10             	add    esp,0x10
  104d61:	83 ec 04             	sub    esp,0x4
  104d64:	68 60 6e 10 00       	push   0x106e60
  104d69:	6a 14                	push   0x14
  104d6b:	6a 02                	push   0x2
  104d6d:	e8 61 ca ff ff       	call   0x1017d3
  104d72:	83 c4 10             	add    esp,0x10
  104d75:	83 ec 04             	sub    esp,0x4
  104d78:	68 97 6e 10 00       	push   0x106e97
  104d7d:	6a 15                	push   0x15
  104d7f:	6a 02                	push   0x2
  104d81:	e8 4d ca ff ff       	call   0x1017d3
  104d86:	83 c4 10             	add    esp,0x10
  104d89:	fa                   	cli
  104d8a:	f4                   	hlt
  104d8b:	eb fc                	jmp    0x104d89
  104d8d:	55                   	push   ebp
  104d8e:	89 e5                	mov    ebp,esp
  104d90:	83 ec 18             	sub    esp,0x18
  104d93:	8b 54 24 24          	mov    edx,DWORD PTR [esp+0x24]
  104d97:	8b 44 24 28          	mov    eax,DWORD PTR [esp+0x28]
  104d9b:	89 55 f4             	mov    DWORD PTR [ebp-0xc],edx
  104d9e:	89 45 f0             	mov    DWORD PTR [ebp-0x10],eax
  104da1:	8b 45 f0             	mov    eax,DWORD PTR [ebp-0x10]
  104da4:	83 e0 03             	and    eax,0x3
  104da7:	85 c0                	test   eax,eax
  104da9:	74 13                	je     0x104dbe
  104dab:	83 ec 08             	sub    esp,0x8
  104dae:	ff 75 0c             	push   DWORD PTR [ebp+0xc]
  104db1:	ff 75 08             	push   DWORD PTR [ebp+0x8]
  104db4:	e8 4a fa ff ff       	call   0x104803
  104db9:	83 c4 10             	add    esp,0x10
  104dbc:	eb 14                	jmp    0x104dd2
  104dbe:	83 ec 04             	sub    esp,0x4
  104dc1:	ff 75 f4             	push   DWORD PTR [ebp-0xc]
  104dc4:	ff 75 0c             	push   DWORD PTR [ebp+0xc]
  104dc7:	ff 75 08             	push   DWORD PTR [ebp+0x8]
  104dca:	e8 c4 fa ff ff       	call   0x104893
  104dcf:	83 c4 10             	add    esp,0x10
  104dd2:	90                   	nop
  104dd3:	c9                   	leave
  104dd4:	c3                   	ret
  104dd5:	55                   	push   ebp
  104dd6:	89 e5                	mov    ebp,esp
  104dd8:	83 ec 14             	sub    esp,0x14
  104ddb:	8b 45 08             	mov    eax,DWORD PTR [ebp+0x8]
  104dde:	66 89 45 ec          	mov    WORD PTR [ebp-0x14],ax
  104de2:	0f b7 45 ec          	movzx  eax,WORD PTR [ebp-0x14]
  104de6:	89 c2                	mov    edx,eax
  104de8:	ec                   	in     al,dx
  104de9:	88 45 ff             	mov    BYTE PTR [ebp-0x1],al
  104dec:	0f b6 45 ff          	movzx  eax,BYTE PTR [ebp-0x1]
  104df0:	c9                   	leave
  104df1:	c3                   	ret
  104df2:	55                   	push   ebp
  104df3:	89 e5                	mov    ebp,esp
  104df5:	83 ec 08             	sub    esp,0x8
  104df8:	8b 55 08             	mov    edx,DWORD PTR [ebp+0x8]
  104dfb:	8b 45 0c             	mov    eax,DWORD PTR [ebp+0xc]
  104dfe:	66 89 55 fc          	mov    WORD PTR [ebp-0x4],dx
  104e02:	88 45 f8             	mov    BYTE PTR [ebp-0x8],al
  104e05:	0f b6 45 f8          	movzx  eax,BYTE PTR [ebp-0x8]
  104e09:	0f b7 55 fc          	movzx  edx,WORD PTR [ebp-0x4]
  104e0d:	ee                   	out    dx,al
  104e0e:	90                   	nop
  104e0f:	c9                   	leave
  104e10:	c3                   	ret
  104e11:	55                   	push   ebp
  104e12:	89 e5                	mov    ebp,esp
  104e14:	83 ec 04             	sub    esp,0x4
  104e17:	8b 45 08             	mov    eax,DWORD PTR [ebp+0x8]
  104e1a:	88 45 fc             	mov    BYTE PTR [ebp-0x4],al
  104e1d:	90                   	nop
  104e1e:	68 fd 03 00 00       	push   0x3fd
  104e23:	e8 ad ff ff ff       	call   0x104dd5
  104e28:	83 c4 04             	add    esp,0x4
  104e2b:	0f b6 c0             	movzx  eax,al
  104e2e:	83 e0 20             	and    eax,0x20
  104e31:	85 c0                	test   eax,eax
  104e33:	74 e9                	je     0x104e1e
  104e35:	0f b6 45 fc          	movzx  eax,BYTE PTR [ebp-0x4]
  104e39:	0f b6 c0             	movzx  eax,al
  104e3c:	50                   	push   eax
  104e3d:	68 f8 03 00 00       	push   0x3f8
  104e42:	e8 ab ff ff ff       	call   0x104df2
  104e47:	83 c4 08             	add    esp,0x8
  104e4a:	90                   	nop
  104e4b:	c9                   	leave
  104e4c:	c3                   	ret
  104e4d:	55                   	push   ebp
  104e4e:	89 e5                	mov    ebp,esp
  104e50:	eb 2c                	jmp    0x104e7e
  104e52:	8b 45 08             	mov    eax,DWORD PTR [ebp+0x8]
  104e55:	0f b6 00             	movzx  eax,BYTE PTR [eax]
  104e58:	3c 0a                	cmp    al,0xa
  104e5a:	75 0a                	jne    0x104e66
  104e5c:	6a 0d                	push   0xd
  104e5e:	e8 ae ff ff ff       	call   0x104e11
  104e63:	83 c4 04             	add    esp,0x4
  104e66:	8b 45 08             	mov    eax,DWORD PTR [ebp+0x8]
  104e69:	8d 50 01             	lea    edx,[eax+0x1]
  104e6c:	89 55 08             	mov    DWORD PTR [ebp+0x8],edx
  104e6f:	0f b6 00             	movzx  eax,BYTE PTR [eax]
  104e72:	0f be c0             	movsx  eax,al
  104e75:	50                   	push   eax
  104e76:	e8 96 ff ff ff       	call   0x104e11
  104e7b:	83 c4 04             	add    esp,0x4
  104e7e:	8b 45 08             	mov    eax,DWORD PTR [ebp+0x8]
  104e81:	0f b6 00             	movzx  eax,BYTE PTR [eax]
  104e84:	84 c0                	test   al,al
  104e86:	75 ca                	jne    0x104e52
  104e88:	90                   	nop
  104e89:	90                   	nop
  104e8a:	c9                   	leave
  104e8b:	c3                   	ret
  104e8c:	55                   	push   ebp
  104e8d:	89 e5                	mov    ebp,esp
  104e8f:	68 b4 6e 10 00       	push   0x106eb4
  104e94:	e8 b4 ff ff ff       	call   0x104e4d
  104e99:	83 c4 04             	add    esp,0x4
  104e9c:	8b 55 0c             	mov    edx,DWORD PTR [ebp+0xc]
  104e9f:	8b 4d 08             	mov    ecx,DWORD PTR [ebp+0x8]
  104ea2:	6a 23                	push   0x23
  104ea4:	52                   	push   edx
  104ea5:	9c                   	pushf
  104ea6:	58                   	pop    eax
  104ea7:	0d 00 02 00 00       	or     eax,0x200
  104eac:	50                   	push   eax
  104ead:	6a 1b                	push   0x1b
  104eaf:	51                   	push   ecx
  104eb0:	cf                   	iret
  104eb1:	f4                   	hlt
  104eb2:	eb fd                	jmp    0x104eb1
  104eb4:	55                   	push   ebp
  104eb5:	89 e5                	mov    ebp,esp
  104eb7:	68 f0 ff 1f 00       	push   0x1ffff0
  104ebc:	ff 75 08             	push   DWORD PTR [ebp+0x8]
  104ebf:	e8 c8 ff ff ff       	call   0x104e8c
  104ec4:	55                   	push   ebp
  104ec5:	89 e5                	mov    ebp,esp
  104ec7:	83 ec 18             	sub    esp,0x18
  104eca:	8b 45 08             	mov    eax,DWORD PTR [ebp+0x8]
  104ecd:	88 45 f4             	mov    BYTE PTR [ebp-0xc],al
  104ed0:	0f be 45 f4          	movsx  eax,BYTE PTR [ebp-0xc]
  104ed4:	83 ec 0c             	sub    esp,0xc
  104ed7:	50                   	push   eax
  104ed8:	e8 bb c6 ff ff       	call   0x101598
  104edd:	83 c4 10             	add    esp,0x10
  104ee0:	90                   	nop
  104ee1:	c9                   	leave
  104ee2:	c3                   	ret
  104ee3:	55                   	push   ebp
  104ee4:	89 e5                	mov    ebp,esp
  104ee6:	83 ec 08             	sub    esp,0x8
  104ee9:	83 7d 08 00          	cmp    DWORD PTR [ebp+0x8],0x0
  104eed:	75 4f                	jne    0x104f3e
  104eef:	83 ec 0c             	sub    esp,0xc
  104ef2:	6a 4e                	push   0x4e
  104ef4:	e8 9f c6 ff ff       	call   0x101598
  104ef9:	83 c4 10             	add    esp,0x10
  104efc:	83 ec 0c             	sub    esp,0xc
  104eff:	6a 55                	push   0x55
  104f01:	e8 92 c6 ff ff       	call   0x101598
  104f06:	83 c4 10             	add    esp,0x10
  104f09:	83 ec 0c             	sub    esp,0xc
  104f0c:	6a 4c                	push   0x4c
  104f0e:	e8 85 c6 ff ff       	call   0x101598
  104f13:	83 c4 10             	add    esp,0x10
  104f16:	83 ec 0c             	sub    esp,0xc
  104f19:	6a 4c                	push   0x4c
  104f1b:	e8 78 c6 ff ff       	call   0x101598
  104f20:	83 c4 10             	add    esp,0x10
  104f23:	eb 23                	jmp    0x104f48
  104f25:	8b 45 08             	mov    eax,DWORD PTR [ebp+0x8]
  104f28:	0f b6 00             	movzx  eax,BYTE PTR [eax]
  104f2b:	0f be c0             	movsx  eax,al
  104f2e:	83 ec 0c             	sub    esp,0xc
  104f31:	50                   	push   eax
  104f32:	e8 61 c6 ff ff       	call   0x101598
  104f37:	83 c4 10             	add    esp,0x10
  104f3a:	83 45 08 01          	add    DWORD PTR [ebp+0x8],0x1
  104f3e:	8b 45 08             	mov    eax,DWORD PTR [ebp+0x8]
  104f41:	0f b6 00             	movzx  eax,BYTE PTR [eax]
  104f44:	84 c0                	test   al,al
  104f46:	75 dd                	jne    0x104f25
  104f48:	c9                   	leave
  104f49:	c3                   	ret
  104f4a:	55                   	push   ebp
  104f4b:	89 e5                	mov    ebp,esp
  104f4d:	83 ec 08             	sub    esp,0x8
  104f50:	83 ec 0c             	sub    esp,0xc
  104f53:	ff 75 08             	push   DWORD PTR [ebp+0x8]
  104f56:	e8 11 c7 ff ff       	call   0x10166c
  104f5b:	83 c4 10             	add    esp,0x10
  104f5e:	90                   	nop
  104f5f:	c9                   	leave
  104f60:	c3                   	ret
  104f61:	55                   	push   ebp
  104f62:	89 e5                	mov    ebp,esp
  104f64:	f4                   	hlt
  104f65:	f4                   	hlt
  104f66:	eb fd                	jmp    0x104f65
  104f68:	55                   	push   ebp
  104f69:	89 e5                	mov    ebp,esp
  104f6b:	83 ec 18             	sub    esp,0x18
  104f6e:	e8 8c 0c 00 00       	call   0x105bff
  104f73:	89 45 f4             	mov    DWORD PTR [ebp-0xc],eax
  104f76:	8b 45 f4             	mov    eax,DWORD PTR [ebp-0xc]
  104f79:	c9                   	leave
  104f7a:	c3                   	ret
  104f7b:	55                   	push   ebp
  104f7c:	89 e5                	mov    ebp,esp
  104f7e:	83 ec 08             	sub    esp,0x8
  104f81:	8b 45 08             	mov    eax,DWORD PTR [ebp+0x8]
  104f84:	83 ec 0c             	sub    esp,0xc
  104f87:	50                   	push   eax
  104f88:	e8 85 0c 00 00       	call   0x105c12
  104f8d:	83 c4 10             	add    esp,0x10
  104f90:	90                   	nop
  104f91:	c9                   	leave
  104f92:	c3                   	ret
  104f93:	55                   	push   ebp
  104f94:	89 e5                	mov    ebp,esp
  104f96:	83 ec 08             	sub    esp,0x8
  104f99:	e8 fc c3 ff ff       	call   0x10139a
  104f9e:	90                   	nop
  104f9f:	c9                   	leave
  104fa0:	c3                   	ret
  104fa1:	55                   	push   ebp
  104fa2:	89 e5                	mov    ebp,esp
  104fa4:	81 ec 98 00 00 00    	sub    esp,0x98
  104faa:	fb                   	sti
  104fab:	c7 45 f4 00 00 00 00 	mov    DWORD PTR [ebp-0xc],0x0
  104fb2:	83 7d 08 22          	cmp    DWORD PTR [ebp+0x8],0x22
  104fb6:	0f 87 e9 03 00 00    	ja     0x1053a5
  104fbc:	8b 45 08             	mov    eax,DWORD PTR [ebp+0x8]
  104fbf:	c1 e0 02             	shl    eax,0x2
  104fc2:	05 f4 6e 10 00       	add    eax,0x106ef4
  104fc7:	8b 00                	mov    eax,DWORD PTR [eax]
  104fc9:	ff e0                	jmp    eax
  104fcb:	8b 45 0c             	mov    eax,DWORD PTR [ebp+0xc]
  104fce:	0f be c0             	movsx  eax,al
  104fd1:	83 ec 0c             	sub    esp,0xc
  104fd4:	50                   	push   eax
  104fd5:	e8 ea fe ff ff       	call   0x104ec4
  104fda:	83 c4 10             	add    esp,0x10
  104fdd:	e9 f3 03 00 00       	jmp    0x1053d5
  104fe2:	8b 45 0c             	mov    eax,DWORD PTR [ebp+0xc]
  104fe5:	83 ec 0c             	sub    esp,0xc
  104fe8:	50                   	push   eax
  104fe9:	e8 f5 fe ff ff       	call   0x104ee3
  104fee:	83 c4 10             	add    esp,0x10
  104ff1:	e9 df 03 00 00       	jmp    0x1053d5
  104ff6:	8b 45 0c             	mov    eax,DWORD PTR [ebp+0xc]
  104ff9:	83 ec 0c             	sub    esp,0xc
  104ffc:	50                   	push   eax
  104ffd:	e8 48 ff ff ff       	call   0x104f4a
  105002:	83 c4 10             	add    esp,0x10
  105005:	e9 cb 03 00 00       	jmp    0x1053d5
  10500a:	8b 45 0c             	mov    eax,DWORD PTR [ebp+0xc]
  10500d:	83 ec 0c             	sub    esp,0xc
  105010:	50                   	push   eax
  105011:	e8 4b ff ff ff       	call   0x104f61
  105016:	83 c4 10             	add    esp,0x10
  105019:	e9 b7 03 00 00       	jmp    0x1053d5
  10501e:	e8 45 ff ff ff       	call   0x104f68
  105023:	89 45 f4             	mov    DWORD PTR [ebp-0xc],eax
  105026:	e9 aa 03 00 00       	jmp    0x1053d5
  10502b:	83 ec 0c             	sub    esp,0xc
  10502e:	ff 75 0c             	push   DWORD PTR [ebp+0xc]
  105031:	e8 45 ff ff ff       	call   0x104f7b
  105036:	83 c4 10             	add    esp,0x10
  105039:	e9 97 03 00 00       	jmp    0x1053d5
  10503e:	e8 50 ff ff ff       	call   0x104f93
  105043:	e9 8d 03 00 00       	jmp    0x1053d5
  105048:	8b 45 10             	mov    eax,DWORD PTR [ebp+0x10]
  10504b:	0f b6 d0             	movzx  edx,al
  10504e:	8b 45 0c             	mov    eax,DWORD PTR [ebp+0xc]
  105051:	0f b6 c0             	movzx  eax,al
  105054:	83 ec 08             	sub    esp,0x8
  105057:	52                   	push   edx
  105058:	50                   	push   eax
  105059:	e8 92 c3 ff ff       	call   0x1013f0
  10505e:	83 c4 10             	add    esp,0x10
  105061:	e9 6f 03 00 00       	jmp    0x1053d5
  105066:	8b 45 0c             	mov    eax,DWORD PTR [ebp+0xc]
  105069:	89 45 84             	mov    DWORD PTR [ebp-0x7c],eax
  10506c:	8b 45 10             	mov    eax,DWORD PTR [ebp+0x10]
  10506f:	89 45 80             	mov    DWORD PTR [ebp-0x80],eax
  105072:	8b 45 14             	mov    eax,DWORD PTR [ebp+0x14]
  105075:	25 ff 00 00 00       	and    eax,0xff
  10507a:	89 85 7c ff ff ff    	mov    DWORD PTR [ebp-0x84],eax
  105080:	8b 45 14             	mov    eax,DWORD PTR [ebp+0x14]
  105083:	c1 e8 08             	shr    eax,0x8
  105086:	25 ff 00 00 00       	and    eax,0xff
  10508b:	89 85 78 ff ff ff    	mov    DWORD PTR [ebp-0x88],eax
  105091:	8b 45 14             	mov    eax,DWORD PTR [ebp+0x14]
  105094:	c1 e8 10             	shr    eax,0x10
  105097:	88 85 77 ff ff ff    	mov    BYTE PTR [ebp-0x89],al
  10509d:	0f b6 85 77 ff ff ff 	movzx  eax,BYTE PTR [ebp-0x89]
  1050a4:	83 ec 0c             	sub    esp,0xc
  1050a7:	50                   	push   eax
  1050a8:	ff b5 78 ff ff ff    	push   DWORD PTR [ebp-0x88]
  1050ae:	ff b5 7c ff ff ff    	push   DWORD PTR [ebp-0x84]
  1050b4:	ff 75 80             	push   DWORD PTR [ebp-0x80]
  1050b7:	ff 75 84             	push   DWORD PTR [ebp-0x7c]
  1050ba:	e8 5d c3 ff ff       	call   0x10141c
  1050bf:	83 c4 20             	add    esp,0x20
  1050c2:	e9 0e 03 00 00       	jmp    0x1053d5
  1050c7:	e8 b9 c9 ff ff       	call   0x101a85
  1050cc:	e9 04 03 00 00       	jmp    0x1053d5
  1050d1:	8b 45 14             	mov    eax,DWORD PTR [ebp+0x14]
  1050d4:	0f b6 c8             	movzx  ecx,al
  1050d7:	8b 55 10             	mov    edx,DWORD PTR [ebp+0x10]
  1050da:	8b 45 0c             	mov    eax,DWORD PTR [ebp+0xc]
  1050dd:	83 ec 04             	sub    esp,0x4
  1050e0:	51                   	push   ecx
  1050e1:	52                   	push   edx
  1050e2:	50                   	push   eax
  1050e3:	e8 c3 cb ff ff       	call   0x101cab
  1050e8:	83 c4 10             	add    esp,0x10
  1050eb:	e9 e5 02 00 00       	jmp    0x1053d5
  1050f0:	8b 45 0c             	mov    eax,DWORD PTR [ebp+0xc]
  1050f3:	0f b6 c0             	movzx  eax,al
  1050f6:	83 ec 0c             	sub    esp,0xc
  1050f9:	50                   	push   eax
  1050fa:	e8 00 cd ff ff       	call   0x101dff
  1050ff:	83 c4 10             	add    esp,0x10
  105102:	e9 ce 02 00 00       	jmp    0x1053d5
  105107:	8b 45 0c             	mov    eax,DWORD PTR [ebp+0xc]
  10510a:	89 45 98             	mov    DWORD PTR [ebp-0x68],eax
  10510d:	8b 45 10             	mov    eax,DWORD PTR [ebp+0x10]
  105110:	89 45 94             	mov    DWORD PTR [ebp-0x6c],eax
  105113:	8b 45 14             	mov    eax,DWORD PTR [ebp+0x14]
  105116:	89 45 90             	mov    DWORD PTR [ebp-0x70],eax
  105119:	c7 45 8c ff ff ff 00 	mov    DWORD PTR [ebp-0x74],0xffffff
  105120:	c7 45 88 00 00 00 00 	mov    DWORD PTR [ebp-0x78],0x0
  105127:	83 ec 0c             	sub    esp,0xc
  10512a:	ff 75 88             	push   DWORD PTR [ebp-0x78]
  10512d:	ff 75 8c             	push   DWORD PTR [ebp-0x74]
  105130:	ff 75 90             	push   DWORD PTR [ebp-0x70]
  105133:	ff 75 94             	push   DWORD PTR [ebp-0x6c]
  105136:	ff 75 98             	push   DWORD PTR [ebp-0x68]
  105139:	e8 ba d7 ff ff       	call   0x1028f8
  10513e:	83 c4 20             	add    esp,0x20
  105141:	e9 8f 02 00 00       	jmp    0x1053d5
  105146:	8b 55 10             	mov    edx,DWORD PTR [ebp+0x10]
  105149:	8b 45 0c             	mov    eax,DWORD PTR [ebp+0xc]
  10514c:	83 ec 08             	sub    esp,0x8
  10514f:	52                   	push   edx
  105150:	50                   	push   eax
  105151:	e8 4f c6 ff ff       	call   0x1017a5
  105156:	83 c4 10             	add    esp,0x10
  105159:	e9 77 02 00 00       	jmp    0x1053d5
  10515e:	8b 45 0c             	mov    eax,DWORD PTR [ebp+0xc]
  105161:	89 45 a8             	mov    DWORD PTR [ebp-0x58],eax
  105164:	8b 45 10             	mov    eax,DWORD PTR [ebp+0x10]
  105167:	89 45 a4             	mov    DWORD PTR [ebp-0x5c],eax
  10516a:	8b 45 14             	mov    eax,DWORD PTR [ebp+0x14]
  10516d:	25 ff ff 00 00       	and    eax,0xffff
  105172:	89 45 a0             	mov    DWORD PTR [ebp-0x60],eax
  105175:	8b 45 14             	mov    eax,DWORD PTR [ebp+0x14]
  105178:	c1 e8 10             	shr    eax,0x10
  10517b:	89 45 9c             	mov    DWORD PTR [ebp-0x64],eax
  10517e:	ff 75 9c             	push   DWORD PTR [ebp-0x64]
  105181:	ff 75 a0             	push   DWORD PTR [ebp-0x60]
  105184:	ff 75 a4             	push   DWORD PTR [ebp-0x5c]
  105187:	ff 75 a8             	push   DWORD PTR [ebp-0x58]
  10518a:	e8 24 c7 ff ff       	call   0x1018b3
  10518f:	83 c4 10             	add    esp,0x10
  105192:	e9 3e 02 00 00       	jmp    0x1053d5
  105197:	8b 45 0c             	mov    eax,DWORD PTR [ebp+0xc]
  10519a:	89 45 ac             	mov    DWORD PTR [ebp-0x54],eax
  10519d:	83 ec 0c             	sub    esp,0xc
  1051a0:	ff 75 ac             	push   DWORD PTR [ebp-0x54]
  1051a3:	e8 91 0d 00 00       	call   0x105f39
  1051a8:	83 c4 10             	add    esp,0x10
  1051ab:	89 45 f4             	mov    DWORD PTR [ebp-0xc],eax
  1051ae:	e9 22 02 00 00       	jmp    0x1053d5
  1051b3:	a1 00 90 11 00       	mov    eax,ds:0x119000
  1051b8:	89 45 f4             	mov    DWORD PTR [ebp-0xc],eax
  1051bb:	e9 15 02 00 00       	jmp    0x1053d5
  1051c0:	8b 45 0c             	mov    eax,DWORD PTR [ebp+0xc]
  1051c3:	88 85 75 ff ff ff    	mov    BYTE PTR [ebp-0x8b],al
  1051c9:	c6 85 76 ff ff ff 00 	mov    BYTE PTR [ebp-0x8a],0x0
  1051d0:	8b 15 68 99 11 00    	mov    edx,DWORD PTR ds:0x119968
  1051d6:	a1 28 80 10 00       	mov    eax,ds:0x108028
  1051db:	83 ec 04             	sub    esp,0x4
  1051de:	52                   	push   edx
  1051df:	50                   	push   eax
  1051e0:	8d 85 75 ff ff ff    	lea    eax,[ebp-0x8b]
  1051e6:	50                   	push   eax
  1051e7:	e8 1d d6 ff ff       	call   0x102809
  1051ec:	83 c4 10             	add    esp,0x10
  1051ef:	e9 e1 01 00 00       	jmp    0x1053d5
  1051f4:	8b 0d 68 99 11 00    	mov    ecx,DWORD PTR ds:0x119968
  1051fa:	8b 15 28 80 10 00    	mov    edx,DWORD PTR ds:0x108028
  105200:	8b 45 0c             	mov    eax,DWORD PTR [ebp+0xc]
  105203:	83 ec 04             	sub    esp,0x4
  105206:	51                   	push   ecx
  105207:	52                   	push   edx
  105208:	50                   	push   eax
  105209:	e8 fb d5 ff ff       	call   0x102809
  10520e:	83 c4 10             	add    esp,0x10
  105211:	e9 bf 01 00 00       	jmp    0x1053d5
  105216:	a1 68 99 11 00       	mov    eax,ds:0x119968
  10521b:	83 ec 0c             	sub    esp,0xc
  10521e:	50                   	push   eax
  10521f:	e8 82 d4 ff ff       	call   0x1026a6
  105224:	83 c4 10             	add    esp,0x10
  105227:	83 ec 08             	sub    esp,0x8
  10522a:	6a 00                	push   0x0
  10522c:	6a 00                	push   0x0
  10522e:	e8 4f d7 ff ff       	call   0x102982
  105233:	83 c4 10             	add    esp,0x10
  105236:	e9 9a 01 00 00       	jmp    0x1053d5
  10523b:	8b 45 0c             	mov    eax,DWORD PTR [ebp+0xc]
  10523e:	a3 28 80 10 00       	mov    ds:0x108028,eax
  105243:	8b 45 10             	mov    eax,DWORD PTR [ebp+0x10]
  105246:	a3 68 99 11 00       	mov    ds:0x119968,eax
  10524b:	e9 85 01 00 00       	jmp    0x1053d5
  105250:	8b 45 0c             	mov    eax,DWORD PTR [ebp+0xc]
  105253:	89 45 c4             	mov    DWORD PTR [ebp-0x3c],eax
  105256:	8b 45 10             	mov    eax,DWORD PTR [ebp+0x10]
  105259:	89 45 c0             	mov    DWORD PTR [ebp-0x40],eax
  10525c:	8b 45 14             	mov    eax,DWORD PTR [ebp+0x14]
  10525f:	89 45 bc             	mov    DWORD PTR [ebp-0x44],eax
  105262:	8b 45 18             	mov    eax,DWORD PTR [ebp+0x18]
  105265:	89 45 b8             	mov    DWORD PTR [ebp-0x48],eax
  105268:	8b 45 bc             	mov    eax,DWORD PTR [ebp-0x44]
  10526b:	25 ff ff 00 00       	and    eax,0xffff
  105270:	89 45 b4             	mov    DWORD PTR [ebp-0x4c],eax
  105273:	8b 45 bc             	mov    eax,DWORD PTR [ebp-0x44]
  105276:	c1 e8 10             	shr    eax,0x10
  105279:	89 45 b0             	mov    DWORD PTR [ebp-0x50],eax
  10527c:	83 ec 0c             	sub    esp,0xc
  10527f:	ff 75 b8             	push   DWORD PTR [ebp-0x48]
  105282:	ff 75 b0             	push   DWORD PTR [ebp-0x50]
  105285:	ff 75 b4             	push   DWORD PTR [ebp-0x4c]
  105288:	ff 75 c0             	push   DWORD PTR [ebp-0x40]
  10528b:	ff 75 c4             	push   DWORD PTR [ebp-0x3c]
  10528e:	e8 2d d7 ff ff       	call   0x1029c0
  105293:	83 c4 20             	add    esp,0x20
  105296:	e9 3a 01 00 00       	jmp    0x1053d5
  10529b:	8b 45 0c             	mov    eax,DWORD PTR [ebp+0xc]
  10529e:	89 45 dc             	mov    DWORD PTR [ebp-0x24],eax
  1052a1:	8b 45 10             	mov    eax,DWORD PTR [ebp+0x10]
  1052a4:	89 45 d8             	mov    DWORD PTR [ebp-0x28],eax
  1052a7:	8b 45 14             	mov    eax,DWORD PTR [ebp+0x14]
  1052aa:	89 45 d4             	mov    DWORD PTR [ebp-0x2c],eax
  1052ad:	8b 45 1c             	mov    eax,DWORD PTR [ebp+0x1c]
  1052b0:	89 45 d0             	mov    DWORD PTR [ebp-0x30],eax
  1052b3:	8b 45 d0             	mov    eax,DWORD PTR [ebp-0x30]
  1052b6:	8b 00                	mov    eax,DWORD PTR [eax]
  1052b8:	89 45 cc             	mov    DWORD PTR [ebp-0x34],eax
  1052bb:	8b 45 d0             	mov    eax,DWORD PTR [ebp-0x30]
  1052be:	8b 40 04             	mov    eax,DWORD PTR [eax+0x4]
  1052c1:	89 45 c8             	mov    DWORD PTR [ebp-0x38],eax
  1052c4:	83 ec 0c             	sub    esp,0xc
  1052c7:	ff 75 c8             	push   DWORD PTR [ebp-0x38]
  1052ca:	ff 75 cc             	push   DWORD PTR [ebp-0x34]
  1052cd:	ff 75 d4             	push   DWORD PTR [ebp-0x2c]
  1052d0:	ff 75 d8             	push   DWORD PTR [ebp-0x28]
  1052d3:	ff 75 dc             	push   DWORD PTR [ebp-0x24]
  1052d6:	e8 89 d7 ff ff       	call   0x102a64
  1052db:	83 c4 20             	add    esp,0x20
  1052de:	e9 f2 00 00 00       	jmp    0x1053d5
  1052e3:	8b 45 0c             	mov    eax,DWORD PTR [ebp+0xc]
  1052e6:	89 45 f0             	mov    DWORD PTR [ebp-0x10],eax
  1052e9:	8b 45 10             	mov    eax,DWORD PTR [ebp+0x10]
  1052ec:	89 45 ec             	mov    DWORD PTR [ebp-0x14],eax
  1052ef:	8b 45 14             	mov    eax,DWORD PTR [ebp+0x14]
  1052f2:	89 45 e8             	mov    DWORD PTR [ebp-0x18],eax
  1052f5:	c7 45 e4 ff ff ff 00 	mov    DWORD PTR [ebp-0x1c],0xffffff
  1052fc:	c7 45 e0 00 00 00 00 	mov    DWORD PTR [ebp-0x20],0x0
  105303:	83 ec 0c             	sub    esp,0xc
  105306:	ff 75 e0             	push   DWORD PTR [ebp-0x20]
  105309:	ff 75 e4             	push   DWORD PTR [ebp-0x1c]
  10530c:	ff 75 e8             	push   DWORD PTR [ebp-0x18]
  10530f:	ff 75 ec             	push   DWORD PTR [ebp-0x14]
  105312:	ff 75 f0             	push   DWORD PTR [ebp-0x10]
  105315:	e8 de d5 ff ff       	call   0x1028f8
  10531a:	83 c4 20             	add    esp,0x20
  10531d:	e9 b3 00 00 00       	jmp    0x1053d5
  105322:	83 ec 0c             	sub    esp,0xc
  105325:	ff 75 0c             	push   DWORD PTR [ebp+0xc]
  105328:	e8 79 d3 ff ff       	call   0x1026a6
  10532d:	83 c4 10             	add    esp,0x10
  105330:	83 ec 08             	sub    esp,0x8
  105333:	6a 00                	push   0x0
  105335:	6a 00                	push   0x0
  105337:	e8 46 d6 ff ff       	call   0x102982
  10533c:	83 c4 10             	add    esp,0x10
  10533f:	e9 91 00 00 00       	jmp    0x1053d5
  105344:	8b 4d 14             	mov    ecx,DWORD PTR [ebp+0x14]
  105347:	8b 55 10             	mov    edx,DWORD PTR [ebp+0x10]
  10534a:	8b 45 0c             	mov    eax,DWORD PTR [ebp+0xc]
  10534d:	83 ec 04             	sub    esp,0x4
  105350:	51                   	push   ecx
  105351:	52                   	push   edx
  105352:	50                   	push   eax
  105353:	e8 4c d8 ff ff       	call   0x102ba4
  105358:	83 c4 10             	add    esp,0x10
  10535b:	eb 78                	jmp    0x1053d5
  10535d:	e8 51 e4 ff ff       	call   0x1037b3
  105362:	89 45 f4             	mov    DWORD PTR [ebp-0xc],eax
  105365:	eb 6e                	jmp    0x1053d5
  105367:	e8 51 e4 ff ff       	call   0x1037bd
  10536c:	89 45 f4             	mov    DWORD PTR [ebp-0xc],eax
  10536f:	eb 64                	jmp    0x1053d5
  105371:	e8 5b e4 ff ff       	call   0x1037d1
  105376:	0f b6 c0             	movzx  eax,al
  105379:	89 45 f4             	mov    DWORD PTR [ebp-0xc],eax
  10537c:	eb 57                	jmp    0x1053d5
  10537e:	e8 db 0d 00 00       	call   0x10615e
  105383:	eb 50                	jmp    0x1053d5
  105385:	e8 3d e4 ff ff       	call   0x1037c7
  10538a:	89 45 f4             	mov    DWORD PTR [ebp-0xc],eax
  10538d:	eb 46                	jmp    0x1053d5
  10538f:	e8 15 14 00 00       	call   0x1067a9
  105394:	89 45 f4             	mov    DWORD PTR [ebp-0xc],eax
  105397:	eb 3c                	jmp    0x1053d5
  105399:	e8 e5 e0 ff ff       	call   0x103483
  10539e:	e8 f6 13 00 00       	call   0x106799
  1053a3:	eb 30                	jmp    0x1053d5
  1053a5:	83 ec 0c             	sub    esp,0xc
  1053a8:	68 e0 6e 10 00       	push   0x106ee0
  1053ad:	e8 31 fb ff ff       	call   0x104ee3
  1053b2:	83 c4 10             	add    esp,0x10
  1053b5:	8b 45 08             	mov    eax,DWORD PTR [ebp+0x8]
  1053b8:	83 ec 0c             	sub    esp,0xc
  1053bb:	50                   	push   eax
  1053bc:	e8 89 fb ff ff       	call   0x104f4a
  1053c1:	83 c4 10             	add    esp,0x10
  1053c4:	83 ec 0c             	sub    esp,0xc
  1053c7:	68 f2 6e 10 00       	push   0x106ef2
  1053cc:	e8 12 fb ff ff       	call   0x104ee3
  1053d1:	83 c4 10             	add    esp,0x10
  1053d4:	90                   	nop
  1053d5:	8b 45 f4             	mov    eax,DWORD PTR [ebp-0xc]
  1053d8:	c9                   	leave
  1053d9:	c3                   	ret
  1053da:	55                   	push   ebp
  1053db:	89 e5                	mov    ebp,esp
  1053dd:	83 ec 28             	sub    esp,0x28
  1053e0:	c6 45 ef 00          	mov    BYTE PTR [ebp-0x11],0x0
  1053e4:	c7 45 f4 07 00 00 00 	mov    DWORD PTR [ebp-0xc],0x7
  1053eb:	eb 33                	jmp    0x105420
  1053ed:	8b 45 08             	mov    eax,DWORD PTR [ebp+0x8]
  1053f0:	83 e0 0f             	and    eax,0xf
  1053f3:	89 45 f0             	mov    DWORD PTR [ebp-0x10],eax
  1053f6:	83 7d f0 09          	cmp    DWORD PTR [ebp-0x10],0x9
  1053fa:	77 0a                	ja     0x105406
  1053fc:	8b 45 f0             	mov    eax,DWORD PTR [ebp-0x10]
  1053ff:	83 c0 30             	add    eax,0x30
  105402:	89 c1                	mov    ecx,eax
  105404:	eb 08                	jmp    0x10540e
  105406:	8b 45 f0             	mov    eax,DWORD PTR [ebp-0x10]
  105409:	83 c0 57             	add    eax,0x57
  10540c:	89 c1                	mov    ecx,eax
  10540e:	8d 55 e7             	lea    edx,[ebp-0x19]
  105411:	8b 45 f4             	mov    eax,DWORD PTR [ebp-0xc]
  105414:	01 d0                	add    eax,edx
  105416:	88 08                	mov    BYTE PTR [eax],cl
  105418:	c1 6d 08 04          	shr    DWORD PTR [ebp+0x8],0x4
  10541c:	83 6d f4 01          	sub    DWORD PTR [ebp-0xc],0x1
  105420:	83 7d f4 00          	cmp    DWORD PTR [ebp-0xc],0x0
  105424:	79 c7                	jns    0x1053ed
  105426:	83 ec 0c             	sub    esp,0xc
  105429:	8d 45 e7             	lea    eax,[ebp-0x19]
  10542c:	50                   	push   eax
  10542d:	e8 7c c0 ff ff       	call   0x1014ae
  105432:	83 c4 10             	add    esp,0x10
  105435:	90                   	nop
  105436:	c9                   	leave
  105437:	c3                   	ret
  105438:	55                   	push   ebp
  105439:	89 e5                	mov    ebp,esp
  10543b:	a1 7c 99 11 00       	mov    eax,ds:0x11997c
  105440:	8b 55 08             	mov    edx,DWORD PTR [ebp+0x8]
  105443:	29 c2                	sub    edx,eax
  105445:	89 d0                	mov    eax,edx
  105447:	c1 e8 0c             	shr    eax,0xc
  10544a:	5d                   	pop    ebp
  10544b:	c3                   	ret
  10544c:	55                   	push   ebp
  10544d:	89 e5                	mov    ebp,esp
  10544f:	8b 45 08             	mov    eax,DWORD PTR [ebp+0x8]
  105452:	c1 e0 0c             	shl    eax,0xc
  105455:	89 c2                	mov    edx,eax
  105457:	a1 7c 99 11 00       	mov    eax,ds:0x11997c
  10545c:	01 d0                	add    eax,edx
  10545e:	5d                   	pop    ebp
  10545f:	c3                   	ret
  105460:	55                   	push   ebp
  105461:	89 e5                	mov    ebp,esp
  105463:	53                   	push   ebx
  105464:	83 ec 10             	sub    esp,0x10
  105467:	8b 45 08             	mov    eax,DWORD PTR [ebp+0x8]
  10546a:	c1 e8 05             	shr    eax,0x5
  10546d:	89 45 f8             	mov    DWORD PTR [ebp-0x8],eax
  105470:	8b 45 08             	mov    eax,DWORD PTR [ebp+0x8]
  105473:	83 e0 1f             	and    eax,0x1f
  105476:	89 45 f4             	mov    DWORD PTR [ebp-0xc],eax
  105479:	a1 6c 99 11 00       	mov    eax,ds:0x11996c
  10547e:	8b 55 f8             	mov    edx,DWORD PTR [ebp-0x8]
  105481:	c1 e2 02             	shl    edx,0x2
  105484:	01 d0                	add    eax,edx
  105486:	8b 10                	mov    edx,DWORD PTR [eax]
  105488:	8b 45 f4             	mov    eax,DWORD PTR [ebp-0xc]
  10548b:	bb 01 00 00 00       	mov    ebx,0x1
  105490:	89 c1                	mov    ecx,eax
  105492:	d3 e3                	shl    ebx,cl
  105494:	89 d8                	mov    eax,ebx
  105496:	89 c3                	mov    ebx,eax
  105498:	a1 6c 99 11 00       	mov    eax,ds:0x11996c
  10549d:	8b 4d f8             	mov    ecx,DWORD PTR [ebp-0x8]
  1054a0:	c1 e1 02             	shl    ecx,0x2
  1054a3:	01 c8                	add    eax,ecx
  1054a5:	09 da                	or     edx,ebx
  1054a7:	89 10                	mov    DWORD PTR [eax],edx
  1054a9:	90                   	nop
  1054aa:	8b 5d fc             	mov    ebx,DWORD PTR [ebp-0x4]
  1054ad:	c9                   	leave
  1054ae:	c3                   	ret
  1054af:	55                   	push   ebp
  1054b0:	89 e5                	mov    ebp,esp
  1054b2:	53                   	push   ebx
  1054b3:	83 ec 10             	sub    esp,0x10
  1054b6:	8b 45 08             	mov    eax,DWORD PTR [ebp+0x8]
  1054b9:	c1 e8 05             	shr    eax,0x5
  1054bc:	89 45 f8             	mov    DWORD PTR [ebp-0x8],eax
  1054bf:	8b 45 08             	mov    eax,DWORD PTR [ebp+0x8]
  1054c2:	83 e0 1f             	and    eax,0x1f
  1054c5:	89 45 f4             	mov    DWORD PTR [ebp-0xc],eax
  1054c8:	a1 6c 99 11 00       	mov    eax,ds:0x11996c
  1054cd:	8b 55 f8             	mov    edx,DWORD PTR [ebp-0x8]
  1054d0:	c1 e2 02             	shl    edx,0x2
  1054d3:	01 d0                	add    eax,edx
  1054d5:	8b 10                	mov    edx,DWORD PTR [eax]
  1054d7:	8b 45 f4             	mov    eax,DWORD PTR [ebp-0xc]
  1054da:	bb 01 00 00 00       	mov    ebx,0x1
  1054df:	89 c1                	mov    ecx,eax
  1054e1:	d3 e3                	shl    ebx,cl
  1054e3:	89 d8                	mov    eax,ebx
  1054e5:	f7 d0                	not    eax
  1054e7:	89 c3                	mov    ebx,eax
  1054e9:	a1 6c 99 11 00       	mov    eax,ds:0x11996c
  1054ee:	8b 4d f8             	mov    ecx,DWORD PTR [ebp-0x8]
  1054f1:	c1 e1 02             	shl    ecx,0x2
  1054f4:	01 c8                	add    eax,ecx
  1054f6:	21 da                	and    edx,ebx
  1054f8:	89 10                	mov    DWORD PTR [eax],edx
  1054fa:	90                   	nop
  1054fb:	8b 5d fc             	mov    ebx,DWORD PTR [ebp-0x4]
  1054fe:	c9                   	leave
  1054ff:	c3                   	ret
  105500:	55                   	push   ebp
  105501:	89 e5                	mov    ebp,esp
  105503:	53                   	push   ebx
  105504:	83 ec 10             	sub    esp,0x10
  105507:	8b 45 08             	mov    eax,DWORD PTR [ebp+0x8]
  10550a:	c1 e8 05             	shr    eax,0x5
  10550d:	89 45 f8             	mov    DWORD PTR [ebp-0x8],eax
  105510:	8b 45 08             	mov    eax,DWORD PTR [ebp+0x8]
  105513:	83 e0 1f             	and    eax,0x1f
  105516:	89 45 f4             	mov    DWORD PTR [ebp-0xc],eax
  105519:	a1 6c 99 11 00       	mov    eax,ds:0x11996c
  10551e:	8b 55 f8             	mov    edx,DWORD PTR [ebp-0x8]
  105521:	c1 e2 02             	shl    edx,0x2
  105524:	01 d0                	add    eax,edx
  105526:	8b 10                	mov    edx,DWORD PTR [eax]
  105528:	8b 45 f4             	mov    eax,DWORD PTR [ebp-0xc]
  10552b:	bb 01 00 00 00       	mov    ebx,0x1
  105530:	89 c1                	mov    ecx,eax
  105532:	d3 e3                	shl    ebx,cl
  105534:	89 d8                	mov    eax,ebx
  105536:	21 d0                	and    eax,edx
  105538:	8b 5d fc             	mov    ebx,DWORD PTR [ebp-0x4]
  10553b:	c9                   	leave
  10553c:	c3                   	ret
  10553d:	55                   	push   ebp
  10553e:	89 e5                	mov    ebp,esp
  105540:	83 ec 28             	sub    esp,0x28
  105543:	8b 45 08             	mov    eax,DWORD PTR [ebp+0x8]
  105546:	8b 40 08             	mov    eax,DWORD PTR [eax+0x8]
  105549:	05 00 04 00 00       	add    eax,0x400
  10554e:	c1 e0 0a             	shl    eax,0xa
  105551:	89 45 e4             	mov    DWORD PTR [ebp-0x1c],eax
  105554:	c7 05 7c 99 11 00 00 	mov    DWORD PTR ds:0x11997c,0x100000
  10555b:	00 10 00 
  10555e:	a1 7c 99 11 00       	mov    eax,ds:0x11997c
  105563:	8b 55 e4             	mov    edx,DWORD PTR [ebp-0x1c]
  105566:	29 c2                	sub    edx,eax
  105568:	89 d0                	mov    eax,edx
  10556a:	c1 e8 0c             	shr    eax,0xc
  10556d:	a3 70 99 11 00       	mov    ds:0x119970,eax
  105572:	a1 70 99 11 00       	mov    eax,ds:0x119970
  105577:	83 c0 1f             	add    eax,0x1f
  10557a:	c1 e8 05             	shr    eax,0x5
  10557d:	a3 78 99 11 00       	mov    ds:0x119978,eax
  105582:	c7 45 f4 ec 9b 11 00 	mov    DWORD PTR [ebp-0xc],0x119bec
  105589:	8b 45 08             	mov    eax,DWORD PTR [ebp+0x8]
  10558c:	8b 00                	mov    eax,DWORD PTR [eax]
  10558e:	83 e0 08             	and    eax,0x8
  105591:	85 c0                	test   eax,eax
  105593:	74 49                	je     0x1055de
  105595:	8b 45 08             	mov    eax,DWORD PTR [ebp+0x8]
  105598:	8b 40 18             	mov    eax,DWORD PTR [eax+0x18]
  10559b:	89 45 e0             	mov    DWORD PTR [ebp-0x20],eax
  10559e:	c7 45 f0 00 00 00 00 	mov    DWORD PTR [ebp-0x10],0x0
  1055a5:	eb 2c                	jmp    0x1055d3
  1055a7:	8b 45 f0             	mov    eax,DWORD PTR [ebp-0x10]
  1055aa:	c1 e0 04             	shl    eax,0x4
  1055ad:	89 c2                	mov    edx,eax
  1055af:	8b 45 e0             	mov    eax,DWORD PTR [ebp-0x20]
  1055b2:	01 d0                	add    eax,edx
  1055b4:	8b 40 04             	mov    eax,DWORD PTR [eax+0x4]
  1055b7:	39 45 f4             	cmp    DWORD PTR [ebp-0xc],eax
  1055ba:	73 13                	jae    0x1055cf
  1055bc:	8b 45 f0             	mov    eax,DWORD PTR [ebp-0x10]
  1055bf:	c1 e0 04             	shl    eax,0x4
  1055c2:	89 c2                	mov    edx,eax
  1055c4:	8b 45 e0             	mov    eax,DWORD PTR [ebp-0x20]
  1055c7:	01 d0                	add    eax,edx
  1055c9:	8b 40 04             	mov    eax,DWORD PTR [eax+0x4]
  1055cc:	89 45 f4             	mov    DWORD PTR [ebp-0xc],eax
  1055cf:	83 45 f0 01          	add    DWORD PTR [ebp-0x10],0x1
  1055d3:	8b 45 08             	mov    eax,DWORD PTR [ebp+0x8]
  1055d6:	8b 40 14             	mov    eax,DWORD PTR [eax+0x14]
  1055d9:	39 45 f0             	cmp    DWORD PTR [ebp-0x10],eax
  1055dc:	72 c9                	jb     0x1055a7
  1055de:	8b 45 f4             	mov    eax,DWORD PTR [ebp-0xc]
  1055e1:	05 ff 0f 00 00       	add    eax,0xfff
  1055e6:	25 00 f0 ff ff       	and    eax,0xfffff000
  1055eb:	89 45 f4             	mov    DWORD PTR [ebp-0xc],eax
  1055ee:	8b 45 f4             	mov    eax,DWORD PTR [ebp-0xc]
  1055f1:	a3 6c 99 11 00       	mov    ds:0x11996c,eax
  1055f6:	c7 45 ec 00 00 00 00 	mov    DWORD PTR [ebp-0x14],0x0
  1055fd:	eb 17                	jmp    0x105616
  1055ff:	a1 6c 99 11 00       	mov    eax,ds:0x11996c
  105604:	8b 55 ec             	mov    edx,DWORD PTR [ebp-0x14]
  105607:	c1 e2 02             	shl    edx,0x2
  10560a:	01 d0                	add    eax,edx
  10560c:	c7 00 00 00 00 00    	mov    DWORD PTR [eax],0x0
  105612:	83 45 ec 01          	add    DWORD PTR [ebp-0x14],0x1
  105616:	a1 78 99 11 00       	mov    eax,ds:0x119978
  10561b:	39 45 ec             	cmp    DWORD PTR [ebp-0x14],eax
  10561e:	72 df                	jb     0x1055ff
  105620:	c7 05 74 99 11 00 00 	mov    DWORD PTR ds:0x119974,0x0
  105627:	00 00 00 
  10562a:	b8 ec 9b 11 00       	mov    eax,0x119bec
  10562f:	83 ec 08             	sub    esp,0x8
  105632:	50                   	push   eax
  105633:	68 00 00 10 00       	push   0x100000
  105638:	e8 88 00 00 00       	call   0x1056c5
  10563d:	83 c4 10             	add    esp,0x10
  105640:	8b 45 08             	mov    eax,DWORD PTR [ebp+0x8]
  105643:	8b 00                	mov    eax,DWORD PTR [eax]
  105645:	83 e0 08             	and    eax,0x8
  105648:	85 c0                	test   eax,eax
  10564a:	74 4d                	je     0x105699
  10564c:	8b 45 08             	mov    eax,DWORD PTR [ebp+0x8]
  10564f:	8b 40 18             	mov    eax,DWORD PTR [eax+0x18]
  105652:	89 45 dc             	mov    DWORD PTR [ebp-0x24],eax
  105655:	c7 45 e8 00 00 00 00 	mov    DWORD PTR [ebp-0x18],0x0
  10565c:	eb 30                	jmp    0x10568e
  10565e:	8b 45 e8             	mov    eax,DWORD PTR [ebp-0x18]
  105661:	c1 e0 04             	shl    eax,0x4
  105664:	89 c2                	mov    edx,eax
  105666:	8b 45 dc             	mov    eax,DWORD PTR [ebp-0x24]
  105669:	01 d0                	add    eax,edx
  10566b:	8b 50 04             	mov    edx,DWORD PTR [eax+0x4]
  10566e:	8b 45 e8             	mov    eax,DWORD PTR [ebp-0x18]
  105671:	c1 e0 04             	shl    eax,0x4
  105674:	89 c1                	mov    ecx,eax
  105676:	8b 45 dc             	mov    eax,DWORD PTR [ebp-0x24]
  105679:	01 c8                	add    eax,ecx
  10567b:	8b 00                	mov    eax,DWORD PTR [eax]
  10567d:	83 ec 08             	sub    esp,0x8
  105680:	52                   	push   edx
  105681:	50                   	push   eax
  105682:	e8 3e 00 00 00       	call   0x1056c5
  105687:	83 c4 10             	add    esp,0x10
  10568a:	83 45 e8 01          	add    DWORD PTR [ebp-0x18],0x1
  10568e:	8b 45 08             	mov    eax,DWORD PTR [ebp+0x8]
  105691:	8b 40 14             	mov    eax,DWORD PTR [eax+0x14]
  105694:	39 45 e8             	cmp    DWORD PTR [ebp-0x18],eax
  105697:	72 c5                	jb     0x10565e
  105699:	a1 78 99 11 00       	mov    eax,ds:0x119978
  10569e:	8d 14 85 00 00 00 00 	lea    edx,[eax*4+0x0]
  1056a5:	8b 45 f4             	mov    eax,DWORD PTR [ebp-0xc]
  1056a8:	01 d0                	add    eax,edx
  1056aa:	89 45 d8             	mov    DWORD PTR [ebp-0x28],eax
  1056ad:	83 ec 08             	sub    esp,0x8
  1056b0:	ff 75 d8             	push   DWORD PTR [ebp-0x28]
  1056b3:	ff 75 f4             	push   DWORD PTR [ebp-0xc]
  1056b6:	e8 0a 00 00 00       	call   0x1056c5
  1056bb:	83 c4 10             	add    esp,0x10
  1056be:	b8 01 00 00 00       	mov    eax,0x1
  1056c3:	c9                   	leave
  1056c4:	c3                   	ret
  1056c5:	55                   	push   ebp
  1056c6:	89 e5                	mov    ebp,esp
  1056c8:	83 ec 10             	sub    esp,0x10
  1056cb:	8b 45 08             	mov    eax,DWORD PTR [ebp+0x8]
  1056ce:	25 00 f0 ff ff       	and    eax,0xfffff000
  1056d3:	50                   	push   eax
  1056d4:	e8 5f fd ff ff       	call   0x105438
  1056d9:	83 c4 04             	add    esp,0x4
  1056dc:	89 45 f8             	mov    DWORD PTR [ebp-0x8],eax
  1056df:	8b 45 0c             	mov    eax,DWORD PTR [ebp+0xc]
  1056e2:	05 ff 0f 00 00       	add    eax,0xfff
  1056e7:	25 00 f0 ff ff       	and    eax,0xfffff000
  1056ec:	50                   	push   eax
  1056ed:	e8 46 fd ff ff       	call   0x105438
  1056f2:	83 c4 04             	add    esp,0x4
  1056f5:	89 45 f4             	mov    DWORD PTR [ebp-0xc],eax
  1056f8:	8b 45 f8             	mov    eax,DWORD PTR [ebp-0x8]
  1056fb:	89 45 fc             	mov    DWORD PTR [ebp-0x4],eax
  1056fe:	eb 2b                	jmp    0x10572b
  105700:	ff 75 fc             	push   DWORD PTR [ebp-0x4]
  105703:	e8 f8 fd ff ff       	call   0x105500
  105708:	83 c4 04             	add    esp,0x4
  10570b:	85 c0                	test   eax,eax
  10570d:	75 18                	jne    0x105727
  10570f:	ff 75 fc             	push   DWORD PTR [ebp-0x4]
  105712:	e8 49 fd ff ff       	call   0x105460
  105717:	83 c4 04             	add    esp,0x4
  10571a:	a1 74 99 11 00       	mov    eax,ds:0x119974
  10571f:	83 c0 01             	add    eax,0x1
  105722:	a3 74 99 11 00       	mov    ds:0x119974,eax
  105727:	83 45 fc 01          	add    DWORD PTR [ebp-0x4],0x1
  10572b:	8b 45 fc             	mov    eax,DWORD PTR [ebp-0x4]
  10572e:	3b 45 f4             	cmp    eax,DWORD PTR [ebp-0xc]
  105731:	73 0a                	jae    0x10573d
  105733:	a1 70 99 11 00       	mov    eax,ds:0x119970
  105738:	39 45 fc             	cmp    DWORD PTR [ebp-0x4],eax
  10573b:	72 c3                	jb     0x105700
  10573d:	90                   	nop
  10573e:	c9                   	leave
  10573f:	c3                   	ret
  105740:	55                   	push   ebp
  105741:	89 e5                	mov    ebp,esp
  105743:	83 ec 10             	sub    esp,0x10
  105746:	c7 45 fc 00 00 00 00 	mov    DWORD PTR [ebp-0x4],0x0
  10574d:	eb 3e                	jmp    0x10578d
  10574f:	ff 75 fc             	push   DWORD PTR [ebp-0x4]
  105752:	e8 a9 fd ff ff       	call   0x105500
  105757:	83 c4 04             	add    esp,0x4
  10575a:	85 c0                	test   eax,eax
  10575c:	75 2b                	jne    0x105789
  10575e:	ff 75 fc             	push   DWORD PTR [ebp-0x4]
  105761:	e8 fa fc ff ff       	call   0x105460
  105766:	83 c4 04             	add    esp,0x4
  105769:	a1 74 99 11 00       	mov    eax,ds:0x119974
  10576e:	83 c0 01             	add    eax,0x1
  105771:	a3 74 99 11 00       	mov    ds:0x119974,eax
  105776:	ff 75 fc             	push   DWORD PTR [ebp-0x4]
  105779:	e8 ce fc ff ff       	call   0x10544c
  10577e:	83 c4 04             	add    esp,0x4
  105781:	89 45 f8             	mov    DWORD PTR [ebp-0x8],eax
  105784:	8b 45 f8             	mov    eax,DWORD PTR [ebp-0x8]
  105787:	eb 13                	jmp    0x10579c
  105789:	83 45 fc 01          	add    DWORD PTR [ebp-0x4],0x1
  10578d:	a1 70 99 11 00       	mov    eax,ds:0x119970
  105792:	39 45 fc             	cmp    DWORD PTR [ebp-0x4],eax
  105795:	72 b8                	jb     0x10574f
  105797:	b8 00 00 00 00       	mov    eax,0x0
  10579c:	c9                   	leave
  10579d:	c3                   	ret
  10579e:	55                   	push   ebp
  10579f:	89 e5                	mov    ebp,esp
  1057a1:	83 ec 10             	sub    esp,0x10
  1057a4:	8b 45 08             	mov    eax,DWORD PTR [ebp+0x8]
  1057a7:	50                   	push   eax
  1057a8:	e8 8b fc ff ff       	call   0x105438
  1057ad:	83 c4 04             	add    esp,0x4
  1057b0:	89 45 fc             	mov    DWORD PTR [ebp-0x4],eax
  1057b3:	a1 70 99 11 00       	mov    eax,ds:0x119970
  1057b8:	39 45 fc             	cmp    DWORD PTR [ebp-0x4],eax
  1057bb:	73 29                	jae    0x1057e6
  1057bd:	ff 75 fc             	push   DWORD PTR [ebp-0x4]
  1057c0:	e8 3b fd ff ff       	call   0x105500
  1057c5:	83 c4 04             	add    esp,0x4
  1057c8:	85 c0                	test   eax,eax
  1057ca:	74 1b                	je     0x1057e7
  1057cc:	ff 75 fc             	push   DWORD PTR [ebp-0x4]
  1057cf:	e8 db fc ff ff       	call   0x1054af
  1057d4:	83 c4 04             	add    esp,0x4
  1057d7:	a1 74 99 11 00       	mov    eax,ds:0x119974
  1057dc:	83 e8 01             	sub    eax,0x1
  1057df:	a3 74 99 11 00       	mov    ds:0x119974,eax
  1057e4:	eb 01                	jmp    0x1057e7
  1057e6:	90                   	nop
  1057e7:	c9                   	leave
  1057e8:	c3                   	ret
  1057e9:	55                   	push   ebp
  1057ea:	89 e5                	mov    ebp,esp
  1057ec:	83 ec 08             	sub    esp,0x8
  1057ef:	83 ec 0c             	sub    esp,0xc
  1057f2:	68 80 6f 10 00       	push   0x106f80
  1057f7:	e8 b2 bc ff ff       	call   0x1014ae
  1057fc:	83 c4 10             	add    esp,0x10
  1057ff:	8b 15 70 99 11 00    	mov    edx,DWORD PTR ds:0x119970
  105805:	a1 74 99 11 00       	mov    eax,ds:0x119974
  10580a:	29 c2                	sub    edx,eax
  10580c:	83 ec 0c             	sub    esp,0xc
  10580f:	52                   	push   edx
  105810:	e8 c5 fb ff ff       	call   0x1053da
  105815:	83 c4 10             	add    esp,0x10
  105818:	83 ec 0c             	sub    esp,0xc
  10581b:	68 8c 6f 10 00       	push   0x106f8c
  105820:	e8 89 bc ff ff       	call   0x1014ae
  105825:	83 c4 10             	add    esp,0x10
  105828:	a1 70 99 11 00       	mov    eax,ds:0x119970
  10582d:	83 ec 0c             	sub    esp,0xc
  105830:	50                   	push   eax
  105831:	e8 a4 fb ff ff       	call   0x1053da
  105836:	83 c4 10             	add    esp,0x10
  105839:	83 ec 0c             	sub    esp,0xc
  10583c:	68 9b 6f 10 00       	push   0x106f9b
  105841:	e8 68 bc ff ff       	call   0x1014ae
  105846:	83 c4 10             	add    esp,0x10
  105849:	8b 15 70 99 11 00    	mov    edx,DWORD PTR ds:0x119970
  10584f:	a1 74 99 11 00       	mov    eax,ds:0x119974
  105854:	29 c2                	sub    edx,eax
  105856:	89 d0                	mov    eax,edx
  105858:	c1 e0 0c             	shl    eax,0xc
  10585b:	c1 e8 14             	shr    eax,0x14
  10585e:	83 ec 0c             	sub    esp,0xc
  105861:	50                   	push   eax
  105862:	e8 73 fb ff ff       	call   0x1053da
  105867:	83 c4 10             	add    esp,0x10
  10586a:	83 ec 0c             	sub    esp,0xc
  10586d:	68 a4 6f 10 00       	push   0x106fa4
  105872:	e8 37 bc ff ff       	call   0x1014ae
  105877:	83 c4 10             	add    esp,0x10
  10587a:	90                   	nop
  10587b:	c9                   	leave
  10587c:	c3                   	ret
  10587d:	55                   	push   ebp
  10587e:	89 e5                	mov    ebp,esp
  105880:	8b 15 70 99 11 00    	mov    edx,DWORD PTR ds:0x119970
  105886:	a1 74 99 11 00       	mov    eax,ds:0x119974
  10588b:	29 c2                	sub    edx,eax
  10588d:	89 d0                	mov    eax,edx
  10588f:	5d                   	pop    ebp
  105890:	c3                   	ret
  105891:	55                   	push   ebp
  105892:	89 e5                	mov    ebp,esp
  105894:	a1 70 99 11 00       	mov    eax,ds:0x119970
  105899:	5d                   	pop    ebp
  10589a:	c3                   	ret
  10589b:	55                   	push   ebp
  10589c:	89 e5                	mov    ebp,esp
  10589e:	83 ec 28             	sub    esp,0x28
  1058a1:	c6 45 ef 00          	mov    BYTE PTR [ebp-0x11],0x0
  1058a5:	c7 45 f4 07 00 00 00 	mov    DWORD PTR [ebp-0xc],0x7
  1058ac:	eb 33                	jmp    0x1058e1
  1058ae:	8b 45 08             	mov    eax,DWORD PTR [ebp+0x8]
  1058b1:	83 e0 0f             	and    eax,0xf
  1058b4:	89 45 f0             	mov    DWORD PTR [ebp-0x10],eax
  1058b7:	83 7d f0 09          	cmp    DWORD PTR [ebp-0x10],0x9
  1058bb:	77 0a                	ja     0x1058c7
  1058bd:	8b 45 f0             	mov    eax,DWORD PTR [ebp-0x10]
  1058c0:	83 c0 30             	add    eax,0x30
  1058c3:	89 c1                	mov    ecx,eax
  1058c5:	eb 08                	jmp    0x1058cf
  1058c7:	8b 45 f0             	mov    eax,DWORD PTR [ebp-0x10]
  1058ca:	83 c0 57             	add    eax,0x57
  1058cd:	89 c1                	mov    ecx,eax
  1058cf:	8d 55 e7             	lea    edx,[ebp-0x19]
  1058d2:	8b 45 f4             	mov    eax,DWORD PTR [ebp-0xc]
  1058d5:	01 d0                	add    eax,edx
  1058d7:	88 08                	mov    BYTE PTR [eax],cl
  1058d9:	c1 6d 08 04          	shr    DWORD PTR [ebp+0x8],0x4
  1058dd:	83 6d f4 01          	sub    DWORD PTR [ebp-0xc],0x1
  1058e1:	83 7d f4 00          	cmp    DWORD PTR [ebp-0xc],0x0
  1058e5:	79 c7                	jns    0x1058ae
  1058e7:	83 ec 0c             	sub    esp,0xc
  1058ea:	8d 45 e7             	lea    eax,[ebp-0x19]
  1058ed:	50                   	push   eax
  1058ee:	e8 bb bb ff ff       	call   0x1014ae
  1058f3:	83 c4 10             	add    esp,0x10
  1058f6:	90                   	nop
  1058f7:	c9                   	leave
  1058f8:	c3                   	ret
  1058f9:	55                   	push   ebp
  1058fa:	89 e5                	mov    ebp,esp
  1058fc:	83 ec 18             	sub    esp,0x18
  1058ff:	8b 45 0c             	mov    eax,DWORD PTR [ebp+0xc]
  105902:	c1 e8 16             	shr    eax,0x16
  105905:	89 45 ec             	mov    DWORD PTR [ebp-0x14],eax
  105908:	8b 45 0c             	mov    eax,DWORD PTR [ebp+0xc]
  10590b:	c1 e8 0c             	shr    eax,0xc
  10590e:	25 ff 03 00 00       	and    eax,0x3ff
  105913:	89 45 e8             	mov    DWORD PTR [ebp-0x18],eax
  105916:	8b 45 ec             	mov    eax,DWORD PTR [ebp-0x14]
  105919:	8d 14 85 00 00 00 00 	lea    edx,[eax*4+0x0]
  105920:	8b 45 08             	mov    eax,DWORD PTR [ebp+0x8]
  105923:	01 d0                	add    eax,edx
  105925:	8b 00                	mov    eax,DWORD PTR [eax]
  105927:	83 e0 01             	and    eax,0x1
  10592a:	85 c0                	test   eax,eax
  10592c:	0f 85 85 00 00 00    	jne    0x1059b7
  105932:	e8 09 fe ff ff       	call   0x105740
  105937:	89 45 f4             	mov    DWORD PTR [ebp-0xc],eax
  10593a:	8b 45 f4             	mov    eax,DWORD PTR [ebp-0xc]
  10593d:	3d ff ff 3f 02       	cmp    eax,0x23fffff
  105942:	77 2f                	ja     0x105973
  105944:	83 ec 0c             	sub    esp,0xc
  105947:	68 b0 6f 10 00       	push   0x106fb0
  10594c:	e8 5d bb ff ff       	call   0x1014ae
  105951:	83 c4 10             	add    esp,0x10
  105954:	8b 45 f4             	mov    eax,DWORD PTR [ebp-0xc]
  105957:	83 ec 0c             	sub    esp,0xc
  10595a:	50                   	push   eax
  10595b:	e8 3b ff ff ff       	call   0x10589b
  105960:	83 c4 10             	add    esp,0x10
  105963:	83 ec 0c             	sub    esp,0xc
  105966:	68 e3 6f 10 00       	push   0x106fe3
  10596b:	e8 3e bb ff ff       	call   0x1014ae
  105970:	83 c4 10             	add    esp,0x10
  105973:	c7 45 f0 00 00 00 00 	mov    DWORD PTR [ebp-0x10],0x0
  10597a:	eb 19                	jmp    0x105995
  10597c:	8b 45 f0             	mov    eax,DWORD PTR [ebp-0x10]
  10597f:	8d 14 85 00 00 00 00 	lea    edx,[eax*4+0x0]
  105986:	8b 45 f4             	mov    eax,DWORD PTR [ebp-0xc]
  105989:	01 d0                	add    eax,edx
  10598b:	c7 00 00 00 00 00    	mov    DWORD PTR [eax],0x0
  105991:	83 45 f0 01          	add    DWORD PTR [ebp-0x10],0x1
  105995:	81 7d f0 ff 03 00 00 	cmp    DWORD PTR [ebp-0x10],0x3ff
  10599c:	7e de                	jle    0x10597c
  10599e:	8b 55 f4             	mov    edx,DWORD PTR [ebp-0xc]
  1059a1:	8b 45 ec             	mov    eax,DWORD PTR [ebp-0x14]
  1059a4:	8d 0c 85 00 00 00 00 	lea    ecx,[eax*4+0x0]
  1059ab:	8b 45 08             	mov    eax,DWORD PTR [ebp+0x8]
  1059ae:	01 c8                	add    eax,ecx
  1059b0:	83 ca 07             	or     edx,0x7
  1059b3:	89 10                	mov    DWORD PTR [eax],edx
  1059b5:	eb 19                	jmp    0x1059d0
  1059b7:	8b 45 ec             	mov    eax,DWORD PTR [ebp-0x14]
  1059ba:	8d 14 85 00 00 00 00 	lea    edx,[eax*4+0x0]
  1059c1:	8b 45 08             	mov    eax,DWORD PTR [ebp+0x8]
  1059c4:	01 d0                	add    eax,edx
  1059c6:	8b 00                	mov    eax,DWORD PTR [eax]
  1059c8:	25 00 f0 ff ff       	and    eax,0xfffff000
  1059cd:	89 45 f4             	mov    DWORD PTR [ebp-0xc],eax
  1059d0:	8b 45 10             	mov    eax,DWORD PTR [ebp+0x10]
  1059d3:	25 00 f0 ff ff       	and    eax,0xfffff000
  1059d8:	8b 55 e8             	mov    edx,DWORD PTR [ebp-0x18]
  1059db:	8d 0c 95 00 00 00 00 	lea    ecx,[edx*4+0x0]
  1059e2:	8b 55 f4             	mov    edx,DWORD PTR [ebp-0xc]
  1059e5:	01 ca                	add    edx,ecx
  1059e7:	0b 45 14             	or     eax,DWORD PTR [ebp+0x14]
  1059ea:	89 02                	mov    DWORD PTR [edx],eax
  1059ec:	90                   	nop
  1059ed:	c9                   	leave
  1059ee:	c3                   	ret
  1059ef:	55                   	push   ebp
  1059f0:	89 e5                	mov    ebp,esp
  1059f2:	83 ec 18             	sub    esp,0x18
  1059f5:	81 65 0c 00 f0 ff ff 	and    DWORD PTR [ebp+0xc],0xfffff000
  1059fc:	8b 45 10             	mov    eax,DWORD PTR [ebp+0x10]
  1059ff:	05 ff 0f 00 00       	add    eax,0xfff
  105a04:	25 00 f0 ff ff       	and    eax,0xfffff000
  105a09:	89 45 10             	mov    DWORD PTR [ebp+0x10],eax
  105a0c:	8b 45 0c             	mov    eax,DWORD PTR [ebp+0xc]
  105a0f:	89 45 f4             	mov    DWORD PTR [ebp-0xc],eax
  105a12:	eb 1a                	jmp    0x105a2e
  105a14:	6a 07                	push   0x7
  105a16:	ff 75 f4             	push   DWORD PTR [ebp-0xc]
  105a19:	ff 75 f4             	push   DWORD PTR [ebp-0xc]
  105a1c:	ff 75 08             	push   DWORD PTR [ebp+0x8]
  105a1f:	e8 d5 fe ff ff       	call   0x1058f9
  105a24:	83 c4 10             	add    esp,0x10
  105a27:	81 45 f4 00 10 00 00 	add    DWORD PTR [ebp-0xc],0x1000
  105a2e:	8b 45 f4             	mov    eax,DWORD PTR [ebp-0xc]
  105a31:	3b 45 10             	cmp    eax,DWORD PTR [ebp+0x10]
  105a34:	72 de                	jb     0x105a14
  105a36:	90                   	nop
  105a37:	90                   	nop
  105a38:	c9                   	leave
  105a39:	c3                   	ret
  105a3a:	55                   	push   ebp
  105a3b:	89 e5                	mov    ebp,esp
  105a3d:	83 ec 18             	sub    esp,0x18
  105a40:	a1 80 99 11 00       	mov    eax,ds:0x119980
  105a45:	85 c0                	test   eax,eax
  105a47:	75 12                	jne    0x105a5b
  105a49:	83 ec 0c             	sub    esp,0xc
  105a4c:	68 e8 6f 10 00       	push   0x106fe8
  105a51:	e8 58 ba ff ff       	call   0x1014ae
  105a56:	83 c4 10             	add    esp,0x10
  105a59:	eb 21                	jmp    0x105a7c
  105a5b:	a1 80 99 11 00       	mov    eax,ds:0x119980
  105a60:	0f 22 d8             	mov    cr3,eax
  105a63:	0f 20 c0             	mov    eax,cr0
  105a66:	89 45 f4             	mov    DWORD PTR [ebp-0xc],eax
  105a69:	81 4d f4 01 00 01 80 	or     DWORD PTR [ebp-0xc],0x80010001
  105a70:	8b 45 f4             	mov    eax,DWORD PTR [ebp-0xc]
  105a73:	0f 22 c0             	mov    cr0,eax
  105a76:	0f 20 d8             	mov    eax,cr3
  105a79:	0f 22 d8             	mov    cr3,eax
  105a7c:	c9                   	leave
  105a7d:	c3                   	ret
  105a7e:	55                   	push   ebp
  105a7f:	89 e5                	mov    ebp,esp
  105a81:	83 ec 10             	sub    esp,0x10
  105a84:	c7 45 fc 00 00 20 00 	mov    DWORD PTR [ebp-0x4],0x200000
  105a8b:	b8 ec 9b 11 00       	mov    eax,0x119bec
  105a90:	39 45 fc             	cmp    DWORD PTR [ebp-0x4],eax
  105a93:	73 07                	jae    0x105a9c
  105a95:	c7 45 fc ec 9b 11 00 	mov    DWORD PTR [ebp-0x4],0x119bec
  105a9c:	8b 45 08             	mov    eax,DWORD PTR [ebp+0x8]
  105a9f:	8b 00                	mov    eax,DWORD PTR [eax]
  105aa1:	83 e0 08             	and    eax,0x8
  105aa4:	85 c0                	test   eax,eax
  105aa6:	74 49                	je     0x105af1
  105aa8:	8b 45 08             	mov    eax,DWORD PTR [ebp+0x8]
  105aab:	8b 40 18             	mov    eax,DWORD PTR [eax+0x18]
  105aae:	89 45 f4             	mov    DWORD PTR [ebp-0xc],eax
  105ab1:	c7 45 f8 00 00 00 00 	mov    DWORD PTR [ebp-0x8],0x0
  105ab8:	eb 2c                	jmp    0x105ae6
  105aba:	8b 45 f8             	mov    eax,DWORD PTR [ebp-0x8]
  105abd:	c1 e0 04             	shl    eax,0x4
  105ac0:	89 c2                	mov    edx,eax
  105ac2:	8b 45 f4             	mov    eax,DWORD PTR [ebp-0xc]
  105ac5:	01 d0                	add    eax,edx
  105ac7:	8b 40 04             	mov    eax,DWORD PTR [eax+0x4]
  105aca:	39 45 fc             	cmp    DWORD PTR [ebp-0x4],eax
  105acd:	73 13                	jae    0x105ae2
  105acf:	8b 45 f8             	mov    eax,DWORD PTR [ebp-0x8]
  105ad2:	c1 e0 04             	shl    eax,0x4
  105ad5:	89 c2                	mov    edx,eax
  105ad7:	8b 45 f4             	mov    eax,DWORD PTR [ebp-0xc]
  105ada:	01 d0                	add    eax,edx
  105adc:	8b 40 04             	mov    eax,DWORD PTR [eax+0x4]
  105adf:	89 45 fc             	mov    DWORD PTR [ebp-0x4],eax
  105ae2:	83 45 f8 01          	add    DWORD PTR [ebp-0x8],0x1
  105ae6:	8b 45 08             	mov    eax,DWORD PTR [ebp+0x8]
  105ae9:	8b 40 14             	mov    eax,DWORD PTR [eax+0x14]
  105aec:	39 45 f8             	cmp    DWORD PTR [ebp-0x8],eax
  105aef:	72 c9                	jb     0x105aba
  105af1:	81 45 fc 00 00 10 00 	add    DWORD PTR [ebp-0x4],0x100000
  105af8:	8b 45 fc             	mov    eax,DWORD PTR [ebp-0x4]
  105afb:	05 ff ff 3f 00       	add    eax,0x3fffff
  105b00:	25 00 00 c0 ff       	and    eax,0xffc00000
  105b05:	89 45 fc             	mov    DWORD PTR [ebp-0x4],eax
  105b08:	81 7d fc ff ff ff 01 	cmp    DWORD PTR [ebp-0x4],0x1ffffff
  105b0f:	77 07                	ja     0x105b18
  105b11:	c7 45 fc 00 00 00 02 	mov    DWORD PTR [ebp-0x4],0x2000000
  105b18:	8b 45 fc             	mov    eax,DWORD PTR [ebp-0x4]
  105b1b:	c9                   	leave
  105b1c:	c3                   	ret
  105b1d:	55                   	push   ebp
  105b1e:	89 e5                	mov    ebp,esp
  105b20:	83 ec 18             	sub    esp,0x18
  105b23:	ff 75 08             	push   DWORD PTR [ebp+0x8]
  105b26:	e8 53 ff ff ff       	call   0x105a7e
  105b2b:	83 c4 04             	add    esp,0x4
  105b2e:	89 45 f0             	mov    DWORD PTR [ebp-0x10],eax
  105b31:	8b 45 f0             	mov    eax,DWORD PTR [ebp-0x10]
  105b34:	05 00 00 08 00       	add    eax,0x80000
  105b39:	89 45 ec             	mov    DWORD PTR [ebp-0x14],eax
  105b3c:	8b 45 ec             	mov    eax,DWORD PTR [ebp-0x14]
  105b3f:	05 ff ff 3f 00       	add    eax,0x3fffff
  105b44:	25 00 00 c0 ff       	and    eax,0xffc00000
  105b49:	89 45 ec             	mov    DWORD PTR [ebp-0x14],eax
  105b4c:	e8 ef fb ff ff       	call   0x105740
  105b51:	a3 80 99 11 00       	mov    ds:0x119980,eax
  105b56:	c7 45 f4 00 00 00 00 	mov    DWORD PTR [ebp-0xc],0x0
  105b5d:	eb 17                	jmp    0x105b76
  105b5f:	a1 80 99 11 00       	mov    eax,ds:0x119980
  105b64:	8b 55 f4             	mov    edx,DWORD PTR [ebp-0xc]
  105b67:	c1 e2 02             	shl    edx,0x2
  105b6a:	01 d0                	add    eax,edx
  105b6c:	c7 00 00 00 00 00    	mov    DWORD PTR [eax],0x0
  105b72:	83 45 f4 01          	add    DWORD PTR [ebp-0xc],0x1
  105b76:	81 7d f4 ff 03 00 00 	cmp    DWORD PTR [ebp-0xc],0x3ff
  105b7d:	7e e0                	jle    0x105b5f
  105b7f:	8b 45 ec             	mov    eax,DWORD PTR [ebp-0x14]
  105b82:	a3 84 99 11 00       	mov    ds:0x119984,eax
  105b87:	a1 80 99 11 00       	mov    eax,ds:0x119980
  105b8c:	05 00 00 10 00       	add    eax,0x100000
  105b91:	8b 15 84 99 11 00    	mov    edx,DWORD PTR ds:0x119984
  105b97:	39 c2                	cmp    edx,eax
  105b99:	73 0f                	jae    0x105baa
  105b9b:	a1 80 99 11 00       	mov    eax,ds:0x119980
  105ba0:	05 00 00 10 00       	add    eax,0x100000
  105ba5:	a3 84 99 11 00       	mov    ds:0x119984,eax
  105baa:	a1 84 99 11 00       	mov    eax,ds:0x119984
  105baf:	05 ff ff 3f 00       	add    eax,0x3fffff
  105bb4:	25 00 00 c0 ff       	and    eax,0xffc00000
  105bb9:	89 45 e8             	mov    DWORD PTR [ebp-0x18],eax
  105bbc:	83 ec 08             	sub    esp,0x8
  105bbf:	ff 75 e8             	push   DWORD PTR [ebp-0x18]
  105bc2:	68 00 00 10 00       	push   0x100000
  105bc7:	e8 f9 fa ff ff       	call   0x1056c5
  105bcc:	83 c4 10             	add    esp,0x10
  105bcf:	c7 05 84 99 11 00 00 	mov    DWORD PTR ds:0x119984,0x8000000
  105bd6:	00 00 08 
  105bd9:	8b 15 84 99 11 00    	mov    edx,DWORD PTR ds:0x119984
  105bdf:	a1 80 99 11 00       	mov    eax,ds:0x119980
  105be4:	83 ec 04             	sub    esp,0x4
  105be7:	52                   	push   edx
  105be8:	6a 00                	push   0x0
  105bea:	50                   	push   eax
  105beb:	e8 ff fd ff ff       	call   0x1059ef
  105bf0:	83 c4 10             	add    esp,0x10
  105bf3:	e8 42 fe ff ff       	call   0x105a3a
  105bf8:	b8 01 00 00 00       	mov    eax,0x1
  105bfd:	c9                   	leave
  105bfe:	c3                   	ret
  105bff:	55                   	push   ebp
  105c00:	89 e5                	mov    ebp,esp
  105c02:	83 ec 18             	sub    esp,0x18
  105c05:	e8 36 fb ff ff       	call   0x105740
  105c0a:	89 45 f4             	mov    DWORD PTR [ebp-0xc],eax
  105c0d:	8b 45 f4             	mov    eax,DWORD PTR [ebp-0xc]
  105c10:	c9                   	leave
  105c11:	c3                   	ret
  105c12:	55                   	push   ebp
  105c13:	89 e5                	mov    ebp,esp
  105c15:	83 ec 08             	sub    esp,0x8
  105c18:	83 ec 0c             	sub    esp,0xc
  105c1b:	ff 75 08             	push   DWORD PTR [ebp+0x8]
  105c1e:	e8 7b fb ff ff       	call   0x10579e
  105c23:	83 c4 10             	add    esp,0x10
  105c26:	90                   	nop
  105c27:	c9                   	leave
  105c28:	c3                   	ret
  105c29:	55                   	push   ebp
  105c2a:	89 e5                	mov    ebp,esp
  105c2c:	83 ec 18             	sub    esp,0x18
  105c2f:	a1 80 99 11 00       	mov    eax,ds:0x119980
  105c34:	85 c0                	test   eax,eax
  105c36:	75 12                	jne    0x105c4a
  105c38:	83 ec 0c             	sub    esp,0xc
  105c3b:	68 1c 70 10 00       	push   0x10701c
  105c40:	e8 69 b8 ff ff       	call   0x1014ae
  105c45:	83 c4 10             	add    esp,0x10
  105c48:	eb 5a                	jmp    0x105ca4
  105c4a:	8b 45 08             	mov    eax,DWORD PTR [ebp+0x8]
  105c4d:	25 00 f0 ff ff       	and    eax,0xfffff000
  105c52:	89 45 f0             	mov    DWORD PTR [ebp-0x10],eax
  105c55:	8b 45 0c             	mov    eax,DWORD PTR [ebp+0xc]
  105c58:	05 ff 0f 00 00       	add    eax,0xfff
  105c5d:	25 00 f0 ff ff       	and    eax,0xfffff000
  105c62:	89 45 ec             	mov    DWORD PTR [ebp-0x14],eax
  105c65:	c7 45 f4 00 00 00 00 	mov    DWORD PTR [ebp-0xc],0x0
  105c6c:	eb 28                	jmp    0x105c96
  105c6e:	8b 55 f0             	mov    edx,DWORD PTR [ebp-0x10]
  105c71:	8b 45 f4             	mov    eax,DWORD PTR [ebp-0xc]
  105c74:	01 d0                	add    eax,edx
  105c76:	89 45 e8             	mov    DWORD PTR [ebp-0x18],eax
  105c79:	a1 80 99 11 00       	mov    eax,ds:0x119980
  105c7e:	6a 03                	push   0x3
  105c80:	ff 75 e8             	push   DWORD PTR [ebp-0x18]
  105c83:	ff 75 e8             	push   DWORD PTR [ebp-0x18]
  105c86:	50                   	push   eax
  105c87:	e8 6d fc ff ff       	call   0x1058f9
  105c8c:	83 c4 10             	add    esp,0x10
  105c8f:	81 45 f4 00 10 00 00 	add    DWORD PTR [ebp-0xc],0x1000
  105c96:	8b 45 f4             	mov    eax,DWORD PTR [ebp-0xc]
  105c99:	3b 45 ec             	cmp    eax,DWORD PTR [ebp-0x14]
  105c9c:	72 d0                	jb     0x105c6e
  105c9e:	0f 20 d8             	mov    eax,cr3
  105ca1:	0f 22 d8             	mov    cr3,eax
  105ca4:	c9                   	leave
  105ca5:	c3                   	ret
  105ca6:	55                   	push   ebp
  105ca7:	89 e5                	mov    ebp,esp
  105ca9:	83 ec 08             	sub    esp,0x8
  105cac:	e8 8f fa ff ff       	call   0x105740
  105cb1:	a3 88 99 11 00       	mov    ds:0x119988,eax
  105cb6:	c7 05 8c 99 11 00 00 	mov    DWORD PTR ds:0x11998c,0x8000000
  105cbd:	00 00 08 
  105cc0:	a1 88 99 11 00       	mov    eax,ds:0x119988
  105cc5:	a3 90 99 11 00       	mov    ds:0x119990,eax
  105cca:	90                   	nop
  105ccb:	c9                   	leave
  105ccc:	c3                   	ret
  105ccd:	55                   	push   ebp
  105cce:	89 e5                	mov    ebp,esp
  105cd0:	83 ec 18             	sub    esp,0x18
  105cd3:	83 7d 08 00          	cmp    DWORD PTR [ebp+0x8],0x0
  105cd7:	75 07                	jne    0x105ce0
  105cd9:	b8 00 00 00 00       	mov    eax,0x0
  105cde:	eb 7f                	jmp    0x105d5f
  105ce0:	8b 45 08             	mov    eax,DWORD PTR [ebp+0x8]
  105ce3:	83 c0 0f             	add    eax,0xf
  105ce6:	83 e0 f0             	and    eax,0xfffffff0
  105ce9:	89 45 08             	mov    DWORD PTR [ebp+0x8],eax
  105cec:	8b 15 90 99 11 00    	mov    edx,DWORD PTR ds:0x119990
  105cf2:	8b 45 08             	mov    eax,DWORD PTR [ebp+0x8]
  105cf5:	01 d0                	add    eax,edx
  105cf7:	8b 15 8c 99 11 00    	mov    edx,DWORD PTR ds:0x11998c
  105cfd:	39 c2                	cmp    edx,eax
  105cff:	73 07                	jae    0x105d08
  105d01:	b8 00 00 00 00       	mov    eax,0x0
  105d06:	eb 57                	jmp    0x105d5f
  105d08:	a1 90 99 11 00       	mov    eax,ds:0x119990
  105d0d:	89 45 f4             	mov    DWORD PTR [ebp-0xc],eax
  105d10:	8b 15 90 99 11 00    	mov    edx,DWORD PTR ds:0x119990
  105d16:	8b 45 08             	mov    eax,DWORD PTR [ebp+0x8]
  105d19:	01 d0                	add    eax,edx
  105d1b:	a3 90 99 11 00       	mov    ds:0x119990,eax
  105d20:	a1 90 99 11 00       	mov    eax,ds:0x119990
  105d25:	05 ff 0f 00 00       	add    eax,0xfff
  105d2a:	25 00 f0 ff ff       	and    eax,0xfffff000
  105d2f:	89 45 f0             	mov    DWORD PTR [ebp-0x10],eax
  105d32:	a1 94 99 11 00       	mov    eax,ds:0x119994
  105d37:	3b 45 f0             	cmp    eax,DWORD PTR [ebp-0x10]
  105d3a:	73 20                	jae    0x105d5c
  105d3c:	eb 14                	jmp    0x105d52
  105d3e:	e8 fd f9 ff ff       	call   0x105740
  105d43:	a1 94 99 11 00       	mov    eax,ds:0x119994
  105d48:	05 00 10 00 00       	add    eax,0x1000
  105d4d:	a3 94 99 11 00       	mov    ds:0x119994,eax
  105d52:	a1 94 99 11 00       	mov    eax,ds:0x119994
  105d57:	3b 45 f0             	cmp    eax,DWORD PTR [ebp-0x10]
  105d5a:	72 e2                	jb     0x105d3e
  105d5c:	8b 45 f4             	mov    eax,DWORD PTR [ebp-0xc]
  105d5f:	c9                   	leave
  105d60:	c3                   	ret
  105d61:	55                   	push   ebp
  105d62:	89 e5                	mov    ebp,esp
  105d64:	83 ec 18             	sub    esp,0x18
  105d67:	83 7d 08 00          	cmp    DWORD PTR [ebp+0x8],0x0
  105d6b:	75 0a                	jne    0x105d77
  105d6d:	b8 00 00 00 00       	mov    eax,0x0
  105d72:	e9 90 00 00 00       	jmp    0x105e07
  105d77:	8b 15 90 99 11 00    	mov    edx,DWORD PTR ds:0x119990
  105d7d:	8b 45 0c             	mov    eax,DWORD PTR [ebp+0xc]
  105d80:	01 d0                	add    eax,edx
  105d82:	8d 50 ff             	lea    edx,[eax-0x1]
  105d85:	8b 45 0c             	mov    eax,DWORD PTR [ebp+0xc]
  105d88:	f7 d8                	neg    eax
  105d8a:	21 d0                	and    eax,edx
  105d8c:	89 45 f4             	mov    DWORD PTR [ebp-0xc],eax
  105d8f:	8b 55 f4             	mov    edx,DWORD PTR [ebp-0xc]
  105d92:	8b 45 08             	mov    eax,DWORD PTR [ebp+0x8]
  105d95:	01 d0                	add    eax,edx
  105d97:	8b 15 8c 99 11 00    	mov    edx,DWORD PTR ds:0x11998c
  105d9d:	39 c2                	cmp    edx,eax
  105d9f:	73 07                	jae    0x105da8
  105da1:	b8 00 00 00 00       	mov    eax,0x0
  105da6:	eb 5f                	jmp    0x105e07
  105da8:	8b 45 f4             	mov    eax,DWORD PTR [ebp-0xc]
  105dab:	a3 90 99 11 00       	mov    ds:0x119990,eax
  105db0:	a1 90 99 11 00       	mov    eax,ds:0x119990
  105db5:	89 45 f0             	mov    DWORD PTR [ebp-0x10],eax
  105db8:	8b 15 90 99 11 00    	mov    edx,DWORD PTR ds:0x119990
  105dbe:	8b 45 08             	mov    eax,DWORD PTR [ebp+0x8]
  105dc1:	01 d0                	add    eax,edx
  105dc3:	a3 90 99 11 00       	mov    ds:0x119990,eax
  105dc8:	a1 90 99 11 00       	mov    eax,ds:0x119990
  105dcd:	05 ff 0f 00 00       	add    eax,0xfff
  105dd2:	25 00 f0 ff ff       	and    eax,0xfffff000
  105dd7:	89 45 ec             	mov    DWORD PTR [ebp-0x14],eax
  105dda:	a1 98 99 11 00       	mov    eax,ds:0x119998
  105ddf:	3b 45 ec             	cmp    eax,DWORD PTR [ebp-0x14]
  105de2:	73 20                	jae    0x105e04
  105de4:	eb 14                	jmp    0x105dfa
  105de6:	e8 55 f9 ff ff       	call   0x105740
  105deb:	a1 98 99 11 00       	mov    eax,ds:0x119998
  105df0:	05 00 10 00 00       	add    eax,0x1000
  105df5:	a3 98 99 11 00       	mov    ds:0x119998,eax
  105dfa:	a1 98 99 11 00       	mov    eax,ds:0x119998
  105dff:	3b 45 ec             	cmp    eax,DWORD PTR [ebp-0x14]
  105e02:	72 e2                	jb     0x105de6
  105e04:	8b 45 f0             	mov    eax,DWORD PTR [ebp-0x10]
  105e07:	c9                   	leave
  105e08:	c3                   	ret
  105e09:	55                   	push   ebp
  105e0a:	89 e5                	mov    ebp,esp
  105e0c:	90                   	nop
  105e0d:	5d                   	pop    ebp
  105e0e:	c3                   	ret
  105e0f:	55                   	push   ebp
  105e10:	89 e5                	mov    ebp,esp
  105e12:	8b 15 8c 99 11 00    	mov    edx,DWORD PTR ds:0x11998c
  105e18:	a1 88 99 11 00       	mov    eax,ds:0x119988
  105e1d:	29 c2                	sub    edx,eax
  105e1f:	c1 ea 0c             	shr    edx,0xc
  105e22:	8b 45 08             	mov    eax,DWORD PTR [ebp+0x8]
  105e25:	89 10                	mov    DWORD PTR [eax],edx
  105e27:	8b 15 90 99 11 00    	mov    edx,DWORD PTR ds:0x119990
  105e2d:	a1 88 99 11 00       	mov    eax,ds:0x119988
  105e32:	29 c2                	sub    edx,eax
  105e34:	8b 45 0c             	mov    eax,DWORD PTR [ebp+0xc]
  105e37:	89 10                	mov    DWORD PTR [eax],edx
  105e39:	8b 15 8c 99 11 00    	mov    edx,DWORD PTR ds:0x11998c
  105e3f:	a1 90 99 11 00       	mov    eax,ds:0x119990
  105e44:	29 c2                	sub    edx,eax
  105e46:	8b 45 10             	mov    eax,DWORD PTR [ebp+0x10]
  105e49:	89 10                	mov    DWORD PTR [eax],edx
  105e4b:	90                   	nop
  105e4c:	5d                   	pop    ebp
  105e4d:	c3                   	ret
  105e4e:	55                   	push   ebp
  105e4f:	89 e5                	mov    ebp,esp
  105e51:	83 ec 10             	sub    esp,0x10
  105e54:	c7 45 fc 00 00 00 00 	mov    DWORD PTR [ebp-0x4],0x0
  105e5b:	eb 12                	jmp    0x105e6f
  105e5d:	8b 45 fc             	mov    eax,DWORD PTR [ebp-0x4]
  105e60:	c7 04 85 a0 99 11 00 	mov    DWORD PTR [eax*4+0x1199a0],0x0
  105e67:	00 00 00 00 
  105e6b:	83 45 fc 01          	add    DWORD PTR [ebp-0x4],0x1
  105e6f:	83 7d fc 3f          	cmp    DWORD PTR [ebp-0x4],0x3f
  105e73:	7e e8                	jle    0x105e5d
  105e75:	c7 05 2c 80 10 00 01 	mov    DWORD PTR ds:0x10802c,0x1
  105e7c:	00 00 00 
  105e7f:	90                   	nop
  105e80:	c9                   	leave
  105e81:	c3                   	ret
  105e82:	55                   	push   ebp
  105e83:	89 e5                	mov    ebp,esp
  105e85:	83 ec 18             	sub    esp,0x18
  105e88:	83 ec 0c             	sub    esp,0xc
  105e8b:	6a 14                	push   0x14
  105e8d:	e8 3b fe ff ff       	call   0x105ccd
  105e92:	83 c4 10             	add    esp,0x10
  105e95:	89 45 f4             	mov    DWORD PTR [ebp-0xc],eax
  105e98:	83 7d f4 00          	cmp    DWORD PTR [ebp-0xc],0x0
  105e9c:	75 0a                	jne    0x105ea8
  105e9e:	b8 ff ff ff ff       	mov    eax,0xffffffff
  105ea3:	e9 8f 00 00 00       	jmp    0x105f37
  105ea8:	a1 2c 80 10 00       	mov    eax,ds:0x10802c
  105ead:	8d 50 01             	lea    edx,[eax+0x1]
  105eb0:	89 15 2c 80 10 00    	mov    DWORD PTR ds:0x10802c,edx
  105eb6:	8b 55 f4             	mov    edx,DWORD PTR [ebp-0xc]
  105eb9:	89 02                	mov    DWORD PTR [edx],eax
  105ebb:	8b 45 f4             	mov    eax,DWORD PTR [ebp-0xc]
  105ebe:	8b 55 08             	mov    edx,DWORD PTR [ebp+0x8]
  105ec1:	89 50 04             	mov    DWORD PTR [eax+0x4],edx
  105ec4:	8b 45 f4             	mov    eax,DWORD PTR [ebp-0xc]
  105ec7:	c7 40 08 02 00 00 00 	mov    DWORD PTR [eax+0x8],0x2
  105ece:	a1 30 80 10 00       	mov    eax,ds:0x108030
  105ed3:	89 45 f0             	mov    DWORD PTR [ebp-0x10],eax
  105ed6:	a1 30 80 10 00       	mov    eax,ds:0x108030
  105edb:	05 00 00 01 00       	add    eax,0x10000
  105ee0:	a3 30 80 10 00       	mov    ds:0x108030,eax
  105ee5:	a1 34 80 10 00       	mov    eax,ds:0x108034
  105eea:	89 45 ec             	mov    DWORD PTR [ebp-0x14],eax
  105eed:	a1 34 80 10 00       	mov    eax,ds:0x108034
  105ef2:	05 00 40 00 00       	add    eax,0x4000
  105ef7:	a3 34 80 10 00       	mov    ds:0x108034,eax
  105efc:	8b 45 f4             	mov    eax,DWORD PTR [ebp-0xc]
  105eff:	8b 00                	mov    eax,DWORD PTR [eax]
  105f01:	8d 50 ff             	lea    edx,[eax-0x1]
  105f04:	8b 45 f4             	mov    eax,DWORD PTR [ebp-0xc]
  105f07:	89 04 95 a0 99 11 00 	mov    DWORD PTR [edx*4+0x1199a0],eax
  105f0e:	83 ec 0c             	sub    esp,0xc
  105f11:	ff 75 ec             	push   DWORD PTR [ebp-0x14]
  105f14:	e8 08 e3 ff ff       	call   0x104221
  105f19:	83 c4 10             	add    esp,0x10
  105f1c:	fb                   	sti
  105f1d:	8b 45 f4             	mov    eax,DWORD PTR [ebp-0xc]
  105f20:	8b 40 04             	mov    eax,DWORD PTR [eax+0x4]
  105f23:	83 ec 08             	sub    esp,0x8
  105f26:	ff 75 f0             	push   DWORD PTR [ebp-0x10]
  105f29:	50                   	push   eax
  105f2a:	e8 5d ef ff ff       	call   0x104e8c
  105f2f:	83 c4 10             	add    esp,0x10
  105f32:	8b 45 f4             	mov    eax,DWORD PTR [ebp-0xc]
  105f35:	8b 00                	mov    eax,DWORD PTR [eax]
  105f37:	c9                   	leave
  105f38:	c3                   	ret
  105f39:	55                   	push   ebp
  105f3a:	89 e5                	mov    ebp,esp
  105f3c:	83 ec 18             	sub    esp,0x18
  105f3f:	a1 2c 80 10 00       	mov    eax,ds:0x10802c
  105f44:	83 f8 3f             	cmp    eax,0x3f
  105f47:	7e 0a                	jle    0x105f53
  105f49:	b8 ff ff ff ff       	mov    eax,0xffffffff
  105f4e:	e9 b8 00 00 00       	jmp    0x10600b
  105f53:	83 ec 0c             	sub    esp,0xc
  105f56:	6a 14                	push   0x14
  105f58:	e8 70 fd ff ff       	call   0x105ccd
  105f5d:	83 c4 10             	add    esp,0x10
  105f60:	89 45 f4             	mov    DWORD PTR [ebp-0xc],eax
  105f63:	83 7d f4 00          	cmp    DWORD PTR [ebp-0xc],0x0
  105f67:	75 0a                	jne    0x105f73
  105f69:	b8 ff ff ff ff       	mov    eax,0xffffffff
  105f6e:	e9 98 00 00 00       	jmp    0x10600b
  105f73:	a1 2c 80 10 00       	mov    eax,ds:0x10802c
  105f78:	8d 50 01             	lea    edx,[eax+0x1]
  105f7b:	89 15 2c 80 10 00    	mov    DWORD PTR ds:0x10802c,edx
  105f81:	8b 55 f4             	mov    edx,DWORD PTR [ebp-0xc]
  105f84:	89 02                	mov    DWORD PTR [edx],eax
  105f86:	8b 45 f4             	mov    eax,DWORD PTR [ebp-0xc]
  105f89:	8b 55 08             	mov    edx,DWORD PTR [ebp+0x8]
  105f8c:	89 50 04             	mov    DWORD PTR [eax+0x4],edx
  105f8f:	8b 45 f4             	mov    eax,DWORD PTR [ebp-0xc]
  105f92:	c7 40 08 01 00 00 00 	mov    DWORD PTR [eax+0x8],0x1
  105f99:	a1 30 80 10 00       	mov    eax,ds:0x108030
  105f9e:	89 45 f0             	mov    DWORD PTR [ebp-0x10],eax
  105fa1:	a1 30 80 10 00       	mov    eax,ds:0x108030
  105fa6:	05 00 00 01 00       	add    eax,0x10000
  105fab:	a3 30 80 10 00       	mov    ds:0x108030,eax
  105fb0:	a1 34 80 10 00       	mov    eax,ds:0x108034
  105fb5:	89 45 ec             	mov    DWORD PTR [ebp-0x14],eax
  105fb8:	a1 34 80 10 00       	mov    eax,ds:0x108034
  105fbd:	05 00 40 00 00       	add    eax,0x4000
  105fc2:	a3 34 80 10 00       	mov    ds:0x108034,eax
  105fc7:	8b 45 f4             	mov    eax,DWORD PTR [ebp-0xc]
  105fca:	8b 55 f0             	mov    edx,DWORD PTR [ebp-0x10]
  105fcd:	89 50 0c             	mov    DWORD PTR [eax+0xc],edx
  105fd0:	8b 45 f4             	mov    eax,DWORD PTR [ebp-0xc]
  105fd3:	8b 55 ec             	mov    edx,DWORD PTR [ebp-0x14]
  105fd6:	89 50 10             	mov    DWORD PTR [eax+0x10],edx
  105fd9:	8b 45 f4             	mov    eax,DWORD PTR [ebp-0xc]
  105fdc:	8b 00                	mov    eax,DWORD PTR [eax]
  105fde:	8d 50 ff             	lea    edx,[eax-0x1]
  105fe1:	8b 45 f4             	mov    eax,DWORD PTR [ebp-0xc]
  105fe4:	89 04 95 a0 99 11 00 	mov    DWORD PTR [edx*4+0x1199a0],eax
  105feb:	8b 45 f4             	mov    eax,DWORD PTR [ebp-0xc]
  105fee:	8b 50 04             	mov    edx,DWORD PTR [eax+0x4]
  105ff1:	8b 45 f4             	mov    eax,DWORD PTR [ebp-0xc]
  105ff4:	8b 00                	mov    eax,DWORD PTR [eax]
  105ff6:	ff 75 ec             	push   DWORD PTR [ebp-0x14]
  105ff9:	ff 75 f0             	push   DWORD PTR [ebp-0x10]
  105ffc:	52                   	push   edx
  105ffd:	50                   	push   eax
  105ffe:	e8 42 02 00 00       	call   0x106245
  106003:	83 c4 10             	add    esp,0x10
  106006:	8b 45 f4             	mov    eax,DWORD PTR [ebp-0xc]
  106009:	8b 00                	mov    eax,DWORD PTR [eax]
  10600b:	c9                   	leave
  10600c:	c3                   	ret
  10600d:	55                   	push   ebp
  10600e:	89 e5                	mov    ebp,esp
  106010:	83 7d 08 00          	cmp    DWORD PTR [ebp+0x8],0x0
  106014:	7e 06                	jle    0x10601c
  106016:	83 7d 08 40          	cmp    DWORD PTR [ebp+0x8],0x40
  10601a:	7e 07                	jle    0x106023
  10601c:	b8 00 00 00 00       	mov    eax,0x0
  106021:	eb 0d                	jmp    0x106030
  106023:	8b 45 08             	mov    eax,DWORD PTR [ebp+0x8]
  106026:	83 e8 01             	sub    eax,0x1
  106029:	8b 04 85 a0 99 11 00 	mov    eax,DWORD PTR [eax*4+0x1199a0]
  106030:	5d                   	pop    ebp
  106031:	c3                   	ret
  106032:	55                   	push   ebp
  106033:	89 e5                	mov    ebp,esp
  106035:	83 ec 10             	sub    esp,0x10
  106038:	c7 45 fc 00 00 00 00 	mov    DWORD PTR [ebp-0x4],0x0
  10603f:	c7 45 f8 00 00 00 00 	mov    DWORD PTR [ebp-0x8],0x0
  106046:	eb 16                	jmp    0x10605e
  106048:	8b 45 f8             	mov    eax,DWORD PTR [ebp-0x8]
  10604b:	8b 04 85 a0 99 11 00 	mov    eax,DWORD PTR [eax*4+0x1199a0]
  106052:	85 c0                	test   eax,eax
  106054:	74 04                	je     0x10605a
  106056:	83 45 fc 01          	add    DWORD PTR [ebp-0x4],0x1
  10605a:	83 45 f8 01          	add    DWORD PTR [ebp-0x8],0x1
  10605e:	83 7d f8 3f          	cmp    DWORD PTR [ebp-0x8],0x3f
  106062:	7e e4                	jle    0x106048
  106064:	8b 45 fc             	mov    eax,DWORD PTR [ebp-0x4]
  106067:	c9                   	leave
  106068:	c3                   	ret
  106069:	55                   	push   ebp
  10606a:	89 e5                	mov    ebp,esp
  10606c:	83 ec 08             	sub    esp,0x8
  10606f:	8b 55 08             	mov    edx,DWORD PTR [ebp+0x8]
  106072:	8b 45 0c             	mov    eax,DWORD PTR [ebp+0xc]
  106075:	66 89 55 fc          	mov    WORD PTR [ebp-0x4],dx
  106079:	88 45 f8             	mov    BYTE PTR [ebp-0x8],al
  10607c:	0f b6 45 f8          	movzx  eax,BYTE PTR [ebp-0x8]
  106080:	0f b7 55 fc          	movzx  edx,WORD PTR [ebp-0x4]
  106084:	ee                   	out    dx,al
  106085:	90                   	nop
  106086:	c9                   	leave
  106087:	c3                   	ret
  106088:	55                   	push   ebp
  106089:	89 e5                	mov    ebp,esp
  10608b:	83 ec 08             	sub    esp,0x8
  10608e:	a1 a0 9a 11 00       	mov    eax,ds:0x119aa0
  106093:	83 c0 01             	add    eax,0x1
  106096:	a3 a0 9a 11 00       	mov    ds:0x119aa0,eax
  10609b:	e8 be 00 00 00       	call   0x10615e
  1060a0:	90                   	nop
  1060a1:	c9                   	leave
  1060a2:	c3                   	ret
  1060a3:	55                   	push   ebp
  1060a4:	89 e5                	mov    ebp,esp
  1060a6:	83 ec 10             	sub    esp,0x10
  1060a9:	b8 de 34 12 00       	mov    eax,0x1234de
  1060ae:	ba 00 00 00 00       	mov    edx,0x0
  1060b3:	f7 75 08             	div    DWORD PTR [ebp+0x8]
  1060b6:	89 45 fc             	mov    DWORD PTR [ebp-0x4],eax
  1060b9:	6a 36                	push   0x36
  1060bb:	6a 43                	push   0x43
  1060bd:	e8 a7 ff ff ff       	call   0x106069
  1060c2:	83 c4 08             	add    esp,0x8
  1060c5:	8b 45 fc             	mov    eax,DWORD PTR [ebp-0x4]
  1060c8:	0f b6 c0             	movzx  eax,al
  1060cb:	50                   	push   eax
  1060cc:	6a 40                	push   0x40
  1060ce:	e8 96 ff ff ff       	call   0x106069
  1060d3:	83 c4 08             	add    esp,0x8
  1060d6:	8b 45 fc             	mov    eax,DWORD PTR [ebp-0x4]
  1060d9:	c1 e8 08             	shr    eax,0x8
  1060dc:	0f b6 c0             	movzx  eax,al
  1060df:	50                   	push   eax
  1060e0:	6a 40                	push   0x40
  1060e2:	e8 82 ff ff ff       	call   0x106069
  1060e7:	83 c4 08             	add    esp,0x8
  1060ea:	90                   	nop
  1060eb:	c9                   	leave
  1060ec:	c3                   	ret
  1060ed:	55                   	push   ebp
  1060ee:	89 e5                	mov    ebp,esp
  1060f0:	a1 a0 9a 11 00       	mov    eax,ds:0x119aa0
  1060f5:	5d                   	pop    ebp
  1060f6:	c3                   	ret
  1060f7:	55                   	push   ebp
  1060f8:	89 e5                	mov    ebp,esp
  1060fa:	83 ec 10             	sub    esp,0x10
  1060fd:	8b 15 a0 9a 11 00    	mov    edx,DWORD PTR ds:0x119aa0
  106103:	8b 45 08             	mov    eax,DWORD PTR [ebp+0x8]
  106106:	01 d0                	add    eax,edx
  106108:	89 45 fc             	mov    DWORD PTR [ebp-0x4],eax
  10610b:	eb 02                	jmp    0x10610f
  10610d:	f3 90                	pause
  10610f:	a1 a0 9a 11 00       	mov    eax,ds:0x119aa0
  106114:	3b 45 fc             	cmp    eax,DWORD PTR [ebp-0x4]
  106117:	72 f4                	jb     0x10610d
  106119:	90                   	nop
  10611a:	90                   	nop
  10611b:	c9                   	leave
  10611c:	c3                   	ret
  10611d:	55                   	push   ebp
  10611e:	89 e5                	mov    ebp,esp
  106120:	83 ec 08             	sub    esp,0x8
  106123:	c7 05 38 80 10 00 ff 	mov    DWORD PTR ds:0x108038,0xffffffff
  10612a:	ff ff ff 
  10612d:	c7 05 c0 9a 11 00 00 	mov    DWORD PTR ds:0x119ac0,0x0
  106134:	00 00 00 
  106137:	83 ec 04             	sub    esp,0x4
  10613a:	68 20 10 00 ff       	push   0xff001020
  10613f:	68 00 ff 00 ff       	push   0xff00ff00
  106144:	68 56 70 10 00       	push   0x107056
  106149:	e8 14 c0 ff ff       	call   0x102162
  10614e:	83 c4 10             	add    esp,0x10
  106151:	90                   	nop
  106152:	c9                   	leave
  106153:	c3                   	ret
  106154:	55                   	push   ebp
  106155:	89 e5                	mov    ebp,esp
  106157:	a1 38 80 10 00       	mov    eax,ds:0x108038
  10615c:	5d                   	pop    ebp
  10615d:	c3                   	ret
  10615e:	55                   	push   ebp
  10615f:	89 e5                	mov    ebp,esp
  106161:	83 ec 18             	sub    esp,0x18
  106164:	a1 c0 9a 11 00       	mov    eax,ds:0x119ac0
  106169:	85 c0                	test   eax,eax
  10616b:	74 7b                	je     0x1061e8
  10616d:	a1 e8 9b 11 00       	mov    eax,ds:0x119be8
  106172:	85 c0                	test   eax,eax
  106174:	7e 73                	jle    0x1061e9
  106176:	a1 e0 9b 11 00       	mov    eax,ds:0x119be0
  10617b:	c1 e0 04             	shl    eax,0x4
  10617e:	05 e0 9a 11 00       	add    eax,0x119ae0
  106183:	89 45 f4             	mov    DWORD PTR [ebp-0xc],eax
  106186:	8b 45 f4             	mov    eax,DWORD PTR [ebp-0xc]
  106189:	8b 40 0c             	mov    eax,DWORD PTR [eax+0xc]
  10618c:	83 ec 0c             	sub    esp,0xc
  10618f:	50                   	push   eax
  106190:	e8 8c e0 ff ff       	call   0x104221
  106195:	83 c4 10             	add    esp,0x10
  106198:	a1 e0 9b 11 00       	mov    eax,ds:0x119be0
  10619d:	8d 50 01             	lea    edx,[eax+0x1]
  1061a0:	89 d0                	mov    eax,edx
  1061a2:	c1 f8 1f             	sar    eax,0x1f
  1061a5:	c1 e8 1c             	shr    eax,0x1c
  1061a8:	01 c2                	add    edx,eax
  1061aa:	83 e2 0f             	and    edx,0xf
  1061ad:	29 c2                	sub    edx,eax
  1061af:	89 d0                	mov    eax,edx
  1061b1:	a3 e0 9b 11 00       	mov    ds:0x119be0,eax
  1061b6:	a1 e8 9b 11 00       	mov    eax,ds:0x119be8
  1061bb:	83 e8 01             	sub    eax,0x1
  1061be:	a3 e8 9b 11 00       	mov    ds:0x119be8,eax
  1061c3:	8b 45 f4             	mov    eax,DWORD PTR [ebp-0xc]
  1061c6:	8b 00                	mov    eax,DWORD PTR [eax]
  1061c8:	a3 38 80 10 00       	mov    ds:0x108038,eax
  1061cd:	8b 45 f4             	mov    eax,DWORD PTR [ebp-0xc]
  1061d0:	8b 50 08             	mov    edx,DWORD PTR [eax+0x8]
  1061d3:	8b 45 f4             	mov    eax,DWORD PTR [ebp-0xc]
  1061d6:	8b 40 04             	mov    eax,DWORD PTR [eax+0x4]
  1061d9:	83 ec 08             	sub    esp,0x8
  1061dc:	52                   	push   edx
  1061dd:	50                   	push   eax
  1061de:	e8 a9 ec ff ff       	call   0x104e8c
  1061e3:	83 c4 10             	add    esp,0x10
  1061e6:	eb 01                	jmp    0x1061e9
  1061e8:	90                   	nop
  1061e9:	c9                   	leave
  1061ea:	c3                   	ret
  1061eb:	55                   	push   ebp
  1061ec:	89 e5                	mov    ebp,esp
  1061ee:	83 ec 08             	sub    esp,0x8
  1061f1:	c7 05 c0 9a 11 00 01 	mov    DWORD PTR ds:0x119ac0,0x1
  1061f8:	00 00 00 
  1061fb:	83 ec 04             	sub    esp,0x4
  1061fe:	68 20 10 00 ff       	push   0xff001020
  106203:	68 00 ff 00 ff       	push   0xff00ff00
  106208:	68 6f 70 10 00       	push   0x10706f
  10620d:	e8 50 bf ff ff       	call   0x102162
  106212:	83 c4 10             	add    esp,0x10
  106215:	90                   	nop
  106216:	c9                   	leave
  106217:	c3                   	ret
  106218:	55                   	push   ebp
  106219:	89 e5                	mov    ebp,esp
  10621b:	83 ec 08             	sub    esp,0x8
  10621e:	c7 05 c0 9a 11 00 00 	mov    DWORD PTR ds:0x119ac0,0x0
  106225:	00 00 00 
  106228:	83 ec 04             	sub    esp,0x4
  10622b:	68 20 10 00 ff       	push   0xff001020
  106230:	68 00 ff ff ff       	push   0xffffff00
  106235:	68 84 70 10 00       	push   0x107084
  10623a:	e8 23 bf ff ff       	call   0x102162
  10623f:	83 c4 10             	add    esp,0x10
  106242:	90                   	nop
  106243:	c9                   	leave
  106244:	c3                   	ret
  106245:	55                   	push   ebp
  106246:	89 e5                	mov    ebp,esp
  106248:	a1 e8 9b 11 00       	mov    eax,ds:0x119be8
  10624d:	83 f8 0f             	cmp    eax,0xf
  106250:	7f 79                	jg     0x1062cb
  106252:	a1 e4 9b 11 00       	mov    eax,ds:0x119be4
  106257:	c1 e0 04             	shl    eax,0x4
  10625a:	8d 90 e0 9a 11 00    	lea    edx,[eax+0x119ae0]
  106260:	8b 45 08             	mov    eax,DWORD PTR [ebp+0x8]
  106263:	89 02                	mov    DWORD PTR [edx],eax
  106265:	a1 e4 9b 11 00       	mov    eax,ds:0x119be4
  10626a:	c1 e0 04             	shl    eax,0x4
  10626d:	8d 90 e4 9a 11 00    	lea    edx,[eax+0x119ae4]
  106273:	8b 45 0c             	mov    eax,DWORD PTR [ebp+0xc]
  106276:	89 02                	mov    DWORD PTR [edx],eax
  106278:	a1 e4 9b 11 00       	mov    eax,ds:0x119be4
  10627d:	c1 e0 04             	shl    eax,0x4
  106280:	8d 90 e8 9a 11 00    	lea    edx,[eax+0x119ae8]
  106286:	8b 45 10             	mov    eax,DWORD PTR [ebp+0x10]
  106289:	89 02                	mov    DWORD PTR [edx],eax
  10628b:	a1 e4 9b 11 00       	mov    eax,ds:0x119be4
  106290:	c1 e0 04             	shl    eax,0x4
  106293:	8d 90 ec 9a 11 00    	lea    edx,[eax+0x119aec]
  106299:	8b 45 14             	mov    eax,DWORD PTR [ebp+0x14]
  10629c:	89 02                	mov    DWORD PTR [edx],eax
  10629e:	a1 e4 9b 11 00       	mov    eax,ds:0x119be4
  1062a3:	8d 50 01             	lea    edx,[eax+0x1]
  1062a6:	89 d0                	mov    eax,edx
  1062a8:	c1 f8 1f             	sar    eax,0x1f
  1062ab:	c1 e8 1c             	shr    eax,0x1c
  1062ae:	01 c2                	add    edx,eax
  1062b0:	83 e2 0f             	and    edx,0xf
  1062b3:	29 c2                	sub    edx,eax
  1062b5:	89 d0                	mov    eax,edx
  1062b7:	a3 e4 9b 11 00       	mov    ds:0x119be4,eax
  1062bc:	a1 e8 9b 11 00       	mov    eax,ds:0x119be8
  1062c1:	83 c0 01             	add    eax,0x1
  1062c4:	a3 e8 9b 11 00       	mov    ds:0x119be8,eax
  1062c9:	eb 01                	jmp    0x1062cc
  1062cb:	90                   	nop
  1062cc:	5d                   	pop    ebp
  1062cd:	c3                   	ret
  1062ce:	53                   	push   ebx
  1062cf:	56                   	push   esi
  1062d0:	57                   	push   edi
  1062d1:	55                   	push   ebp
  1062d2:	8b 7c 24 14          	mov    edi,DWORD PTR [esp+0x14]
  1062d6:	89 27                	mov    DWORD PTR [edi],esp
  1062d8:	8b 74 24 18          	mov    esi,DWORD PTR [esp+0x18]
  1062dc:	8b 26                	mov    esp,DWORD PTR [esi]
  1062de:	5d                   	pop    ebp
  1062df:	5f                   	pop    edi
  1062e0:	5e                   	pop    esi
  1062e1:	5b                   	pop    ebx
  1062e2:	c3                   	ret
  1062e3:	55                   	push   ebp
  1062e4:	89 e5                	mov    ebp,esp
  1062e6:	83 ec 08             	sub    esp,0x8
  1062e9:	8b 55 08             	mov    edx,DWORD PTR [ebp+0x8]
  1062ec:	8b 45 0c             	mov    eax,DWORD PTR [ebp+0xc]
  1062ef:	66 89 55 fc          	mov    WORD PTR [ebp-0x4],dx
  1062f3:	88 45 f8             	mov    BYTE PTR [ebp-0x8],al
  1062f6:	0f b6 45 f8          	movzx  eax,BYTE PTR [ebp-0x8]
  1062fa:	0f b7 55 fc          	movzx  edx,WORD PTR [ebp-0x4]
  1062fe:	ee                   	out    dx,al
  1062ff:	90                   	nop
  106300:	c9                   	leave
  106301:	c3                   	ret
  106302:	55                   	push   ebp
  106303:	89 e5                	mov    ebp,esp
  106305:	83 ec 14             	sub    esp,0x14
  106308:	8b 45 08             	mov    eax,DWORD PTR [ebp+0x8]
  10630b:	66 89 45 ec          	mov    WORD PTR [ebp-0x14],ax
  10630f:	0f b7 45 ec          	movzx  eax,WORD PTR [ebp-0x14]
  106313:	89 c2                	mov    edx,eax
  106315:	ec                   	in     al,dx
  106316:	88 45 ff             	mov    BYTE PTR [ebp-0x1],al
  106319:	0f b6 45 ff          	movzx  eax,BYTE PTR [ebp-0x1]
  10631d:	c9                   	leave
  10631e:	c3                   	ret
  10631f:	55                   	push   ebp
  106320:	89 e5                	mov    ebp,esp
  106322:	6a 00                	push   0x0
  106324:	68 80 00 00 00       	push   0x80
  106329:	e8 b5 ff ff ff       	call   0x1062e3
  10632e:	83 c4 08             	add    esp,0x8
  106331:	90                   	nop
  106332:	c9                   	leave
  106333:	c3                   	ret
  106334:	55                   	push   ebp
  106335:	89 e5                	mov    ebp,esp
  106337:	6a 11                	push   0x11
  106339:	6a 20                	push   0x20
  10633b:	e8 a3 ff ff ff       	call   0x1062e3
  106340:	83 c4 08             	add    esp,0x8
  106343:	e8 d7 ff ff ff       	call   0x10631f
  106348:	6a 11                	push   0x11
  10634a:	68 a0 00 00 00       	push   0xa0
  10634f:	e8 8f ff ff ff       	call   0x1062e3
  106354:	83 c4 08             	add    esp,0x8
  106357:	e8 c3 ff ff ff       	call   0x10631f
  10635c:	6a 20                	push   0x20
  10635e:	6a 21                	push   0x21
  106360:	e8 7e ff ff ff       	call   0x1062e3
  106365:	83 c4 08             	add    esp,0x8
  106368:	e8 b2 ff ff ff       	call   0x10631f
  10636d:	6a 28                	push   0x28
  10636f:	68 a1 00 00 00       	push   0xa1
  106374:	e8 6a ff ff ff       	call   0x1062e3
  106379:	83 c4 08             	add    esp,0x8
  10637c:	e8 9e ff ff ff       	call   0x10631f
  106381:	6a 04                	push   0x4
  106383:	6a 21                	push   0x21
  106385:	e8 59 ff ff ff       	call   0x1062e3
  10638a:	83 c4 08             	add    esp,0x8
  10638d:	e8 8d ff ff ff       	call   0x10631f
  106392:	6a 02                	push   0x2
  106394:	68 a1 00 00 00       	push   0xa1
  106399:	e8 45 ff ff ff       	call   0x1062e3
  10639e:	83 c4 08             	add    esp,0x8
  1063a1:	e8 79 ff ff ff       	call   0x10631f
  1063a6:	6a 01                	push   0x1
  1063a8:	6a 21                	push   0x21
  1063aa:	e8 34 ff ff ff       	call   0x1062e3
  1063af:	83 c4 08             	add    esp,0x8
  1063b2:	e8 68 ff ff ff       	call   0x10631f
  1063b7:	6a 01                	push   0x1
  1063b9:	68 a1 00 00 00       	push   0xa1
  1063be:	e8 20 ff ff ff       	call   0x1062e3
  1063c3:	83 c4 08             	add    esp,0x8
  1063c6:	e8 54 ff ff ff       	call   0x10631f
  1063cb:	68 ff 00 00 00       	push   0xff
  1063d0:	6a 21                	push   0x21
  1063d2:	e8 0c ff ff ff       	call   0x1062e3
  1063d7:	83 c4 08             	add    esp,0x8
  1063da:	68 ff 00 00 00       	push   0xff
  1063df:	68 a1 00 00 00       	push   0xa1
  1063e4:	e8 fa fe ff ff       	call   0x1062e3
  1063e9:	83 c4 08             	add    esp,0x8
  1063ec:	90                   	nop
  1063ed:	c9                   	leave
  1063ee:	c3                   	ret
  1063ef:	55                   	push   ebp
  1063f0:	89 e5                	mov    ebp,esp
  1063f2:	e8 3d ff ff ff       	call   0x106334
  1063f7:	90                   	nop
  1063f8:	5d                   	pop    ebp
  1063f9:	c3                   	ret
  1063fa:	55                   	push   ebp
  1063fb:	89 e5                	mov    ebp,esp
  1063fd:	eb 35                	jmp    0x106434
  1063ff:	90                   	nop
  106400:	68 fd 03 00 00       	push   0x3fd
  106405:	e8 f8 fe ff ff       	call   0x106302
  10640a:	83 c4 04             	add    esp,0x4
  10640d:	0f b6 c0             	movzx  eax,al
  106410:	83 e0 20             	and    eax,0x20
  106413:	85 c0                	test   eax,eax
  106415:	74 e9                	je     0x106400
  106417:	8b 45 08             	mov    eax,DWORD PTR [ebp+0x8]
  10641a:	8d 50 01             	lea    edx,[eax+0x1]
  10641d:	89 55 08             	mov    DWORD PTR [ebp+0x8],edx
  106420:	0f b6 00             	movzx  eax,BYTE PTR [eax]
  106423:	0f b6 c0             	movzx  eax,al
  106426:	50                   	push   eax
  106427:	68 f8 03 00 00       	push   0x3f8
  10642c:	e8 b2 fe ff ff       	call   0x1062e3
  106431:	83 c4 08             	add    esp,0x8
  106434:	8b 45 08             	mov    eax,DWORD PTR [ebp+0x8]
  106437:	0f b6 00             	movzx  eax,BYTE PTR [eax]
  10643a:	84 c0                	test   al,al
  10643c:	75 c1                	jne    0x1063ff
  10643e:	90                   	nop
  10643f:	90                   	nop
  106440:	c9                   	leave
  106441:	c3                   	ret
  106442:	55                   	push   ebp
  106443:	89 e5                	mov    ebp,esp
  106445:	83 ec 24             	sub    esp,0x24
  106448:	8b 45 08             	mov    eax,DWORD PTR [ebp+0x8]
  10644b:	88 45 dc             	mov    BYTE PTR [ebp-0x24],al
  10644e:	c7 45 ef 30 31 32 33 	mov    DWORD PTR [ebp-0x11],0x33323130
  106455:	c7 45 f3 34 35 36 37 	mov    DWORD PTR [ebp-0xd],0x37363534
  10645c:	c7 45 f7 38 39 41 42 	mov    DWORD PTR [ebp-0x9],0x42413938
  106463:	c7 45 fb 43 44 45 46 	mov    DWORD PTR [ebp-0x5],0x46454443
  10646a:	c6 45 ff 00          	mov    BYTE PTR [ebp-0x1],0x0
  10646e:	90                   	nop
  10646f:	68 fd 03 00 00       	push   0x3fd
  106474:	e8 89 fe ff ff       	call   0x106302
  106479:	83 c4 04             	add    esp,0x4
  10647c:	0f b6 c0             	movzx  eax,al
  10647f:	83 e0 20             	and    eax,0x20
  106482:	85 c0                	test   eax,eax
  106484:	74 e9                	je     0x10646f
  106486:	0f b6 45 dc          	movzx  eax,BYTE PTR [ebp-0x24]
  10648a:	c0 e8 04             	shr    al,0x4
  10648d:	0f b6 c0             	movzx  eax,al
  106490:	83 e0 0f             	and    eax,0xf
  106493:	0f b6 44 05 ef       	movzx  eax,BYTE PTR [ebp+eax*1-0x11]
  106498:	0f b6 c0             	movzx  eax,al
  10649b:	50                   	push   eax
  10649c:	68 f8 03 00 00       	push   0x3f8
  1064a1:	e8 3d fe ff ff       	call   0x1062e3
  1064a6:	83 c4 08             	add    esp,0x8
  1064a9:	90                   	nop
  1064aa:	68 fd 03 00 00       	push   0x3fd
  1064af:	e8 4e fe ff ff       	call   0x106302
  1064b4:	83 c4 04             	add    esp,0x4
  1064b7:	0f b6 c0             	movzx  eax,al
  1064ba:	83 e0 20             	and    eax,0x20
  1064bd:	85 c0                	test   eax,eax
  1064bf:	74 e9                	je     0x1064aa
  1064c1:	0f b6 45 dc          	movzx  eax,BYTE PTR [ebp-0x24]
  1064c5:	83 e0 0f             	and    eax,0xf
  1064c8:	0f b6 44 05 ef       	movzx  eax,BYTE PTR [ebp+eax*1-0x11]
  1064cd:	0f b6 c0             	movzx  eax,al
  1064d0:	50                   	push   eax
  1064d1:	68 f8 03 00 00       	push   0x3f8
  1064d6:	e8 08 fe ff ff       	call   0x1062e3
  1064db:	83 c4 08             	add    esp,0x8
  1064de:	90                   	nop
  1064df:	c9                   	leave
  1064e0:	c3                   	ret
  1064e1:	55                   	push   ebp
  1064e2:	89 e5                	mov    ebp,esp
  1064e4:	83 ec 20             	sub    esp,0x20
  1064e7:	8b 45 08             	mov    eax,DWORD PTR [ebp+0x8]
  1064ea:	89 45 f4             	mov    DWORD PTR [ebp-0xc],eax
  1064ed:	68 9c 70 10 00       	push   0x10709c
  1064f2:	e8 03 ff ff ff       	call   0x1063fa
  1064f7:	83 c4 04             	add    esp,0x4
  1064fa:	8b 45 f4             	mov    eax,DWORD PTR [ebp-0xc]
  1064fd:	0f b6 c0             	movzx  eax,al
  106500:	50                   	push   eax
  106501:	e8 3c ff ff ff       	call   0x106442
  106506:	83 c4 04             	add    esp,0x4
  106509:	83 7d 08 07          	cmp    DWORD PTR [ebp+0x8],0x7
  10650d:	7f 18                	jg     0x106527
  10650f:	66 c7 45 fe 21 00    	mov    WORD PTR [ebp-0x2],0x21
  106515:	68 af 70 10 00       	push   0x1070af
  10651a:	e8 db fe ff ff       	call   0x1063fa
  10651f:	83 c4 04             	add    esp,0x4
  106522:	e9 df 00 00 00       	jmp    0x106606
  106527:	66 c7 45 fe a1 00    	mov    WORD PTR [ebp-0x2],0xa1
  10652d:	83 6d 08 08          	sub    DWORD PTR [ebp+0x8],0x8
  106531:	68 bb 70 10 00       	push   0x1070bb
  106536:	e8 bf fe ff ff       	call   0x1063fa
  10653b:	83 c4 04             	add    esp,0x4
  10653e:	6a 21                	push   0x21
  106540:	e8 bd fd ff ff       	call   0x106302
  106545:	83 c4 04             	add    esp,0x4
  106548:	88 45 f3             	mov    BYTE PTR [ebp-0xd],al
  10654b:	68 c6 70 10 00       	push   0x1070c6
  106550:	e8 a5 fe ff ff       	call   0x1063fa
  106555:	83 c4 04             	add    esp,0x4
  106558:	0f b6 45 f3          	movzx  eax,BYTE PTR [ebp-0xd]
  10655c:	50                   	push   eax
  10655d:	e8 e0 fe ff ff       	call   0x106442
  106562:	83 c4 04             	add    esp,0x4
  106565:	0f b6 45 f3          	movzx  eax,BYTE PTR [ebp-0xd]
  106569:	88 45 f2             	mov    BYTE PTR [ebp-0xe],al
  10656c:	80 65 f3 fb          	and    BYTE PTR [ebp-0xd],0xfb
  106570:	68 de 70 10 00       	push   0x1070de
  106575:	e8 80 fe ff ff       	call   0x1063fa
  10657a:	83 c4 04             	add    esp,0x4
  10657d:	0f b6 45 f3          	movzx  eax,BYTE PTR [ebp-0xd]
  106581:	50                   	push   eax
  106582:	e8 bb fe ff ff       	call   0x106442
  106587:	83 c4 04             	add    esp,0x4
  10658a:	0f b6 45 f3          	movzx  eax,BYTE PTR [ebp-0xd]
  10658e:	50                   	push   eax
  10658f:	6a 21                	push   0x21
  106591:	e8 4d fd ff ff       	call   0x1062e3
  106596:	83 c4 08             	add    esp,0x8
  106599:	6a 21                	push   0x21
  10659b:	e8 62 fd ff ff       	call   0x106302
  1065a0:	83 c4 04             	add    esp,0x4
  1065a3:	88 45 f1             	mov    BYTE PTR [ebp-0xf],al
  1065a6:	68 ec 70 10 00       	push   0x1070ec
  1065ab:	e8 4a fe ff ff       	call   0x1063fa
  1065b0:	83 c4 04             	add    esp,0x4
  1065b3:	0f b6 45 f1          	movzx  eax,BYTE PTR [ebp-0xf]
  1065b7:	50                   	push   eax
  1065b8:	e8 85 fe ff ff       	call   0x106442
  1065bd:	83 c4 04             	add    esp,0x4
  1065c0:	68 f8 70 10 00       	push   0x1070f8
  1065c5:	e8 30 fe ff ff       	call   0x1063fa
  1065ca:	83 c4 04             	add    esp,0x4
  1065cd:	0f b6 45 f1          	movzx  eax,BYTE PTR [ebp-0xf]
  1065d1:	3a 45 f3             	cmp    al,BYTE PTR [ebp-0xd]
  1065d4:	74 30                	je     0x106606
  1065d6:	68 fc 70 10 00       	push   0x1070fc
  1065db:	e8 1a fe ff ff       	call   0x1063fa
  1065e0:	83 c4 04             	add    esp,0x4
  1065e3:	0f b6 45 f3          	movzx  eax,BYTE PTR [ebp-0xd]
  1065e7:	50                   	push   eax
  1065e8:	6a 21                	push   0x21
  1065ea:	e8 f4 fc ff ff       	call   0x1062e3
  1065ef:	83 c4 08             	add    esp,0x8
  1065f2:	e8 28 fd ff ff       	call   0x10631f
  1065f7:	0f b6 45 f3          	movzx  eax,BYTE PTR [ebp-0xd]
  1065fb:	50                   	push   eax
  1065fc:	6a 21                	push   0x21
  1065fe:	e8 e0 fc ff ff       	call   0x1062e3
  106603:	83 c4 08             	add    esp,0x8
  106606:	0f b7 45 fe          	movzx  eax,WORD PTR [ebp-0x2]
  10660a:	50                   	push   eax
  10660b:	e8 f2 fc ff ff       	call   0x106302
  106610:	83 c4 04             	add    esp,0x4
  106613:	88 45 f0             	mov    BYTE PTR [ebp-0x10],al
  106616:	68 26 71 10 00       	push   0x107126
  10661b:	e8 da fd ff ff       	call   0x1063fa
  106620:	83 c4 04             	add    esp,0x4
  106623:	0f b6 45 f0          	movzx  eax,BYTE PTR [ebp-0x10]
  106627:	50                   	push   eax
  106628:	e8 15 fe ff ff       	call   0x106442
  10662d:	83 c4 04             	add    esp,0x4
  106630:	68 3a 71 10 00       	push   0x10713a
  106635:	e8 c0 fd ff ff       	call   0x1063fa
  10663a:	83 c4 04             	add    esp,0x4
  10663d:	8b 45 08             	mov    eax,DWORD PTR [ebp+0x8]
  106640:	0f b6 c0             	movzx  eax,al
  106643:	50                   	push   eax
  106644:	e8 f9 fd ff ff       	call   0x106442
  106649:	83 c4 04             	add    esp,0x4
  10664c:	0f b6 45 f0          	movzx  eax,BYTE PTR [ebp-0x10]
  106650:	88 45 ef             	mov    BYTE PTR [ebp-0x11],al
  106653:	8b 45 08             	mov    eax,DWORD PTR [ebp+0x8]
  106656:	ba 01 00 00 00       	mov    edx,0x1
  10665b:	89 c1                	mov    ecx,eax
  10665d:	d3 e2                	shl    edx,cl
  10665f:	89 d0                	mov    eax,edx
  106661:	f7 d0                	not    eax
  106663:	88 45 ee             	mov    BYTE PTR [ebp-0x12],al
  106666:	68 45 71 10 00       	push   0x107145
  10666b:	e8 8a fd ff ff       	call   0x1063fa
  106670:	83 c4 04             	add    esp,0x4
  106673:	0f b6 45 ee          	movzx  eax,BYTE PTR [ebp-0x12]
  106677:	50                   	push   eax
  106678:	e8 c5 fd ff ff       	call   0x106442
  10667d:	83 c4 04             	add    esp,0x4
  106680:	0f b6 45 ee          	movzx  eax,BYTE PTR [ebp-0x12]
  106684:	20 45 ef             	and    BYTE PTR [ebp-0x11],al
  106687:	68 de 70 10 00       	push   0x1070de
  10668c:	e8 69 fd ff ff       	call   0x1063fa
  106691:	83 c4 04             	add    esp,0x4
  106694:	0f b6 45 ef          	movzx  eax,BYTE PTR [ebp-0x11]
  106698:	50                   	push   eax
  106699:	e8 a4 fd ff ff       	call   0x106442
  10669e:	83 c4 04             	add    esp,0x4
  1066a1:	0f b6 55 ef          	movzx  edx,BYTE PTR [ebp-0x11]
  1066a5:	0f b7 45 fe          	movzx  eax,WORD PTR [ebp-0x2]
  1066a9:	52                   	push   edx
  1066aa:	50                   	push   eax
  1066ab:	e8 33 fc ff ff       	call   0x1062e3
  1066b0:	83 c4 08             	add    esp,0x8
  1066b3:	0f b7 45 fe          	movzx  eax,WORD PTR [ebp-0x2]
  1066b7:	50                   	push   eax
  1066b8:	e8 45 fc ff ff       	call   0x106302
  1066bd:	83 c4 04             	add    esp,0x4
  1066c0:	88 45 ed             	mov    BYTE PTR [ebp-0x13],al
  1066c3:	68 ec 70 10 00       	push   0x1070ec
  1066c8:	e8 2d fd ff ff       	call   0x1063fa
  1066cd:	83 c4 04             	add    esp,0x4
  1066d0:	0f b6 45 ed          	movzx  eax,BYTE PTR [ebp-0x13]
  1066d4:	50                   	push   eax
  1066d5:	e8 68 fd ff ff       	call   0x106442
  1066da:	83 c4 04             	add    esp,0x4
  1066dd:	68 f8 70 10 00       	push   0x1070f8
  1066e2:	e8 13 fd ff ff       	call   0x1063fa
  1066e7:	83 c4 04             	add    esp,0x4
  1066ea:	0f b6 45 ed          	movzx  eax,BYTE PTR [ebp-0x13]
  1066ee:	3a 45 ef             	cmp    al,BYTE PTR [ebp-0x11]
  1066f1:	74 37                	je     0x10672a
  1066f3:	68 50 71 10 00       	push   0x107150
  1066f8:	e8 fd fc ff ff       	call   0x1063fa
  1066fd:	83 c4 04             	add    esp,0x4
  106700:	c7 45 f8 00 00 00 00 	mov    DWORD PTR [ebp-0x8],0x0
  106707:	eb 1b                	jmp    0x106724
  106709:	0f b6 55 ef          	movzx  edx,BYTE PTR [ebp-0x11]
  10670d:	0f b7 45 fe          	movzx  eax,WORD PTR [ebp-0x2]
  106711:	52                   	push   edx
  106712:	50                   	push   eax
  106713:	e8 cb fb ff ff       	call   0x1062e3
  106718:	83 c4 08             	add    esp,0x8
  10671b:	e8 ff fb ff ff       	call   0x10631f
  106720:	83 45 f8 01          	add    DWORD PTR [ebp-0x8],0x1
  106724:	83 7d f8 04          	cmp    DWORD PTR [ebp-0x8],0x4
  106728:	7e df                	jle    0x106709
  10672a:	90                   	nop
  10672b:	c9                   	leave
  10672c:	c3                   	ret
  10672d:	55                   	push   ebp
  10672e:	89 e5                	mov    ebp,esp
  106730:	83 ec 10             	sub    esp,0x10
  106733:	83 7d 08 07          	cmp    DWORD PTR [ebp+0x8],0x7
  106737:	7f 08                	jg     0x106741
  106739:	66 c7 45 fe 21 00    	mov    WORD PTR [ebp-0x2],0x21
  10673f:	eb 0a                	jmp    0x10674b
  106741:	66 c7 45 fe a1 00    	mov    WORD PTR [ebp-0x2],0xa1
  106747:	83 6d 08 08          	sub    DWORD PTR [ebp+0x8],0x8
  10674b:	0f b7 45 fe          	movzx  eax,WORD PTR [ebp-0x2]
  10674f:	50                   	push   eax
  106750:	e8 ad fb ff ff       	call   0x106302
  106755:	83 c4 04             	add    esp,0x4
  106758:	88 45 fd             	mov    BYTE PTR [ebp-0x3],al
  10675b:	8b 45 08             	mov    eax,DWORD PTR [ebp+0x8]
  10675e:	ba 01 00 00 00       	mov    edx,0x1
  106763:	89 c1                	mov    ecx,eax
  106765:	d3 e2                	shl    edx,cl
  106767:	89 d0                	mov    eax,edx
  106769:	89 c2                	mov    edx,eax
  10676b:	0f b6 45 fd          	movzx  eax,BYTE PTR [ebp-0x3]
  10676f:	09 d0                	or     eax,edx
  106771:	88 45 fd             	mov    BYTE PTR [ebp-0x3],al
  106774:	0f b6 55 fd          	movzx  edx,BYTE PTR [ebp-0x3]
  106778:	0f b7 45 fe          	movzx  eax,WORD PTR [ebp-0x2]
  10677c:	52                   	push   edx
  10677d:	50                   	push   eax
  10677e:	e8 60 fb ff ff       	call   0x1062e3
  106783:	83 c4 08             	add    esp,0x8
  106786:	90                   	nop
  106787:	c9                   	leave
  106788:	c3                   	ret
  106789:	55                   	push   ebp
  10678a:	89 e5                	mov    ebp,esp
  10678c:	6a 00                	push   0x0
  10678e:	e8 4e fd ff ff       	call   0x1064e1
  106793:	83 c4 04             	add    esp,0x4
  106796:	90                   	nop
  106797:	c9                   	leave
  106798:	c3                   	ret
  106799:	55                   	push   ebp
  10679a:	89 e5                	mov    ebp,esp
  10679c:	6a 0c                	push   0xc
  10679e:	e8 3e fd ff ff       	call   0x1064e1
  1067a3:	83 c4 04             	add    esp,0x4
  1067a6:	90                   	nop
  1067a7:	c9                   	leave
  1067a8:	c3                   	ret
  1067a9:	55                   	push   ebp
  1067aa:	89 e5                	mov    ebp,esp
  1067ac:	83 ec 10             	sub    esp,0x10
  1067af:	6a 21                	push   0x21
  1067b1:	e8 4c fb ff ff       	call   0x106302
  1067b6:	83 c4 04             	add    esp,0x4
  1067b9:	88 45 ff             	mov    BYTE PTR [ebp-0x1],al
  1067bc:	68 a1 00 00 00       	push   0xa1
  1067c1:	e8 3c fb ff ff       	call   0x106302
  1067c6:	83 c4 04             	add    esp,0x4
  1067c9:	88 45 fe             	mov    BYTE PTR [ebp-0x2],al
  1067cc:	0f b6 45 fe          	movzx  eax,BYTE PTR [ebp-0x2]
  1067d0:	c1 e0 08             	shl    eax,0x8
  1067d3:	89 c2                	mov    edx,eax
  1067d5:	0f b6 45 ff          	movzx  eax,BYTE PTR [ebp-0x1]
  1067d9:	09 d0                	or     eax,edx
  1067db:	c9                   	leave
  1067dc:	c3                   	ret
  1067dd:	00 00                	add    BYTE PTR [eax],al
  1067df:	00 53 74             	add    BYTE PTR [ebx+0x74],dl
  1067e2:	61                   	popa
  1067e3:	72 74                	jb     0x106859
  1067e5:	69 6e 67 20 4d 61 61 	imul   ebp,DWORD PTR [esi+0x67],0x61614d20
  1067ec:	68 69 4f 53 2e       	push   0x2e534f69
  1067f1:	2e 2e 0a 00          	cs or  al,BYTE PTR cs:[eax]
  1067f5:	4d                   	dec    ebp
  1067f6:	20 61 20             	and    BYTE PTR [ecx+0x20],ah
  1067f9:	61                   	popa
  1067fa:	20 68 20             	and    BYTE PTR [eax+0x20],ch
  1067fd:	69 20 4f 20 53 00    	imul   esp,DWORD PTR [eax],0x53204f
  106803:	4c                   	dec    esp
  106804:	6f                   	outs   dx,DWORD PTR ds:[esi]
  106805:	61                   	popa
  106806:	64 69 6e 67 20 73 79 	imul   ebp,DWORD PTR fs:[esi+0x67],0x73797320
  10680d:	73 
  10680e:	74 65                	je     0x106875
  106810:	6d                   	ins    DWORD PTR es:[edi],dx
  106811:	2e 2e 2e 00 49 6e    	cs cs add BYTE PTR cs:[ecx+0x6e],cl
  106817:	69 74 69 61 6c 69 7a 	imul   esi,DWORD PTR [ecx+ebp*2+0x61],0x697a696c
  10681e:	69 
  10681f:	6e                   	outs   dx,BYTE PTR ds:[esi]
  106820:	67 20 63 6f          	and    BYTE PTR [bp+di+0x6f],ah
  106824:	6d                   	ins    DWORD PTR es:[edi],dx
  106825:	70 6f                	jo     0x106896
  106827:	6e                   	outs   dx,BYTE PTR ds:[esi]
  106828:	65 6e                	outs   dx,BYTE PTR gs:[esi]
  10682a:	74 73                	je     0x10689f
  10682c:	00 50 6c             	add    BYTE PTR [eax+0x6c],dl
  10682f:	65 61                	gs popa
  106831:	73 65                	jae    0x106898
  106833:	20 77 61             	and    BYTE PTR [edi+0x61],dh
  106836:	69 74 2e 2e 2e 00 00 	imul   esi,DWORD PTR [esi+ebp*1+0x2e],0x2e
  10683d:	00 
	...
  106a52:	18 3c 3c             	sbb    BYTE PTR [esp+edi*1],bh
  106a55:	3c 18                	cmp    al,0x18
  106a57:	18 18                	sbb    BYTE PTR [eax],bl
  106a59:	00 18                	add    BYTE PTR [eax],bl
  106a5b:	18 00                	sbb    BYTE PTR [eax],al
	...
  106b41:	00 3c 66             	add    BYTE PTR [esi+eiz*2],bh
  106b44:	66 6e                	data16 outs dx,BYTE PTR ds:[esi]
  106b46:	76 66                	jbe    0x106bae
  106b48:	66 66 3c 00          	data16 data16 cmp al,0x0
  106b4c:	00 00                	add    BYTE PTR [eax],al
  106b4e:	00 00                	add    BYTE PTR [eax],al
  106b50:	00 00                	add    BYTE PTR [eax],al
  106b52:	18 38                	sbb    BYTE PTR [eax],bh
  106b54:	18 18                	sbb    BYTE PTR [eax],bl
  106b56:	18 18                	sbb    BYTE PTR [eax],bl
  106b58:	18 18                	sbb    BYTE PTR [eax],bl
  106b5a:	7e 00                	jle    0x106b5c
  106b5c:	00 00                	add    BYTE PTR [eax],al
  106b5e:	00 00                	add    BYTE PTR [eax],al
  106b60:	00 00                	add    BYTE PTR [eax],al
  106b62:	3c 66                	cmp    al,0x66
  106b64:	06                   	push   es
  106b65:	0c 18                	or     al,0x18
  106b67:	30 60 66             	xor    BYTE PTR [eax+0x66],ah
  106b6a:	7e 00                	jle    0x106b6c
  106b6c:	00 00                	add    BYTE PTR [eax],al
  106b6e:	00 00                	add    BYTE PTR [eax],al
  106b70:	00 00                	add    BYTE PTR [eax],al
  106b72:	3c 66                	cmp    al,0x66
  106b74:	06                   	push   es
  106b75:	06                   	push   es
  106b76:	1c 06                	sbb    al,0x6
  106b78:	06                   	push   es
  106b79:	66 3c 00             	data16 cmp al,0x0
  106b7c:	00 00                	add    BYTE PTR [eax],al
  106b7e:	00 00                	add    BYTE PTR [eax],al
  106b80:	00 00                	add    BYTE PTR [eax],al
  106b82:	0c 1c                	or     al,0x1c
  106b84:	3c 6c                	cmp    al,0x6c
  106b86:	6c                   	ins    BYTE PTR es:[edi],dx
  106b87:	7e 0c                	jle    0x106b95
  106b89:	0c 0c                	or     al,0xc
  106b8b:	00 00                	add    BYTE PTR [eax],al
  106b8d:	00 00                	add    BYTE PTR [eax],al
  106b8f:	00 00                	add    BYTE PTR [eax],al
  106b91:	00 7e 60             	add    BYTE PTR [esi+0x60],bh
  106b94:	60                   	pusha
  106b95:	7c 06                	jl     0x106b9d
  106b97:	06                   	push   es
  106b98:	06                   	push   es
  106b99:	66 3c 00             	data16 cmp al,0x0
  106b9c:	00 00                	add    BYTE PTR [eax],al
  106b9e:	00 00                	add    BYTE PTR [eax],al
  106ba0:	00 00                	add    BYTE PTR [eax],al
  106ba2:	1c 30                	sbb    al,0x30
  106ba4:	60                   	pusha
  106ba5:	7c 66                	jl     0x106c0d
  106ba7:	66 66 66 3c 00       	data16 data16 data16 cmp al,0x0
  106bac:	00 00                	add    BYTE PTR [eax],al
  106bae:	00 00                	add    BYTE PTR [eax],al
  106bb0:	00 00                	add    BYTE PTR [eax],al
  106bb2:	7e 66                	jle    0x106c1a
  106bb4:	06                   	push   es
  106bb5:	0c 18                	or     al,0x18
  106bb7:	18 18                	sbb    BYTE PTR [eax],bl
  106bb9:	18 18                	sbb    BYTE PTR [eax],bl
  106bbb:	00 00                	add    BYTE PTR [eax],al
  106bbd:	00 00                	add    BYTE PTR [eax],al
  106bbf:	00 00                	add    BYTE PTR [eax],al
  106bc1:	00 3c 66             	add    BYTE PTR [esi+eiz*2],bh
  106bc4:	66 66 3c 66          	data16 data16 cmp al,0x66
  106bc8:	66 66 3c 00          	data16 data16 cmp al,0x0
  106bcc:	00 00                	add    BYTE PTR [eax],al
  106bce:	00 00                	add    BYTE PTR [eax],al
  106bd0:	00 00                	add    BYTE PTR [eax],al
  106bd2:	3c 66                	cmp    al,0x66
  106bd4:	66 66 3e 06          	data16 ds pushw es
  106bd8:	06                   	push   es
  106bd9:	0c 38                	or     al,0x38
	...
  106be3:	00 18                	add    BYTE PTR [eax],bl
  106be5:	18 00                	sbb    BYTE PTR [eax],al
  106be7:	00 18                	add    BYTE PTR [eax],bl
  106be9:	18 00                	sbb    BYTE PTR [eax],al
	...
  106c4f:	00 00                	add    BYTE PTR [eax],al
  106c51:	00 18                	add    BYTE PTR [eax],bl
  106c53:	3c 66                	cmp    al,0x66
  106c55:	66 66 7e 66          	data16 data16 jle 0x106cbf
  106c59:	66 66 00 00          	data16 data16 add BYTE PTR [eax],al
  106c5d:	00 00                	add    BYTE PTR [eax],al
  106c5f:	00 00                	add    BYTE PTR [eax],al
  106c61:	00 7c 66 66          	add    BYTE PTR [esi+eiz*2+0x66],bh
  106c65:	66 7c 66             	data16 jl 0x106cce
  106c68:	66 66 7c 00          	data16 data16 jl 0x106c6c
  106c6c:	00 00                	add    BYTE PTR [eax],al
  106c6e:	00 00                	add    BYTE PTR [eax],al
  106c70:	00 00                	add    BYTE PTR [eax],al
  106c72:	3c 66                	cmp    al,0x66
  106c74:	60                   	pusha
  106c75:	60                   	pusha
  106c76:	60                   	pusha
  106c77:	60                   	pusha
  106c78:	60                   	pusha
  106c79:	66 3c 00             	data16 cmp al,0x0
  106c7c:	00 00                	add    BYTE PTR [eax],al
  106c7e:	00 00                	add    BYTE PTR [eax],al
  106c80:	00 00                	add    BYTE PTR [eax],al
  106c82:	78 6c                	js     0x106cf0
  106c84:	66 66 66 66 66 6c    	data16 data16 data16 data16 data16 ins BYTE PTR es:[edi],dx
  106c8a:	78 00                	js     0x106c8c
  106c8c:	00 00                	add    BYTE PTR [eax],al
  106c8e:	00 00                	add    BYTE PTR [eax],al
  106c90:	00 00                	add    BYTE PTR [eax],al
  106c92:	7e 60                	jle    0x106cf4
  106c94:	60                   	pusha
  106c95:	60                   	pusha
  106c96:	7c 60                	jl     0x106cf8
  106c98:	60                   	pusha
  106c99:	60                   	pusha
  106c9a:	7e 00                	jle    0x106c9c
  106c9c:	00 00                	add    BYTE PTR [eax],al
  106c9e:	00 00                	add    BYTE PTR [eax],al
  106ca0:	00 00                	add    BYTE PTR [eax],al
  106ca2:	7e 60                	jle    0x106d04
  106ca4:	60                   	pusha
  106ca5:	60                   	pusha
  106ca6:	7c 60                	jl     0x106d08
  106ca8:	60                   	pusha
  106ca9:	60                   	pusha
  106caa:	60                   	pusha
  106cab:	00 00                	add    BYTE PTR [eax],al
  106cad:	00 00                	add    BYTE PTR [eax],al
  106caf:	00 00                	add    BYTE PTR [eax],al
  106cb1:	00 3c 66             	add    BYTE PTR [esi+eiz*2],bh
  106cb4:	60                   	pusha
  106cb5:	60                   	pusha
  106cb6:	6e                   	outs   dx,BYTE PTR ds:[esi]
  106cb7:	66 66 66 3c 00       	data16 data16 data16 cmp al,0x0
  106cbc:	00 00                	add    BYTE PTR [eax],al
  106cbe:	00 00                	add    BYTE PTR [eax],al
  106cc0:	00 00                	add    BYTE PTR [eax],al
  106cc2:	66 66 66 66 7e 66    	data16 data16 data16 data16 jle 0x106d2e
  106cc8:	66 66 66 00 00       	data16 data16 data16 add BYTE PTR [eax],al
  106ccd:	00 00                	add    BYTE PTR [eax],al
  106ccf:	00 00                	add    BYTE PTR [eax],al
  106cd1:	00 7e 18             	add    BYTE PTR [esi+0x18],bh
  106cd4:	18 18                	sbb    BYTE PTR [eax],bl
  106cd6:	18 18                	sbb    BYTE PTR [eax],bl
  106cd8:	18 18                	sbb    BYTE PTR [eax],bl
  106cda:	7e 00                	jle    0x106cdc
  106cdc:	00 00                	add    BYTE PTR [eax],al
  106cde:	00 00                	add    BYTE PTR [eax],al
  106ce0:	00 00                	add    BYTE PTR [eax],al
  106ce2:	1e                   	push   ds
  106ce3:	0c 0c                	or     al,0xc
  106ce5:	0c 0c                	or     al,0xc
  106ce7:	0c 6c                	or     al,0x6c
  106ce9:	6c                   	ins    BYTE PTR es:[edi],dx
  106cea:	38 00                	cmp    BYTE PTR [eax],al
  106cec:	00 00                	add    BYTE PTR [eax],al
  106cee:	00 00                	add    BYTE PTR [eax],al
  106cf0:	00 00                	add    BYTE PTR [eax],al
  106cf2:	66 66 6c             	data16 data16 ins BYTE PTR es:[edi],dx
  106cf5:	78 70                	js     0x106d67
  106cf7:	78 6c                	js     0x106d65
  106cf9:	66 66 00 00          	data16 data16 add BYTE PTR [eax],al
  106cfd:	00 00                	add    BYTE PTR [eax],al
  106cff:	00 00                	add    BYTE PTR [eax],al
  106d01:	00 60 60             	add    BYTE PTR [eax+0x60],ah
  106d04:	60                   	pusha
  106d05:	60                   	pusha
  106d06:	60                   	pusha
  106d07:	60                   	pusha
  106d08:	60                   	pusha
  106d09:	60                   	pusha
  106d0a:	7e 00                	jle    0x106d0c
  106d0c:	00 00                	add    BYTE PTR [eax],al
  106d0e:	00 00                	add    BYTE PTR [eax],al
  106d10:	00 00                	add    BYTE PTR [eax],al
  106d12:	63 77 7f             	arpl   WORD PTR [edi+0x7f],esi
  106d15:	6b 63 63 63          	imul   esp,DWORD PTR [ebx+0x63],0x63
  106d19:	63 63 00             	arpl   WORD PTR [ebx+0x0],esp
  106d1c:	00 00                	add    BYTE PTR [eax],al
  106d1e:	00 00                	add    BYTE PTR [eax],al
  106d20:	00 00                	add    BYTE PTR [eax],al
  106d22:	66 66 76 7e          	data16 data16 jbe 0x106da4
  106d26:	6e                   	outs   dx,BYTE PTR ds:[esi]
  106d27:	66 66 66 66 00 00    	data16 data16 data16 data16 add BYTE PTR [eax],al
  106d2d:	00 00                	add    BYTE PTR [eax],al
  106d2f:	00 00                	add    BYTE PTR [eax],al
  106d31:	00 3c 66             	add    BYTE PTR [esi+eiz*2],bh
  106d34:	66 66 66 66 66 66 3c 	data16 data16 data16 data16 data16 data16 cmp al,0x0
  106d3b:	00 
  106d3c:	00 00                	add    BYTE PTR [eax],al
  106d3e:	00 00                	add    BYTE PTR [eax],al
  106d40:	00 00                	add    BYTE PTR [eax],al
  106d42:	7c 66                	jl     0x106daa
  106d44:	66 66 7c 60          	data16 data16 jl 0x106da8
  106d48:	60                   	pusha
  106d49:	60                   	pusha
  106d4a:	60                   	pusha
  106d4b:	00 00                	add    BYTE PTR [eax],al
  106d4d:	00 00                	add    BYTE PTR [eax],al
  106d4f:	00 00                	add    BYTE PTR [eax],al
  106d51:	00 3c 66             	add    BYTE PTR [esi+eiz*2],bh
  106d54:	66 66 66 66 6a 6c    	data16 data16 data16 pushw 0x6c
  106d5a:	36 00 00             	add    BYTE PTR ss:[eax],al
  106d5d:	00 00                	add    BYTE PTR [eax],al
  106d5f:	00 00                	add    BYTE PTR [eax],al
  106d61:	00 7c 66 66          	add    BYTE PTR [esi+eiz*2+0x66],bh
  106d65:	66 7c 6c             	data16 jl 0x106dd4
  106d68:	66 66 66 00 00       	data16 data16 data16 add BYTE PTR [eax],al
  106d6d:	00 00                	add    BYTE PTR [eax],al
  106d6f:	00 00                	add    BYTE PTR [eax],al
  106d71:	00 3c 66             	add    BYTE PTR [esi+eiz*2],bh
  106d74:	60                   	pusha
  106d75:	30 18                	xor    BYTE PTR [eax],bl
  106d77:	0c 06                	or     al,0x6
  106d79:	66 3c 00             	data16 cmp al,0x0
  106d7c:	00 00                	add    BYTE PTR [eax],al
  106d7e:	00 00                	add    BYTE PTR [eax],al
  106d80:	00 00                	add    BYTE PTR [eax],al
  106d82:	7e 18                	jle    0x106d9c
  106d84:	18 18                	sbb    BYTE PTR [eax],bl
  106d86:	18 18                	sbb    BYTE PTR [eax],bl
  106d88:	18 18                	sbb    BYTE PTR [eax],bl
  106d8a:	18 00                	sbb    BYTE PTR [eax],al
  106d8c:	00 00                	add    BYTE PTR [eax],al
  106d8e:	00 00                	add    BYTE PTR [eax],al
  106d90:	00 00                	add    BYTE PTR [eax],al
  106d92:	66 66 66 66 66 66 66 	data16 data16 data16 data16 data16 data16 data16 data16 cmp al,0x0
  106d99:	66 3c 00 
  106d9c:	00 00                	add    BYTE PTR [eax],al
  106d9e:	00 00                	add    BYTE PTR [eax],al
  106da0:	00 00                	add    BYTE PTR [eax],al
  106da2:	66 66 66 66 66 66 66 	data16 data16 data16 data16 data16 data16 data16 cmp al,0x18
  106da9:	3c 18 
  106dab:	00 00                	add    BYTE PTR [eax],al
  106dad:	00 00                	add    BYTE PTR [eax],al
  106daf:	00 00                	add    BYTE PTR [eax],al
  106db1:	00 63 63             	add    BYTE PTR [ebx+0x63],ah
  106db4:	63 63 6b             	arpl   WORD PTR [ebx+0x6b],esp
  106db7:	7f 77                	jg     0x106e30
  106db9:	63 63 00             	arpl   WORD PTR [ebx+0x0],esp
  106dbc:	00 00                	add    BYTE PTR [eax],al
  106dbe:	00 00                	add    BYTE PTR [eax],al
  106dc0:	00 00                	add    BYTE PTR [eax],al
  106dc2:	66 66 3c 18          	data16 data16 cmp al,0x18
  106dc6:	18 3c 66             	sbb    BYTE PTR [esi+eiz*2],bh
  106dc9:	66 66 00 00          	data16 data16 add BYTE PTR [eax],al
  106dcd:	00 00                	add    BYTE PTR [eax],al
  106dcf:	00 00                	add    BYTE PTR [eax],al
  106dd1:	00 66 66             	add    BYTE PTR [esi+0x66],ah
  106dd4:	66 3c 18             	data16 cmp al,0x18
  106dd7:	18 18                	sbb    BYTE PTR [eax],bl
  106dd9:	18 18                	sbb    BYTE PTR [eax],bl
  106ddb:	00 00                	add    BYTE PTR [eax],al
  106ddd:	00 00                	add    BYTE PTR [eax],al
  106ddf:	00 00                	add    BYTE PTR [eax],al
  106de1:	00 7e 06             	add    BYTE PTR [esi+0x6],bh
  106de4:	0c 18                	or     al,0x18
  106de6:	30 60 60             	xor    BYTE PTR [eax+0x60],ah
  106de9:	60                   	pusha
  106dea:	7e 00                	jle    0x106dec
	...
  106e54:	3c 06                	cmp    al,0x6
  106e56:	3e 66 66 66 3e 00 00 	ds data16 data16 data16 add BYTE PTR ds:[eax],al
  106e5d:	00 00                	add    BYTE PTR [eax],al
  106e5f:	00 00                	add    BYTE PTR [eax],al
  106e61:	00 60 60             	add    BYTE PTR [eax+0x60],ah
  106e64:	7c 66                	jl     0x106ecc
  106e66:	66 66 66 66 7c 00    	data16 data16 data16 data16 jl 0x106e6c
	...
  106e74:	3c 66                	cmp    al,0x66
  106e76:	60                   	pusha
  106e77:	60                   	pusha
  106e78:	60                   	pusha
  106e79:	66 3c 00             	data16 cmp al,0x0
  106e7c:	00 00                	add    BYTE PTR [eax],al
  106e7e:	00 00                	add    BYTE PTR [eax],al
  106e80:	00 00                	add    BYTE PTR [eax],al
  106e82:	06                   	push   es
  106e83:	06                   	push   es
  106e84:	3e 66 66 66 66 66 3e 	ds data16 data16 data16 data16 data16 add BYTE PTR ds:[eax],al
  106e8b:	00 00 
  106e8d:	00 00                	add    BYTE PTR [eax],al
  106e8f:	00 00                	add    BYTE PTR [eax],al
  106e91:	00 00                	add    BYTE PTR [eax],al
  106e93:	00 3c 66             	add    BYTE PTR [esi+eiz*2],bh
  106e96:	66 7e 60             	data16 jle 0x106ef9
  106e99:	60                   	pusha
  106e9a:	3c 00                	cmp    al,0x0
  106e9c:	00 00                	add    BYTE PTR [eax],al
  106e9e:	00 00                	add    BYTE PTR [eax],al
  106ea0:	00 00                	add    BYTE PTR [eax],al
  106ea2:	1c 36                	sbb    al,0x36
  106ea4:	30 30                	xor    BYTE PTR [eax],dh
  106ea6:	7c 30                	jl     0x106ed8
  106ea8:	30 30                	xor    BYTE PTR [eax],dh
  106eaa:	30 00                	xor    BYTE PTR [eax],al
	...
  106eb4:	3e 66 66 66 3e 06    	ds data16 data16 ds pushw es
  106eba:	66 3c 00             	data16 cmp al,0x0
  106ebd:	00 00                	add    BYTE PTR [eax],al
  106ebf:	00 00                	add    BYTE PTR [eax],al
  106ec1:	00 60 60             	add    BYTE PTR [eax+0x60],ah
  106ec4:	7c 66                	jl     0x106f2c
  106ec6:	66 66 66 66 66 00 00 	data16 data16 data16 data16 data16 add BYTE PTR [eax],al
  106ecd:	00 00                	add    BYTE PTR [eax],al
  106ecf:	00 00                	add    BYTE PTR [eax],al
  106ed1:	00 18                	add    BYTE PTR [eax],bl
  106ed3:	00 38                	add    BYTE PTR [eax],bh
  106ed5:	18 18                	sbb    BYTE PTR [eax],bl
  106ed7:	18 18                	sbb    BYTE PTR [eax],bl
  106ed9:	18 3c 00             	sbb    BYTE PTR [eax+eax*1],bh
  106edc:	00 00                	add    BYTE PTR [eax],al
  106ede:	00 00                	add    BYTE PTR [eax],al
  106ee0:	00 00                	add    BYTE PTR [eax],al
  106ee2:	06                   	push   es
  106ee3:	00 06                	add    BYTE PTR [esi],al
  106ee5:	06                   	push   es
  106ee6:	06                   	push   es
  106ee7:	06                   	push   es
  106ee8:	06                   	push   es
  106ee9:	66 66 3c 00          	data16 data16 cmp al,0x0
  106eed:	00 00                	add    BYTE PTR [eax],al
  106eef:	00 00                	add    BYTE PTR [eax],al
  106ef1:	00 60 60             	add    BYTE PTR [eax+0x60],ah
  106ef4:	66 6c                	data16 ins BYTE PTR es:[edi],dx
  106ef6:	78 78                	js     0x106f70
  106ef8:	6c                   	ins    BYTE PTR es:[edi],dx
  106ef9:	66 66 00 00          	data16 data16 add BYTE PTR [eax],al
  106efd:	00 00                	add    BYTE PTR [eax],al
  106eff:	00 00                	add    BYTE PTR [eax],al
  106f01:	00 38                	add    BYTE PTR [eax],bh
  106f03:	18 18                	sbb    BYTE PTR [eax],bl
  106f05:	18 18                	sbb    BYTE PTR [eax],bl
  106f07:	18 18                	sbb    BYTE PTR [eax],bl
  106f09:	18 3c 00             	sbb    BYTE PTR [eax+eax*1],bh
	...
  106f14:	66 7f 7f             	data16 jg 0x106f96
  106f17:	6b 63 63 63          	imul   esp,DWORD PTR [ebx+0x63],0x63
	...
  106f23:	00 7c 66 66          	add    BYTE PTR [esi+eiz*2+0x66],bh
  106f27:	66 66 66 66 00 00    	data16 data16 data16 data16 add BYTE PTR [eax],al
  106f2d:	00 00                	add    BYTE PTR [eax],al
  106f2f:	00 00                	add    BYTE PTR [eax],al
  106f31:	00 00                	add    BYTE PTR [eax],al
  106f33:	00 3c 66             	add    BYTE PTR [esi+eiz*2],bh
  106f36:	66 66 66 66 3c 00    	data16 data16 data16 data16 cmp al,0x0
	...
  106f44:	7c 66                	jl     0x106fac
  106f46:	66 66 7c 60          	data16 data16 jl 0x106faa
  106f4a:	60                   	pusha
  106f4b:	60                   	pusha
	...
  106f54:	3e 66 66 66 3e 06    	ds data16 data16 ds pushw es
  106f5a:	06                   	push   es
  106f5b:	06                   	push   es
	...
  106f64:	7c 66                	jl     0x106fcc
  106f66:	60                   	pusha
  106f67:	60                   	pusha
  106f68:	60                   	pusha
  106f69:	60                   	pusha
  106f6a:	60                   	pusha
	...
  106f73:	00 3e                	add    BYTE PTR [esi],bh
  106f75:	60                   	pusha
  106f76:	60                   	pusha
  106f77:	3c 06                	cmp    al,0x6
  106f79:	06                   	push   es
  106f7a:	7c 00                	jl     0x106f7c
  106f7c:	00 00                	add    BYTE PTR [eax],al
  106f7e:	00 00                	add    BYTE PTR [eax],al
  106f80:	00 00                	add    BYTE PTR [eax],al
  106f82:	18 18                	sbb    BYTE PTR [eax],bl
  106f84:	7e 18                	jle    0x106f9e
  106f86:	18 18                	sbb    BYTE PTR [eax],bl
  106f88:	18 18                	sbb    BYTE PTR [eax],bl
  106f8a:	0e                   	push   cs
	...
  106f93:	00 66 66             	add    BYTE PTR [esi+0x66],ah
  106f96:	66 66 66 66 3e 00 00 	data16 data16 data16 data16 add BYTE PTR ds:[eax],al
  106f9d:	00 00                	add    BYTE PTR [eax],al
  106f9f:	00 00                	add    BYTE PTR [eax],al
  106fa1:	00 00                	add    BYTE PTR [eax],al
  106fa3:	00 66 66             	add    BYTE PTR [esi+0x66],ah
  106fa6:	66 66 66 3c 18       	data16 data16 data16 cmp al,0x18
	...
  106fb3:	00 63 63             	add    BYTE PTR [ebx+0x63],ah
  106fb6:	6b 6b 7f 36          	imul   ebp,DWORD PTR [ebx+0x7f],0x36
  106fba:	36 00 00             	add    BYTE PTR ss:[eax],al
  106fbd:	00 00                	add    BYTE PTR [eax],al
  106fbf:	00 00                	add    BYTE PTR [eax],al
  106fc1:	00 00                	add    BYTE PTR [eax],al
  106fc3:	00 66 66             	add    BYTE PTR [esi+0x66],ah
  106fc6:	3c 18                	cmp    al,0x18
  106fc8:	3c 66                	cmp    al,0x66
  106fca:	66 00 00             	data16 add BYTE PTR [eax],al
  106fcd:	00 00                	add    BYTE PTR [eax],al
  106fcf:	00 00                	add    BYTE PTR [eax],al
  106fd1:	00 00                	add    BYTE PTR [eax],al
  106fd3:	00 66 66             	add    BYTE PTR [esi+0x66],ah
  106fd6:	66 66 3e 06          	data16 ds pushw es
  106fda:	0c 78                	or     al,0x78
	...
  106fe4:	7e 06                	jle    0x106fec
  106fe6:	0c 18                	or     al,0x18
  106fe8:	30 60 7e             	xor    BYTE PTR [eax+0x7e],ah
	...
  10724f:	00 00                	add    BYTE PTR [eax],al
  107251:	00 18                	add    BYTE PTR [eax],bl
  107253:	3c 3c                	cmp    al,0x3c
  107255:	3c 18                	cmp    al,0x18
  107257:	18 18                	sbb    BYTE PTR [eax],bl
  107259:	00 18                	add    BYTE PTR [eax],bl
  10725b:	18 00                	sbb    BYTE PTR [eax],al
	...
  107341:	00 3c 66             	add    BYTE PTR [esi+eiz*2],bh
  107344:	66 6e                	data16 outs dx,BYTE PTR ds:[esi]
  107346:	76 66                	jbe    0x1073ae
  107348:	66 66 3c 00          	data16 data16 cmp al,0x0
  10734c:	00 00                	add    BYTE PTR [eax],al
  10734e:	00 00                	add    BYTE PTR [eax],al
  107350:	00 00                	add    BYTE PTR [eax],al
  107352:	18 38                	sbb    BYTE PTR [eax],bh
  107354:	18 18                	sbb    BYTE PTR [eax],bl
  107356:	18 18                	sbb    BYTE PTR [eax],bl
  107358:	18 18                	sbb    BYTE PTR [eax],bl
  10735a:	7e 00                	jle    0x10735c
  10735c:	00 00                	add    BYTE PTR [eax],al
  10735e:	00 00                	add    BYTE PTR [eax],al
  107360:	00 00                	add    BYTE PTR [eax],al
  107362:	3c 66                	cmp    al,0x66
  107364:	06                   	push   es
  107365:	0c 18                	or     al,0x18
  107367:	30 60 66             	xor    BYTE PTR [eax+0x66],ah
  10736a:	7e 00                	jle    0x10736c
  10736c:	00 00                	add    BYTE PTR [eax],al
  10736e:	00 00                	add    BYTE PTR [eax],al
  107370:	00 00                	add    BYTE PTR [eax],al
  107372:	3c 66                	cmp    al,0x66
  107374:	06                   	push   es
  107375:	0c 18                	or     al,0x18
  107377:	0c 06                	or     al,0x6
  107379:	66 3c 00             	data16 cmp al,0x0
  10737c:	00 00                	add    BYTE PTR [eax],al
  10737e:	00 00                	add    BYTE PTR [eax],al
  107380:	00 00                	add    BYTE PTR [eax],al
  107382:	0c 1c                	or     al,0x1c
  107384:	3c 6c                	cmp    al,0x6c
  107386:	6c                   	ins    BYTE PTR es:[edi],dx
  107387:	7e 0c                	jle    0x107395
  107389:	0c 0c                	or     al,0xc
  10738b:	00 00                	add    BYTE PTR [eax],al
  10738d:	00 00                	add    BYTE PTR [eax],al
  10738f:	00 00                	add    BYTE PTR [eax],al
  107391:	00 7e 60             	add    BYTE PTR [esi+0x60],bh
  107394:	60                   	pusha
  107395:	7c 06                	jl     0x10739d
  107397:	06                   	push   es
  107398:	06                   	push   es
  107399:	66 3c 00             	data16 cmp al,0x0
  10739c:	00 00                	add    BYTE PTR [eax],al
  10739e:	00 00                	add    BYTE PTR [eax],al
  1073a0:	00 00                	add    BYTE PTR [eax],al
  1073a2:	3c 66                	cmp    al,0x66
  1073a4:	60                   	pusha
  1073a5:	60                   	pusha
  1073a6:	7c 66                	jl     0x10740e
  1073a8:	66 66 3c 00          	data16 data16 cmp al,0x0
  1073ac:	00 00                	add    BYTE PTR [eax],al
  1073ae:	00 00                	add    BYTE PTR [eax],al
  1073b0:	00 00                	add    BYTE PTR [eax],al
  1073b2:	7e 06                	jle    0x1073ba
  1073b4:	0c 0c                	or     al,0xc
  1073b6:	18 18                	sbb    BYTE PTR [eax],bl
  1073b8:	30 30                	xor    BYTE PTR [eax],dh
  1073ba:	30 00                	xor    BYTE PTR [eax],al
  1073bc:	00 00                	add    BYTE PTR [eax],al
  1073be:	00 00                	add    BYTE PTR [eax],al
  1073c0:	00 00                	add    BYTE PTR [eax],al
  1073c2:	3c 66                	cmp    al,0x66
  1073c4:	66 66 3c 66          	data16 data16 cmp al,0x66
  1073c8:	66 66 3c 00          	data16 data16 cmp al,0x0
  1073cc:	00 00                	add    BYTE PTR [eax],al
  1073ce:	00 00                	add    BYTE PTR [eax],al
  1073d0:	00 00                	add    BYTE PTR [eax],al
  1073d2:	3c 66                	cmp    al,0x66
  1073d4:	66 66 3e 06          	data16 ds pushw es
  1073d8:	06                   	push   es
  1073d9:	66 3c 00             	data16 cmp al,0x0
	...
  107450:	00 00                	add    BYTE PTR [eax],al
  107452:	18 3c 66             	sbb    BYTE PTR [esi+eiz*2],bh
  107455:	66 66 7e 66          	data16 data16 jle 0x1074bf
  107459:	66 66 00 00          	data16 data16 add BYTE PTR [eax],al
  10745d:	00 00                	add    BYTE PTR [eax],al
  10745f:	00 00                	add    BYTE PTR [eax],al
  107461:	00 7c 66 66          	add    BYTE PTR [esi+eiz*2+0x66],bh
  107465:	66 7c 66             	data16 jl 0x1074ce
  107468:	66 66 7c 00          	data16 data16 jl 0x10746c
  10746c:	00 00                	add    BYTE PTR [eax],al
  10746e:	00 00                	add    BYTE PTR [eax],al
  107470:	00 00                	add    BYTE PTR [eax],al
  107472:	3c 66                	cmp    al,0x66
  107474:	60                   	pusha
  107475:	60                   	pusha
  107476:	60                   	pusha
  107477:	60                   	pusha
  107478:	60                   	pusha
  107479:	66 3c 00             	data16 cmp al,0x0
  10747c:	00 00                	add    BYTE PTR [eax],al
  10747e:	00 00                	add    BYTE PTR [eax],al
  107480:	00 00                	add    BYTE PTR [eax],al
  107482:	78 6c                	js     0x1074f0
  107484:	66 66 66 66 66 6c    	data16 data16 data16 data16 data16 ins BYTE PTR es:[edi],dx
  10748a:	78 00                	js     0x10748c
  10748c:	00 00                	add    BYTE PTR [eax],al
  10748e:	00 00                	add    BYTE PTR [eax],al
  107490:	00 00                	add    BYTE PTR [eax],al
  107492:	7e 60                	jle    0x1074f4
  107494:	60                   	pusha
  107495:	60                   	pusha
  107496:	7c 60                	jl     0x1074f8
  107498:	60                   	pusha
  107499:	60                   	pusha
  10749a:	7e 00                	jle    0x10749c
  10749c:	00 00                	add    BYTE PTR [eax],al
  10749e:	00 00                	add    BYTE PTR [eax],al
  1074a0:	00 00                	add    BYTE PTR [eax],al
  1074a2:	7e 60                	jle    0x107504
  1074a4:	60                   	pusha
  1074a5:	60                   	pusha
  1074a6:	7c 60                	jl     0x107508
  1074a8:	60                   	pusha
  1074a9:	60                   	pusha
  1074aa:	60                   	pusha
  1074ab:	00 00                	add    BYTE PTR [eax],al
  1074ad:	00 00                	add    BYTE PTR [eax],al
  1074af:	00 00                	add    BYTE PTR [eax],al
  1074b1:	00 3c 66             	add    BYTE PTR [esi+eiz*2],bh
  1074b4:	60                   	pusha
  1074b5:	60                   	pusha
  1074b6:	6e                   	outs   dx,BYTE PTR ds:[esi]
  1074b7:	66 66 66 3c 00       	data16 data16 data16 cmp al,0x0
  1074bc:	00 00                	add    BYTE PTR [eax],al
  1074be:	00 00                	add    BYTE PTR [eax],al
  1074c0:	00 00                	add    BYTE PTR [eax],al
  1074c2:	66 66 66 66 7e 66    	data16 data16 data16 data16 jle 0x10752e
  1074c8:	66 66 66 00 00       	data16 data16 data16 add BYTE PTR [eax],al
  1074cd:	00 00                	add    BYTE PTR [eax],al
  1074cf:	00 00                	add    BYTE PTR [eax],al
  1074d1:	00 7e 18             	add    BYTE PTR [esi+0x18],bh
  1074d4:	18 18                	sbb    BYTE PTR [eax],bl
  1074d6:	18 18                	sbb    BYTE PTR [eax],bl
  1074d8:	18 18                	sbb    BYTE PTR [eax],bl
  1074da:	7e 00                	jle    0x1074dc
	...
  1074f0:	00 00                	add    BYTE PTR [eax],al
  1074f2:	66 6c                	data16 ins BYTE PTR es:[edi],dx
  1074f4:	78 70                	js     0x107566
  1074f6:	78 6c                	js     0x107564
  1074f8:	66 66 66 00 00       	data16 data16 data16 add BYTE PTR [eax],al
  1074fd:	00 00                	add    BYTE PTR [eax],al
  1074ff:	00 00                	add    BYTE PTR [eax],al
  107501:	00 60 60             	add    BYTE PTR [eax+0x60],ah
  107504:	60                   	pusha
  107505:	60                   	pusha
  107506:	60                   	pusha
  107507:	60                   	pusha
  107508:	60                   	pusha
  107509:	60                   	pusha
  10750a:	7e 00                	jle    0x10750c
  10750c:	00 00                	add    BYTE PTR [eax],al
  10750e:	00 00                	add    BYTE PTR [eax],al
  107510:	00 00                	add    BYTE PTR [eax],al
  107512:	63 77 7f             	arpl   WORD PTR [edi+0x7f],esi
  107515:	6b 63 63 63          	imul   esp,DWORD PTR [ebx+0x63],0x63
  107519:	63 63 00             	arpl   WORD PTR [ebx+0x0],esp
  10751c:	00 00                	add    BYTE PTR [eax],al
  10751e:	00 00                	add    BYTE PTR [eax],al
  107520:	00 00                	add    BYTE PTR [eax],al
  107522:	66 66 76 7e          	data16 data16 jbe 0x1075a4
  107526:	6e                   	outs   dx,BYTE PTR ds:[esi]
  107527:	66 66 66 66 00 00    	data16 data16 data16 data16 add BYTE PTR [eax],al
  10752d:	00 00                	add    BYTE PTR [eax],al
  10752f:	00 00                	add    BYTE PTR [eax],al
  107531:	00 3c 66             	add    BYTE PTR [esi+eiz*2],bh
  107534:	66 66 66 66 66 66 3c 	data16 data16 data16 data16 data16 data16 cmp al,0x0
  10753b:	00 
  10753c:	00 00                	add    BYTE PTR [eax],al
  10753e:	00 00                	add    BYTE PTR [eax],al
  107540:	00 00                	add    BYTE PTR [eax],al
  107542:	7c 66                	jl     0x1075aa
  107544:	66 66 7c 60          	data16 data16 jl 0x1075a8
  107548:	60                   	pusha
  107549:	60                   	pusha
  10754a:	60                   	pusha
  10754b:	00 00                	add    BYTE PTR [eax],al
  10754d:	00 00                	add    BYTE PTR [eax],al
  10754f:	00 00                	add    BYTE PTR [eax],al
  107551:	00 3c 66             	add    BYTE PTR [esi+eiz*2],bh
  107554:	66 66 66 66 66 3c 0e 	data16 data16 data16 data16 data16 cmp al,0xe
  10755b:	00 00                	add    BYTE PTR [eax],al
  10755d:	00 00                	add    BYTE PTR [eax],al
  10755f:	00 00                	add    BYTE PTR [eax],al
  107561:	00 7c 66 66          	add    BYTE PTR [esi+eiz*2+0x66],bh
  107565:	66 7c 6c             	data16 jl 0x1075d4
  107568:	66 66 66 00 00       	data16 data16 data16 add BYTE PTR [eax],al
  10756d:	00 00                	add    BYTE PTR [eax],al
  10756f:	00 00                	add    BYTE PTR [eax],al
  107571:	00 3c 66             	add    BYTE PTR [esi+eiz*2],bh
  107574:	60                   	pusha
  107575:	30 18                	xor    BYTE PTR [eax],bl
  107577:	0c 06                	or     al,0x6
  107579:	66 3c 00             	data16 cmp al,0x0
  10757c:	00 00                	add    BYTE PTR [eax],al
  10757e:	00 00                	add    BYTE PTR [eax],al
  107580:	00 00                	add    BYTE PTR [eax],al
  107582:	7e 18                	jle    0x10759c
  107584:	18 18                	sbb    BYTE PTR [eax],bl
  107586:	18 18                	sbb    BYTE PTR [eax],bl
  107588:	18 18                	sbb    BYTE PTR [eax],bl
  10758a:	18 00                	sbb    BYTE PTR [eax],al
  10758c:	00 00                	add    BYTE PTR [eax],al
  10758e:	00 00                	add    BYTE PTR [eax],al
  107590:	00 00                	add    BYTE PTR [eax],al
  107592:	66 66 66 66 66 66 66 	data16 data16 data16 data16 data16 data16 data16 data16 cmp al,0x0
  107599:	66 3c 00 
  10759c:	00 00                	add    BYTE PTR [eax],al
  10759e:	00 00                	add    BYTE PTR [eax],al
  1075a0:	00 00                	add    BYTE PTR [eax],al
  1075a2:	66 66 66 66 66 66 66 	data16 data16 data16 data16 data16 data16 data16 cmp al,0x18
  1075a9:	3c 18 
  1075ab:	00 00                	add    BYTE PTR [eax],al
  1075ad:	00 00                	add    BYTE PTR [eax],al
  1075af:	00 00                	add    BYTE PTR [eax],al
  1075b1:	00 63 63             	add    BYTE PTR [ebx+0x63],ah
  1075b4:	63 6b 6b             	arpl   WORD PTR [ebx+0x6b],ebp
  1075b7:	7f 77                	jg     0x107630
  1075b9:	63 63 00             	arpl   WORD PTR [ebx+0x0],esp
  1075bc:	00 00                	add    BYTE PTR [eax],al
  1075be:	00 00                	add    BYTE PTR [eax],al
  1075c0:	00 00                	add    BYTE PTR [eax],al
  1075c2:	66 66 3c 18          	data16 data16 cmp al,0x18
  1075c6:	18 3c 66             	sbb    BYTE PTR [esi+eiz*2],bh
  1075c9:	66 66 00 00          	data16 data16 add BYTE PTR [eax],al
  1075cd:	00 00                	add    BYTE PTR [eax],al
  1075cf:	00 00                	add    BYTE PTR [eax],al
  1075d1:	00 66 66             	add    BYTE PTR [esi+0x66],ah
  1075d4:	66 3c 18             	data16 cmp al,0x18
  1075d7:	18 18                	sbb    BYTE PTR [eax],bl
  1075d9:	18 18                	sbb    BYTE PTR [eax],bl
  1075db:	00 00                	add    BYTE PTR [eax],al
  1075dd:	00 00                	add    BYTE PTR [eax],al
  1075df:	00 00                	add    BYTE PTR [eax],al
  1075e1:	00 7e 06             	add    BYTE PTR [esi+0x6],bh
  1075e4:	0c 18                	or     al,0x18
  1075e6:	30 60 60             	xor    BYTE PTR [eax+0x60],ah
  1075e9:	60                   	pusha
  1075ea:	7e 00                	jle    0x1075ec
	...
  107654:	3c 06                	cmp    al,0x6
  107656:	3e 66 66 66 3e 00 00 	ds data16 data16 data16 add BYTE PTR ds:[eax],al
  10765d:	00 00                	add    BYTE PTR [eax],al
  10765f:	00 00                	add    BYTE PTR [eax],al
  107661:	00 60 60             	add    BYTE PTR [eax+0x60],ah
  107664:	7c 66                	jl     0x1076cc
  107666:	66 66 66 66 7c 00    	data16 data16 data16 data16 jl 0x10766c
	...
  107674:	3c 66                	cmp    al,0x66
  107676:	60                   	pusha
  107677:	60                   	pusha
  107678:	60                   	pusha
  107679:	66 3c 00             	data16 cmp al,0x0
  10767c:	00 00                	add    BYTE PTR [eax],al
  10767e:	00 00                	add    BYTE PTR [eax],al
  107680:	00 00                	add    BYTE PTR [eax],al
  107682:	06                   	push   es
  107683:	06                   	push   es
  107684:	3e 66 66 66 66 66 3e 	ds data16 data16 data16 data16 data16 add BYTE PTR ds:[eax],al
  10768b:	00 00 
  10768d:	00 00                	add    BYTE PTR [eax],al
  10768f:	00 00                	add    BYTE PTR [eax],al
  107691:	00 00                	add    BYTE PTR [eax],al
  107693:	00 3c 66             	add    BYTE PTR [esi+eiz*2],bh
  107696:	66 7e 60             	data16 jle 0x1076f9
  107699:	66 3c 00             	data16 cmp al,0x0
  10769c:	00 00                	add    BYTE PTR [eax],al
  10769e:	00 00                	add    BYTE PTR [eax],al
  1076a0:	00 00                	add    BYTE PTR [eax],al
  1076a2:	1e                   	push   ds
  1076a3:	30 30                	xor    BYTE PTR [eax],dh
  1076a5:	7c 30                	jl     0x1076d7
  1076a7:	30 30                	xor    BYTE PTR [eax],dh
  1076a9:	30 30                	xor    BYTE PTR [eax],dh
	...
  1076b3:	00 3e                	add    BYTE PTR [esi],bh
  1076b5:	66 66 66 66 3e 06    	data16 data16 data16 ds pushw es
  1076bb:	66 3c 00             	data16 cmp al,0x0
  1076be:	00 00                	add    BYTE PTR [eax],al
  1076c0:	00 00                	add    BYTE PTR [eax],al
  1076c2:	60                   	pusha
  1076c3:	60                   	pusha
  1076c4:	6c                   	ins    BYTE PTR es:[edi],dx
  1076c5:	76 66                	jbe    0x10772d
  1076c7:	66 66 66 66 00 00    	data16 data16 data16 data16 add BYTE PTR [eax],al
  1076cd:	00 00                	add    BYTE PTR [eax],al
  1076cf:	00 00                	add    BYTE PTR [eax],al
  1076d1:	00 18                	add    BYTE PTR [eax],bl
  1076d3:	00 38                	add    BYTE PTR [eax],bh
  1076d5:	18 18                	sbb    BYTE PTR [eax],bl
  1076d7:	18 18                	sbb    BYTE PTR [eax],bl
  1076d9:	18 3c 00             	sbb    BYTE PTR [eax+eax*1],bh
  1076dc:	00 00                	add    BYTE PTR [eax],al
  1076de:	00 00                	add    BYTE PTR [eax],al
  1076e0:	00 00                	add    BYTE PTR [eax],al
  1076e2:	0c 00                	or     al,0x0
  1076e4:	1c 0c                	sbb    al,0xc
  1076e6:	0c 0c                	or     al,0xc
  1076e8:	0c 0c                	or     al,0xc
  1076ea:	0c 6c                	or     al,0x6c
  1076ec:	38 00                	cmp    BYTE PTR [eax],al
  1076ee:	00 00                	add    BYTE PTR [eax],al
  1076f0:	00 00                	add    BYTE PTR [eax],al
  1076f2:	60                   	pusha
  1076f3:	60                   	pusha
  1076f4:	66 6c                	data16 ins BYTE PTR es:[edi],dx
  1076f6:	78 70                	js     0x107768
  1076f8:	78 6c                	js     0x107766
  1076fa:	66 00 00             	data16 add BYTE PTR [eax],al
  1076fd:	00 00                	add    BYTE PTR [eax],al
  1076ff:	00 00                	add    BYTE PTR [eax],al
  107701:	00 38                	add    BYTE PTR [eax],bh
  107703:	18 18                	sbb    BYTE PTR [eax],bl
  107705:	18 18                	sbb    BYTE PTR [eax],bl
  107707:	18 18                	sbb    BYTE PTR [eax],bl
  107709:	18 3c 00             	sbb    BYTE PTR [eax+eax*1],bh
	...
  107714:	6c                   	ins    BYTE PTR es:[edi],dx
  107715:	7e 6b                	jle    0x107782
  107717:	6b 6b 6b 6b          	imul   ebp,DWORD PTR [ebx+0x6b],0x6b
	...
  107723:	00 6c 76 66          	add    BYTE PTR [esi+esi*2+0x66],ch
  107727:	66 66 66 66 00 00    	data16 data16 data16 data16 add BYTE PTR [eax],al
  10772d:	00 00                	add    BYTE PTR [eax],al
  10772f:	00 00                	add    BYTE PTR [eax],al
  107731:	00 00                	add    BYTE PTR [eax],al
  107733:	00 3c 66             	add    BYTE PTR [esi+eiz*2],bh
  107736:	66 66 66 66 3c 00    	data16 data16 data16 data16 cmp al,0x0
	...
  107744:	7c 66                	jl     0x1077ac
  107746:	66 66 66 7c 60       	data16 data16 data16 jl 0x1077ab
  10774b:	60                   	pusha
  10774c:	60                   	pusha
  10774d:	00 00                	add    BYTE PTR [eax],al
  10774f:	00 00                	add    BYTE PTR [eax],al
  107751:	00 00                	add    BYTE PTR [eax],al
  107753:	00 3e                	add    BYTE PTR [esi],bh
  107755:	66 66 66 66 3e 06    	data16 data16 data16 ds pushw es
  10775b:	06                   	push   es
  10775c:	06                   	push   es
  10775d:	00 00                	add    BYTE PTR [eax],al
  10775f:	00 00                	add    BYTE PTR [eax],al
  107761:	00 00                	add    BYTE PTR [eax],al
  107763:	00 6c 76 60          	add    BYTE PTR [esi+esi*2+0x60],ch
  107767:	60                   	pusha
  107768:	60                   	pusha
  107769:	60                   	pusha
  10776a:	60                   	pusha
	...
  107773:	00 3c 60             	add    BYTE PTR [eax+eiz*2],bh
  107776:	3c 06                	cmp    al,0x6
  107778:	06                   	push   es
  107779:	66 3c 00             	data16 cmp al,0x0
  10777c:	00 00                	add    BYTE PTR [eax],al
  10777e:	00 00                	add    BYTE PTR [eax],al
  107780:	00 00                	add    BYTE PTR [eax],al
  107782:	30 30                	xor    BYTE PTR [eax],dh
  107784:	7c 30                	jl     0x1077b6
  107786:	30 30                	xor    BYTE PTR [eax],dh
  107788:	30 30                	xor    BYTE PTR [eax],dh
  10778a:	1e                   	push   ds
	...
  107793:	00 66 66             	add    BYTE PTR [esi+0x66],ah
  107796:	66 66 66 66 3e 00 00 	data16 data16 data16 data16 add BYTE PTR ds:[eax],al
  10779d:	00 00                	add    BYTE PTR [eax],al
  10779f:	00 00                	add    BYTE PTR [eax],al
  1077a1:	00 00                	add    BYTE PTR [eax],al
  1077a3:	00 66 66             	add    BYTE PTR [esi+0x66],ah
  1077a6:	66 66 66 3c 18       	data16 data16 data16 cmp al,0x18
	...
  1077b3:	00 63 63             	add    BYTE PTR [ebx+0x63],ah
  1077b6:	6b 6b 6b 7e          	imul   ebp,DWORD PTR [ebx+0x6b],0x7e
  1077ba:	36 00 00             	add    BYTE PTR ss:[eax],al
  1077bd:	00 00                	add    BYTE PTR [eax],al
  1077bf:	00 00                	add    BYTE PTR [eax],al
  1077c1:	00 00                	add    BYTE PTR [eax],al
  1077c3:	00 66 66             	add    BYTE PTR [esi+0x66],ah
  1077c6:	3c 18                	cmp    al,0x18
  1077c8:	3c 66                	cmp    al,0x66
  1077ca:	66 00 00             	data16 add BYTE PTR [eax],al
  1077cd:	00 00                	add    BYTE PTR [eax],al
  1077cf:	00 00                	add    BYTE PTR [eax],al
  1077d1:	00 00                	add    BYTE PTR [eax],al
  1077d3:	00 66 66             	add    BYTE PTR [esi+0x66],ah
  1077d6:	66 66 66 3e 06       	data16 data16 ds pushw es
  1077db:	66 3c 00             	data16 cmp al,0x0
  1077de:	00 00                	add    BYTE PTR [eax],al
  1077e0:	00 00                	add    BYTE PTR [eax],al
  1077e2:	00 00                	add    BYTE PTR [eax],al
  1077e4:	7e 06                	jle    0x1077ec
  1077e6:	0c 18                	or     al,0x18
  1077e8:	30 60 7e             	xor    BYTE PTR [eax+0x7e],ah
	...
  10783f:	00 5b 4d             	add    BYTE PTR [ebx+0x4d],bl
  107842:	4f                   	dec    edi
  107843:	55                   	push   ebp
  107844:	53                   	push   ebx
  107845:	45                   	inc    ebp
  107846:	5f                   	pop    edi
  107847:	49                   	dec    ecx
  107848:	4e                   	dec    esi
  107849:	49                   	dec    ecx
  10784a:	54                   	push   esp
  10784b:	5d                   	pop    ebp
  10784c:	20 45 6e             	and    BYTE PTR [ebp+0x6e],al
  10784f:	61                   	popa
  107850:	62 6c 65 20          	bound  ebp,QWORD PTR [ebp+eiz*2+0x20]
  107854:	72 65                	jb     0x1078bb
  107856:	70 6f                	jo     0x1078c7
  107858:	72 74                	jb     0x1078ce
  10785a:	69 6e 67 20 41 43 4b 	imul   ebp,DWORD PTR [esi+0x67],0x4b434120
  107861:	3a 20                	cmp    ah,BYTE PTR [eax]
  107863:	00 0a                	add    BYTE PTR [edx],cl
  107865:	00 4d 4f             	add    BYTE PTR [ebp+0x4f],cl
  107868:	55                   	push   ebp
  107869:	53                   	push   ebx
  10786a:	45                   	inc    ebp
  10786b:	5f                   	pop    edi
  10786c:	49                   	dec    ecx
  10786d:	52                   	push   edx
  10786e:	51                   	push   ecx
  10786f:	31 32                	xor    DWORD PTR [edx],esi
  107871:	5f                   	pop    edi
  107872:	4e                   	dec    esi
  107873:	4f                   	dec    edi
  107874:	5f                   	pop    edi
  107875:	44                   	inc    esp
  107876:	41                   	inc    ecx
  107877:	54                   	push   esp
  107878:	41                   	inc    ecx
  107879:	21 0a                	and    DWORD PTR [edx],ecx
  10787b:	00 4d 4f             	add    BYTE PTR [ebp+0x4f],cl
  10787e:	55                   	push   ebp
  10787f:	53                   	push   ebx
  107880:	45                   	inc    ebp
  107881:	5f                   	pop    edi
  107882:	49                   	dec    ecx
  107883:	52                   	push   edx
  107884:	51                   	push   ecx
  107885:	31 32                	xor    DWORD PTR [edx],esi
  107887:	5f                   	pop    edi
  107888:	4b                   	dec    ebx
  107889:	42                   	inc    edx
  10788a:	44                   	inc    esp
  10788b:	5f                   	pop    edi
  10788c:	44                   	inc    esp
  10788d:	41                   	inc    ecx
  10788e:	54                   	push   esp
  10788f:	41                   	inc    ecx
  107890:	21 0a                	and    DWORD PTR [edx],ecx
  107892:	00 48 41             	add    BYTE PTR [eax+0x41],cl
  107895:	4e                   	dec    esi
  107896:	44                   	inc    esp
  107897:	4c                   	dec    esp
  107898:	45                   	inc    ebp
  107899:	52                   	push   edx
  10789a:	5f                   	pop    edi
  10789b:	55                   	push   ebp
  10789c:	50                   	push   eax
  10789d:	44                   	inc    esp
  10789e:	41                   	inc    ecx
  10789f:	54                   	push   esp
  1078a0:	45                   	inc    ebp
  1078a1:	3a 20                	cmp    ah,BYTE PTR [eax]
  1078a3:	64 78 3d             	fs js  0x1078e3
  1078a6:	00 20                	add    BYTE PTR [eax],ah
  1078a8:	64 79 3d             	fs jns 0x1078e8
  1078ab:	00 20                	add    BYTE PTR [eax],ah
  1078ad:	2d 3e 20 6d 6f       	sub    eax,0x6f6d203e
  1078b2:	75 73                	jne    0x107927
  1078b4:	65 5f                	gs pop edi
  1078b6:	78 3d                	js     0x1078f5
  1078b8:	00 20                	add    BYTE PTR [eax],ah
  1078ba:	6d                   	ins    DWORD PTR es:[edi],dx
  1078bb:	6f                   	outs   dx,DWORD PTR ds:[esi]
  1078bc:	75 73                	jne    0x107931
  1078be:	65 5f                	gs pop edi
  1078c0:	79 3d                	jns    0x1078ff
  1078c2:	00 0a                	add    BYTE PTR [edx],cl
  1078c4:	5b                   	pop    ebx
  1078c5:	38 30                	cmp    BYTE PTR [eax],dh
  1078c7:	34 32                	xor    al,0x32
  1078c9:	5f                   	pop    edi
  1078ca:	43                   	inc    ebx
  1078cb:	4d                   	dec    ebp
  1078cc:	44                   	inc    esp
  1078cd:	5f                   	pop    edi
  1078ce:	42                   	inc    edx
  1078cf:	59                   	pop    ecx
  1078d0:	54                   	push   esp
  1078d1:	45                   	inc    ebp
  1078d2:	5d                   	pop    ebp
  1078d3:	20 52 65             	and    BYTE PTR [edx+0x65],dl
  1078d6:	61                   	popa
  1078d7:	64 3a 20             	cmp    ah,BYTE PTR fs:[eax]
  1078da:	30 78 00             	xor    BYTE PTR [eax+0x0],bh
  1078dd:	20 28                	and    BYTE PTR [eax],ch
  1078df:	62 69 74             	bound  ebp,QWORD PTR [ecx+0x74]
  1078e2:	35 3d 00 29 0a       	xor    eax,0xa29003d
  1078e7:	00 5b 38             	add    BYTE PTR [ebx+0x38],bl
  1078ea:	30 34 32             	xor    BYTE PTR [edx+esi*1],dh
  1078ed:	5f                   	pop    edi
  1078ee:	43                   	inc    ebx
  1078ef:	4d                   	dec    ebp
  1078f0:	44                   	inc    esp
  1078f1:	5f                   	pop    edi
  1078f2:	42                   	inc    edx
  1078f3:	59                   	pop    ecx
  1078f4:	54                   	push   esp
  1078f5:	45                   	inc    ebp
  1078f6:	5d                   	pop    ebp
  1078f7:	20 57 72             	and    BYTE PTR [edi+0x72],dl
  1078fa:	69 74 65 3a 20 30 78 	imul   esi,DWORD PTR [ebp+eiz*2+0x3a],0x783020
  107901:	00 
  107902:	00 00                	add    BYTE PTR [eax],al
  107904:	55                   	push   ebp
  107905:	53                   	push   ebx
  107906:	42                   	inc    edx
  107907:	3a 20                	cmp    ah,BYTE PTR [eax]
  107909:	46                   	inc    esi
  10790a:	6f                   	outs   dx,DWORD PTR ds:[esi]
  10790b:	75 6e                	jne    0x10797b
  10790d:	64 20 55 48          	and    BYTE PTR fs:[ebp+0x48],dl
  107911:	43                   	inc    ebx
  107912:	49                   	dec    ecx
  107913:	20 63 6f             	and    BYTE PTR [ebx+0x6f],ah
  107916:	6e                   	outs   dx,BYTE PTR ds:[esi]
  107917:	74 72                	je     0x10798b
  107919:	6f                   	outs   dx,DWORD PTR ds:[esi]
  10791a:	6c                   	ins    BYTE PTR es:[edi],dx
  10791b:	6c                   	ins    BYTE PTR es:[edi],dx
  10791c:	65 72 0a             	gs jb  0x107929
  10791f:	00 55 53             	add    BYTE PTR [ebp+0x53],dl
  107922:	42                   	inc    edx
  107923:	3a 20                	cmp    ah,BYTE PTR [eax]
  107925:	44                   	inc    esp
  107926:	65 76 69             	gs jbe 0x107992
  107929:	63 65 20             	arpl   WORD PTR [ebp+0x20],esp
  10792c:	64 65 74 65          	fs gs je 0x107995
  107930:	63 74 65 64          	arpl   WORD PTR [ebp+eiz*2+0x64],esi
  107934:	20 6f 6e             	and    BYTE PTR [edi+0x6e],ch
  107937:	20 70 6f             	and    BYTE PTR [eax+0x6f],dh
  10793a:	72 74                	jb     0x1079b0
  10793c:	20 31                	and    BYTE PTR [ecx],dh
  10793e:	0a 00                	or     al,BYTE PTR [eax]
  107940:	55                   	push   ebp
  107941:	53                   	push   ebx
  107942:	42                   	inc    edx
  107943:	3a 20                	cmp    ah,BYTE PTR [eax]
  107945:	44                   	inc    esp
  107946:	65 76 69             	gs jbe 0x1079b2
  107949:	63 65 20             	arpl   WORD PTR [ebp+0x20],esp
  10794c:	64 65 74 65          	fs gs je 0x1079b5
  107950:	63 74 65 64          	arpl   WORD PTR [ebp+eiz*2+0x64],esi
  107954:	20 6f 6e             	and    BYTE PTR [edi+0x6e],ch
  107957:	20 70 6f             	and    BYTE PTR [eax+0x6f],dh
  10795a:	72 74                	jb     0x1079d0
  10795c:	20 32                	and    BYTE PTR [edx],dh
  10795e:	0a 00                	or     al,BYTE PTR [eax]
  107960:	55                   	push   ebp
  107961:	53                   	push   ebx
  107962:	42                   	inc    edx
  107963:	3a 20                	cmp    ah,BYTE PTR [eax]
  107965:	49                   	dec    ecx
  107966:	6e                   	outs   dx,BYTE PTR ds:[esi]
  107967:	69 74 69 61 6c 69 7a 	imul   esi,DWORD PTR [ecx+ebp*2+0x61],0x697a696c
  10796e:	69 
  10796f:	6e                   	outs   dx,BYTE PTR ds:[esi]
  107970:	67 2e 2e 2e 0a 00    	cs cs or al,BYTE PTR cs:[bx+si]
  107976:	00 00                	add    BYTE PTR [eax],al
  107978:	55                   	push   ebp
  107979:	53                   	push   ebx
  10797a:	42                   	inc    edx
  10797b:	3a 20                	cmp    ah,BYTE PTR [eax]
  10797d:	4e                   	dec    esi
  10797e:	6f                   	outs   dx,DWORD PTR ds:[esi]
  10797f:	20 55 48             	and    BYTE PTR [ebp+0x48],dl
  107982:	43                   	inc    ebx
  107983:	49                   	dec    ecx
  107984:	20 63 6f             	and    BYTE PTR [ebx+0x6f],ah
  107987:	6e                   	outs   dx,BYTE PTR ds:[esi]
  107988:	74 72                	je     0x1079fc
  10798a:	6f                   	outs   dx,DWORD PTR ds:[esi]
  10798b:	6c                   	ins    BYTE PTR es:[edi],dx
  10798c:	6c                   	ins    BYTE PTR es:[edi],dx
  10798d:	65 72 20             	gs jb  0x1079b0
  107990:	66 6f                	outs   dx,WORD PTR ds:[esi]
  107992:	75 6e                	jne    0x107a02
  107994:	64 0a 00             	or     al,BYTE PTR fs:[eax]
  107997:	00 55 53             	add    BYTE PTR [ebp+0x53],dl
  10799a:	42                   	inc    edx
  10799b:	3a 20                	cmp    ah,BYTE PTR [eax]
  10799d:	44                   	inc    esp
  10799e:	65 76 69             	gs jbe 0x107a0a
  1079a1:	63 65 20             	arpl   WORD PTR [ebp+0x20],esp
  1079a4:	65 6e                	outs   dx,BYTE PTR gs:[esi]
  1079a6:	75 6d                	jne    0x107a15
  1079a8:	65 72 61             	gs jb  0x107a0c
  1079ab:	74 69                	je     0x107a16
  1079ad:	6f                   	outs   dx,DWORD PTR ds:[esi]
  1079ae:	6e                   	outs   dx,BYTE PTR ds:[esi]
  1079af:	20 6e 6f             	and    BYTE PTR [esi+0x6f],ch
  1079b2:	74 20                	je     0x1079d4
  1079b4:	79 65                	jns    0x107a1b
  1079b6:	74 20                	je     0x1079d8
  1079b8:	69 6d 70 6c 65 6d 65 	imul   ebp,DWORD PTR [ebp+0x70],0x656d656c
  1079bf:	6e                   	outs   dx,BYTE PTR ds:[esi]
  1079c0:	74 65                	je     0x107a27
  1079c2:	64 0a 00             	or     al,BYTE PTR fs:[eax]
  1079c5:	00 00                	add    BYTE PTR [eax],al
  1079c7:	00 55 53             	add    BYTE PTR [ebp+0x53],dl
  1079ca:	42                   	inc    edx
  1079cb:	3a 20                	cmp    ah,BYTE PTR [eax]
  1079cd:	41                   	inc    ecx
  1079ce:	73 73                	jae    0x107a43
  1079d0:	75 6d                	jne    0x107a3f
  1079d2:	69 6e 67 20 74 61 62 	imul   ebp,DWORD PTR [esi+0x67],0x62617420
  1079d9:	6c                   	ins    BYTE PTR es:[edi],dx
  1079da:	65 74 20             	gs je  0x1079fd
  1079dd:	64 65 76 69          	fs gs jbe 0x107a4a
  1079e1:	63 65 20             	arpl   WORD PTR [ebp+0x20],esp
  1079e4:	69 73 20 70 72 65 73 	imul   esi,DWORD PTR [ebx+0x20],0x73657270
  1079eb:	65 6e                	outs   dx,BYTE PTR gs:[esi]
  1079ed:	74 0a                	je     0x1079f9
  1079ef:	00 44 69 76          	add    BYTE PTR [ecx+ebp*2+0x76],al
  1079f3:	69 64 65 20 62 79 20 	imul   esp,DWORD PTR [ebp+eiz*2+0x20],0x5a207962
  1079fa:	5a 
  1079fb:	65 72 6f             	gs jb  0x107a6d
  1079fe:	00 44 65 62          	add    BYTE PTR [ebp+eiz*2+0x62],al
  107a02:	75 67                	jne    0x107a6b
  107a04:	20 45 78             	and    BYTE PTR [ebp+0x78],al
  107a07:	63 65 70             	arpl   WORD PTR [ebp+0x70],esp
  107a0a:	74 69                	je     0x107a75
  107a0c:	6f                   	outs   dx,DWORD PTR ds:[esi]
  107a0d:	6e                   	outs   dx,BYTE PTR ds:[esi]
  107a0e:	00 4e 6f             	add    BYTE PTR [esi+0x6f],cl
  107a11:	6e                   	outs   dx,BYTE PTR ds:[esi]
  107a12:	2d 4d 61 73 6b       	sub    eax,0x6b73614d
  107a17:	61                   	popa
  107a18:	62 6c 65 20          	bound  ebp,QWORD PTR [ebp+eiz*2+0x20]
  107a1c:	49                   	dec    ecx
  107a1d:	6e                   	outs   dx,BYTE PTR ds:[esi]
  107a1e:	74 65                	je     0x107a85
  107a20:	72 72                	jb     0x107a94
  107a22:	75 70                	jne    0x107a94
  107a24:	74 00                	je     0x107a26
  107a26:	42                   	inc    edx
  107a27:	72 65                	jb     0x107a8e
  107a29:	61                   	popa
  107a2a:	6b 70 6f 69          	imul   esi,DWORD PTR [eax+0x6f],0x69
  107a2e:	6e                   	outs   dx,BYTE PTR ds:[esi]
  107a2f:	74 00                	je     0x107a31
  107a31:	4f                   	dec    edi
  107a32:	76 65                	jbe    0x107a99
  107a34:	72 66                	jb     0x107a9c
  107a36:	6c                   	ins    BYTE PTR es:[edi],dx
  107a37:	6f                   	outs   dx,DWORD PTR ds:[esi]
  107a38:	77 00                	ja     0x107a3a
  107a3a:	42                   	inc    edx
  107a3b:	6f                   	outs   dx,DWORD PTR ds:[esi]
  107a3c:	75 6e                	jne    0x107aac
  107a3e:	64 20 52 61          	and    BYTE PTR fs:[edx+0x61],dl
  107a42:	6e                   	outs   dx,BYTE PTR ds:[esi]
  107a43:	67 65 20 45 78       	and    BYTE PTR gs:[di+0x78],al
  107a48:	63 65 65             	arpl   WORD PTR [ebp+0x65],esp
  107a4b:	64 65 64 00 49 6e    	fs gs add BYTE PTR fs:[ecx+0x6e],cl
  107a51:	76 61                	jbe    0x107ab4
  107a53:	6c                   	ins    BYTE PTR es:[edi],dx
  107a54:	69 64 20 4f 70 63 6f 	imul   esp,DWORD PTR [eax+eiz*1+0x4f],0x646f6370
  107a5b:	64 
  107a5c:	65 00 44 65 76       	add    BYTE PTR gs:[ebp+eiz*2+0x76],al
  107a61:	69 63 65 20 4e 6f 74 	imul   esp,DWORD PTR [ebx+0x65],0x746f4e20
  107a68:	20 41 76             	and    BYTE PTR [ecx+0x76],al
  107a6b:	61                   	popa
  107a6c:	69 6c 61 62 6c 65 00 	imul   ebp,DWORD PTR [ecx+eiz*2+0x62],0x4400656c
  107a73:	44 
  107a74:	6f                   	outs   dx,DWORD PTR ds:[esi]
  107a75:	75 62                	jne    0x107ad9
  107a77:	6c                   	ins    BYTE PTR es:[edi],dx
  107a78:	65 20 46 61          	and    BYTE PTR gs:[esi+0x61],al
  107a7c:	75 6c                	jne    0x107aea
  107a7e:	74 00                	je     0x107a80
  107a80:	43                   	inc    ebx
  107a81:	6f                   	outs   dx,DWORD PTR ds:[esi]
  107a82:	70 72                	jo     0x107af6
  107a84:	6f                   	outs   dx,DWORD PTR ds:[esi]
  107a85:	63 65 73             	arpl   WORD PTR [ebp+0x73],esp
  107a88:	73 6f                	jae    0x107af9
  107a8a:	72 20                	jb     0x107aac
  107a8c:	53                   	push   ebx
  107a8d:	65 67 6d             	gs ins DWORD PTR es:[di],dx
  107a90:	65 6e                	outs   dx,BYTE PTR gs:[esi]
  107a92:	74 20                	je     0x107ab4
  107a94:	4f                   	dec    edi
  107a95:	76 65                	jbe    0x107afc
  107a97:	72 72                	jb     0x107b0b
  107a99:	75 6e                	jne    0x107b09
  107a9b:	00 49 6e             	add    BYTE PTR [ecx+0x6e],cl
  107a9e:	76 61                	jbe    0x107b01
  107aa0:	6c                   	ins    BYTE PTR es:[edi],dx
  107aa1:	69 64 20 54 53 53 00 	imul   esp,DWORD PTR [eax+eiz*1+0x54],0x53005353
  107aa8:	53 
  107aa9:	65 67 6d             	gs ins DWORD PTR es:[di],dx
  107aac:	65 6e                	outs   dx,BYTE PTR gs:[esi]
  107aae:	74 20                	je     0x107ad0
  107ab0:	4e                   	dec    esi
  107ab1:	6f                   	outs   dx,DWORD PTR ds:[esi]
  107ab2:	74 20                	je     0x107ad4
  107ab4:	50                   	push   eax
  107ab5:	72 65                	jb     0x107b1c
  107ab7:	73 65                	jae    0x107b1e
  107ab9:	6e                   	outs   dx,BYTE PTR ds:[esi]
  107aba:	74 00                	je     0x107abc
  107abc:	53                   	push   ebx
  107abd:	74 61                	je     0x107b20
  107abf:	63 6b 2d             	arpl   WORD PTR [ebx+0x2d],ebp
  107ac2:	53                   	push   ebx
  107ac3:	65 67 6d             	gs ins DWORD PTR es:[di],dx
  107ac6:	65 6e                	outs   dx,BYTE PTR gs:[esi]
  107ac8:	74 20                	je     0x107aea
  107aca:	46                   	inc    esi
  107acb:	61                   	popa
  107acc:	75 6c                	jne    0x107b3a
  107ace:	74 00                	je     0x107ad0
  107ad0:	47                   	inc    edi
  107ad1:	65 6e                	outs   dx,BYTE PTR gs:[esi]
  107ad3:	65 72 61             	gs jb  0x107b37
  107ad6:	6c                   	ins    BYTE PTR es:[edi],dx
  107ad7:	20 50 72             	and    BYTE PTR [eax+0x72],dl
  107ada:	6f                   	outs   dx,DWORD PTR ds:[esi]
  107adb:	74 65                	je     0x107b42
  107add:	63 74 69 6f          	arpl   WORD PTR [ecx+ebp*2+0x6f],esi
  107ae1:	6e                   	outs   dx,BYTE PTR ds:[esi]
  107ae2:	20 46 61             	and    BYTE PTR [esi+0x61],al
  107ae5:	75 6c                	jne    0x107b53
  107ae7:	74 00                	je     0x107ae9
  107ae9:	50                   	push   eax
  107aea:	61                   	popa
  107aeb:	67 65 20 46 61       	and    BYTE PTR gs:[bp+0x61],al
  107af0:	75 6c                	jne    0x107b5e
  107af2:	74 00                	je     0x107af4
  107af4:	78 38                	js     0x107b2e
  107af6:	37                   	aaa
  107af7:	20 46 50             	and    BYTE PTR [esi+0x50],al
  107afa:	55                   	push   ebp
  107afb:	20 45 72             	and    BYTE PTR [ebp+0x72],al
  107afe:	72 6f                	jb     0x107b6f
  107b00:	72 00                	jb     0x107b02
  107b02:	41                   	inc    ecx
  107b03:	6c                   	ins    BYTE PTR es:[edi],dx
  107b04:	69 67 6e 6d 65 6e 74 	imul   esp,DWORD PTR [edi+0x6e],0x746e656d
  107b0b:	20 43 68             	and    BYTE PTR [ebx+0x68],al
  107b0e:	65 63 6b 00          	arpl   WORD PTR gs:[ebx+0x0],ebp
  107b12:	4d                   	dec    ebp
  107b13:	61                   	popa
  107b14:	63 68 69             	arpl   WORD PTR [eax+0x69],ebp
  107b17:	6e                   	outs   dx,BYTE PTR ds:[esi]
  107b18:	65 20 43 68          	and    BYTE PTR gs:[ebx+0x68],al
  107b1c:	65 63 6b 00          	arpl   WORD PTR gs:[ebx+0x0],ebp
  107b20:	53                   	push   ebx
  107b21:	49                   	dec    ecx
  107b22:	4d                   	dec    ebp
  107b23:	44                   	inc    esp
  107b24:	20 46 6c             	and    BYTE PTR [esi+0x6c],al
  107b27:	6f                   	outs   dx,DWORD PTR ds:[esi]
  107b28:	61                   	popa
  107b29:	74 69                	je     0x107b94
  107b2b:	6e                   	outs   dx,BYTE PTR ds:[esi]
  107b2c:	67 2d 50 6f 69 6e    	addr16 sub eax,0x6e696f50
  107b32:	74 20                	je     0x107b54
  107b34:	45                   	inc    ebp
  107b35:	78 63                	js     0x107b9a
  107b37:	65 70 74             	gs jo  0x107bae
  107b3a:	69 6f 6e 00 56 69 72 	imul   ebp,DWORD PTR [edi+0x6e],0x72695600
  107b41:	74 75                	je     0x107bb8
  107b43:	61                   	popa
  107b44:	6c                   	ins    BYTE PTR es:[edi],dx
  107b45:	69 7a 61 74 69 6f 6e 	imul   edi,DWORD PTR [edx+0x61],0x6e6f6974
  107b4c:	20 45 78             	and    BYTE PTR [ebp+0x78],al
  107b4f:	63 65 70             	arpl   WORD PTR [ebp+0x70],esp
  107b52:	74 69                	je     0x107bbd
  107b54:	6f                   	outs   dx,DWORD PTR ds:[esi]
  107b55:	6e                   	outs   dx,BYTE PTR ds:[esi]
  107b56:	00 53 65             	add    BYTE PTR [ebx+0x65],dl
  107b59:	63 75 72             	arpl   WORD PTR [ebp+0x72],esi
  107b5c:	69 74 79 20 45 78 63 	imul   esi,DWORD PTR [ecx+edi*2+0x20],0x65637845
  107b63:	65 
  107b64:	70 74                	jo     0x107bda
  107b66:	69 6f 6e 00 55 6e 6b 	imul   ebp,DWORD PTR [edi+0x6e],0x6b6e5500
  107b6d:	6e                   	outs   dx,BYTE PTR ds:[esi]
  107b6e:	6f                   	outs   dx,DWORD PTR ds:[esi]
  107b6f:	77 6e                	ja     0x107bdf
  107b71:	20 45 78             	and    BYTE PTR [ebp+0x78],al
  107b74:	63 65 70             	arpl   WORD PTR [ebp+0x70],esp
  107b77:	74 69                	je     0x107be2
  107b79:	6f                   	outs   dx,DWORD PTR ds:[esi]
  107b7a:	6e                   	outs   dx,BYTE PTR ds:[esi]
  107b7b:	00 14 37             	add    BYTE PTR [edi+esi*1],dl
  107b7e:	10 00                	adc    BYTE PTR [eax],al
  107b80:	1e                   	push   ds
  107b81:	37                   	aaa
  107b82:	10 00                	adc    BYTE PTR [eax],al
  107b84:	28 37                	sub    BYTE PTR [edi],dh
  107b86:	10 00                	adc    BYTE PTR [eax],al
  107b88:	32 37                	xor    dh,BYTE PTR [edi]
  107b8a:	10 00                	adc    BYTE PTR [eax],al
  107b8c:	39 37                	cmp    DWORD PTR [edi],esi
  107b8e:	10 00                	adc    BYTE PTR [eax],al
  107b90:	40                   	inc    eax
  107b91:	37                   	aaa
  107b92:	10 00                	adc    BYTE PTR [eax],al
  107b94:	47                   	inc    edi
  107b95:	37                   	aaa
  107b96:	10 00                	adc    BYTE PTR [eax],al
  107b98:	4e                   	dec    esi
  107b99:	37                   	aaa
  107b9a:	10 00                	adc    BYTE PTR [eax],al
  107b9c:	55                   	push   ebp
  107b9d:	37                   	aaa
  107b9e:	10 00                	adc    BYTE PTR [eax],al
  107ba0:	5c                   	pop    esp
  107ba1:	37                   	aaa
  107ba2:	10 00                	adc    BYTE PTR [eax],al
  107ba4:	63 37                	arpl   WORD PTR [edi],esi
  107ba6:	10 00                	adc    BYTE PTR [eax],al
  107ba8:	6a 37                	push   0x37
  107baa:	10 00                	adc    BYTE PTR [eax],al
  107bac:	71 37                	jno    0x107be5
  107bae:	10 00                	adc    BYTE PTR [eax],al
  107bb0:	78 37                	js     0x107be9
  107bb2:	10 00                	adc    BYTE PTR [eax],al
  107bb4:	7f 37                	jg     0x107bed
  107bb6:	10 00                	adc    BYTE PTR [eax],al
  107bb8:	b0 37                	mov    al,0x37
  107bba:	10 00                	adc    BYTE PTR [eax],al
  107bbc:	86 37                	xchg   BYTE PTR [edi],dh
  107bbe:	10 00                	adc    BYTE PTR [eax],al
  107bc0:	8d 37                	lea    esi,[edi]
  107bc2:	10 00                	adc    BYTE PTR [eax],al
  107bc4:	94                   	xchg   esp,eax
  107bc5:	37                   	aaa
  107bc6:	10 00                	adc    BYTE PTR [eax],al
  107bc8:	9b                   	fwait
  107bc9:	37                   	aaa
  107bca:	10 00                	adc    BYTE PTR [eax],al
  107bcc:	a2 37 10 00 b0       	mov    ds:0xb0001037,al
  107bd1:	37                   	aaa
  107bd2:	10 00                	adc    BYTE PTR [eax],al
  107bd4:	b0 37                	mov    al,0x37
  107bd6:	10 00                	adc    BYTE PTR [eax],al
  107bd8:	b0 37                	mov    al,0x37
  107bda:	10 00                	adc    BYTE PTR [eax],al
  107bdc:	b0 37                	mov    al,0x37
  107bde:	10 00                	adc    BYTE PTR [eax],al
  107be0:	b0 37                	mov    al,0x37
  107be2:	10 00                	adc    BYTE PTR [eax],al
  107be4:	b0 37                	mov    al,0x37
  107be6:	10 00                	adc    BYTE PTR [eax],al
  107be8:	b0 37                	mov    al,0x37
  107bea:	10 00                	adc    BYTE PTR [eax],al
  107bec:	b0 37                	mov    al,0x37
  107bee:	10 00                	adc    BYTE PTR [eax],al
  107bf0:	b0 37                	mov    al,0x37
  107bf2:	10 00                	adc    BYTE PTR [eax],al
  107bf4:	a9 37 10 00 41       	test   eax,0x41001037
  107bf9:	74 74                	je     0x107c6f
  107bfb:	65 6d                	gs ins DWORD PTR es:[edi],dx
  107bfd:	70 74                	jo     0x107c73
  107bff:	20 74 6f 20          	and    BYTE PTR [edi+ebp*2+0x20],dh
  107c03:	64 69 76 69 64 65 20 	imul   esi,DWORD PTR fs:[esi+0x69],0x62206564
  107c0a:	62 
  107c0b:	79 20                	jns    0x107c2d
  107c0d:	7a 65                	jp     0x107c74
  107c0f:	72 6f                	jb     0x107c80
  107c11:	00 00                	add    BYTE PTR [eax],al
  107c13:	00 43 50             	add    BYTE PTR [ebx+0x50],al
  107c16:	55                   	push   ebp
  107c17:	20 65 6e             	and    BYTE PTR [ebp+0x6e],ah
  107c1a:	63 6f 75             	arpl   WORD PTR [edi+0x75],ebp
  107c1d:	6e                   	outs   dx,BYTE PTR ds:[esi]
  107c1e:	74 65                	je     0x107c85
  107c20:	72 65                	jb     0x107c87
  107c22:	64 20 69 6e          	and    BYTE PTR fs:[ecx+0x6e],ch
  107c26:	76 61                	jbe    0x107c89
  107c28:	6c                   	ins    BYTE PTR es:[edi],dx
  107c29:	69 64 20 69 6e 73 74 	imul   esp,DWORD PTR [eax+eiz*1+0x69],0x7274736e
  107c30:	72 
  107c31:	75 63                	jne    0x107c96
  107c33:	74 69                	je     0x107c9e
  107c35:	6f                   	outs   dx,DWORD PTR ds:[esi]
  107c36:	6e                   	outs   dx,BYTE PTR ds:[esi]
  107c37:	00 53 65             	add    BYTE PTR [ebx+0x65],dl
  107c3a:	67 6d                	ins    DWORD PTR es:[di],dx
  107c3c:	65 6e                	outs   dx,BYTE PTR gs:[esi]
  107c3e:	74 20                	je     0x107c60
  107c40:	76 69                	jbe    0x107cab
  107c42:	6f                   	outs   dx,DWORD PTR ds:[esi]
  107c43:	6c                   	ins    BYTE PTR es:[edi],dx
  107c44:	61                   	popa
  107c45:	74 69                	je     0x107cb0
  107c47:	6f                   	outs   dx,DWORD PTR ds:[esi]
  107c48:	6e                   	outs   dx,BYTE PTR ds:[esi]
  107c49:	20 6f 72             	and    BYTE PTR [edi+0x72],ch
  107c4c:	20 70 72             	and    BYTE PTR [eax+0x72],dh
  107c4f:	69 76 69 6c 65 67 65 	imul   esi,DWORD PTR [esi+0x69],0x6567656c
  107c56:	20 65 72             	and    BYTE PTR [ebp+0x72],ah
  107c59:	72 6f                	jb     0x107cca
  107c5b:	72 00                	jb     0x107c5d
  107c5d:	00 00                	add    BYTE PTR [eax],al
  107c5f:	00 49 6e             	add    BYTE PTR [ecx+0x6e],cl
  107c62:	76 61                	jbe    0x107cc5
  107c64:	6c                   	ins    BYTE PTR es:[edi],dx
  107c65:	69 64 20 6d 65 6d 6f 	imul   esp,DWORD PTR [eax+eiz*1+0x6d],0x726f6d65
  107c6c:	72 
  107c6d:	79 20                	jns    0x107c8f
  107c6f:	61                   	popa
  107c70:	63 63 65             	arpl   WORD PTR [ebx+0x65],esp
  107c73:	73 73                	jae    0x107ce8
  107c75:	20 6f 72             	and    BYTE PTR [edi+0x72],ch
  107c78:	20 70 61             	and    BYTE PTR [eax+0x61],dh
  107c7b:	67 65 20 6e 6f       	and    BYTE PTR gs:[bp+0x6f],ch
  107c80:	74 20                	je     0x107ca2
  107c82:	70 72                	jo     0x107cf6
  107c84:	65 73 65             	gs jae 0x107cec
  107c87:	6e                   	outs   dx,BYTE PTR ds:[esi]
  107c88:	74 00                	je     0x107c8a
  107c8a:	55                   	push   ebp
  107c8b:	6e                   	outs   dx,BYTE PTR ds:[esi]
  107c8c:	6b 6e 6f 77          	imul   ebp,DWORD PTR [esi+0x6f],0x77
  107c90:	6e                   	outs   dx,BYTE PTR ds:[esi]
  107c91:	20 65 72             	and    BYTE PTR [ebp+0x72],ah
  107c94:	72 6f                	jb     0x107d05
  107c96:	72 20                	jb     0x107cb8
  107c98:	63 6f 6e             	arpl   WORD PTR [edi+0x6e],ebp
  107c9b:	64 69 74 69 6f 6e 00 	imul   esi,DWORD PTR fs:[ecx+ebp*2+0x6f],0x5b0a006e
  107ca2:	0a 5b 
  107ca4:	52                   	push   edx
  107ca5:	49                   	dec    ecx
  107ca6:	4e                   	dec    esi
  107ca7:	47                   	inc    edi
  107ca8:	33 20                	xor    esp,DWORD PTR [eax]
  107caa:	45                   	inc    ebp
  107cab:	58                   	pop    eax
  107cac:	43                   	inc    ebx
  107cad:	45                   	inc    ebp
  107cae:	50                   	push   eax
  107caf:	54                   	push   esp
  107cb0:	49                   	dec    ecx
  107cb1:	4f                   	dec    edi
  107cb2:	4e                   	dec    esi
  107cb3:	20 23                	and    BYTE PTR [ebx],ah
  107cb5:	00 5d 20             	add    BYTE PTR [ebp+0x20],bl
  107cb8:	00 20                	add    BYTE PTR [eax],ah
  107cba:	2d 20 45 72 72       	sub    eax,0x72724520
  107cbf:	6f                   	outs   dx,DWORD PTR ds:[esi]
  107cc0:	72 20                	jb     0x107ce2
  107cc2:	43                   	inc    ebx
  107cc3:	6f                   	outs   dx,DWORD PTR ds:[esi]
  107cc4:	64 65 3a 20          	fs cmp ah,BYTE PTR gs:[eax]
  107cc8:	00 00                	add    BYTE PTR [eax],al
  107cca:	00 00                	add    BYTE PTR [eax],al
  107ccc:	0a 5b 52             	or     bl,BYTE PTR [ebx+0x52]
  107ccf:	49                   	dec    ecx
  107cd0:	4e                   	dec    esi
  107cd1:	47                   	inc    edi
  107cd2:	33 20                	xor    esp,DWORD PTR [eax]
  107cd4:	45                   	inc    ebp
  107cd5:	58                   	pop    eax
  107cd6:	43                   	inc    ebx
  107cd7:	45                   	inc    ebp
  107cd8:	50                   	push   eax
  107cd9:	54                   	push   esp
  107cda:	49                   	dec    ecx
  107cdb:	4f                   	dec    edi
  107cdc:	4e                   	dec    esi
  107cdd:	5d                   	pop    ebp
  107cde:	20 52 65             	and    BYTE PTR [edx+0x65],dl
  107ce1:	73 74                	jae    0x107d57
  107ce3:	61                   	popa
  107ce4:	72 74                	jb     0x107d5a
  107ce6:	69 6e 67 20 73 79 73 	imul   ebp,DWORD PTR [esi+0x67],0x73797320
  107ced:	6d                   	ins    DWORD PTR es:[edi],dx
  107cee:	61                   	popa
  107cef:	6e                   	outs   dx,BYTE PTR ds:[esi]
  107cf0:	2e 2e 2e 0a 00       	cs cs or al,BYTE PTR cs:[eax]
  107cf5:	00 00                	add    BYTE PTR [eax],al
  107cf7:	00 3d 3d 3d 3d 3d    	add    BYTE PTR ds:0x3d3d3d3d,bh
  107cfd:	3d 3d 3d 3d 3d       	cmp    eax,0x3d3d3d3d
  107d02:	3d 3d 3d 3d 3d       	cmp    eax,0x3d3d3d3d
  107d07:	3d 3d 3d 3d 3d       	cmp    eax,0x3d3d3d3d
  107d0c:	3d 3d 3d 3d 3d       	cmp    eax,0x3d3d3d3d
  107d11:	3d 3d 3d 3d 3d       	cmp    eax,0x3d3d3d3d
  107d16:	3d 3d 3d 3d 3d       	cmp    eax,0x3d3d3d3d
  107d1b:	3d 3d 3d 3d 3d       	cmp    eax,0x3d3d3d3d
  107d20:	3d 3d 3d 3d 3d       	cmp    eax,0x3d3d3d3d
  107d25:	3d 3d 3d 3d 3d       	cmp    eax,0x3d3d3d3d
  107d2a:	3d 3d 3d 3d 3d       	cmp    eax,0x3d3d3d3d
  107d2f:	3d 3d 3d 3d 3d       	cmp    eax,0x3d3d3d3d
  107d34:	3d 3d 3d 3d 3d       	cmp    eax,0x3d3d3d3d
  107d39:	3d 3d 3d 3d 3d       	cmp    eax,0x3d3d3d3d
  107d3e:	3d 3d 3d 3d 3d       	cmp    eax,0x3d3d3d3d
  107d43:	3d 3d 3d 3d 3d       	cmp    eax,0x3d3d3d3d
  107d48:	00 00                	add    BYTE PTR [eax],al
  107d4a:	00 00                	add    BYTE PTR [eax],al
  107d4c:	20 20                	and    BYTE PTR [eax],ah
  107d4e:	20 20                	and    BYTE PTR [eax],ah
  107d50:	20 20                	and    BYTE PTR [eax],ah
  107d52:	20 20                	and    BYTE PTR [eax],ah
  107d54:	20 20                	and    BYTE PTR [eax],ah
  107d56:	20 20                	and    BYTE PTR [eax],ah
  107d58:	20 20                	and    BYTE PTR [eax],ah
  107d5a:	20 20                	and    BYTE PTR [eax],ah
  107d5c:	20 20                	and    BYTE PTR [eax],ah
  107d5e:	20 20                	and    BYTE PTR [eax],ah
  107d60:	20 20                	and    BYTE PTR [eax],ah
  107d62:	20 20                	and    BYTE PTR [eax],ah
  107d64:	20 20                	and    BYTE PTR [eax],ah
  107d66:	20 20                	and    BYTE PTR [eax],ah
  107d68:	20 20                	and    BYTE PTR [eax],ah
  107d6a:	20 20                	and    BYTE PTR [eax],ah
  107d6c:	20 20                	and    BYTE PTR [eax],ah
  107d6e:	20 20                	and    BYTE PTR [eax],ah
  107d70:	20 20                	and    BYTE PTR [eax],ah
  107d72:	20 20                	and    BYTE PTR [eax],ah
  107d74:	20 20                	and    BYTE PTR [eax],ah
  107d76:	20 20                	and    BYTE PTR [eax],ah
  107d78:	20 20                	and    BYTE PTR [eax],ah
  107d7a:	20 20                	and    BYTE PTR [eax],ah
  107d7c:	20 20                	and    BYTE PTR [eax],ah
  107d7e:	20 20                	and    BYTE PTR [eax],ah
  107d80:	20 20                	and    BYTE PTR [eax],ah
  107d82:	20 20                	and    BYTE PTR [eax],ah
  107d84:	20 20                	and    BYTE PTR [eax],ah
  107d86:	20 20                	and    BYTE PTR [eax],ah
  107d88:	20 20                	and    BYTE PTR [eax],ah
  107d8a:	20 20                	and    BYTE PTR [eax],ah
  107d8c:	20 20                	and    BYTE PTR [eax],ah
  107d8e:	20 20                	and    BYTE PTR [eax],ah
  107d90:	20 20                	and    BYTE PTR [eax],ah
  107d92:	20 20                	and    BYTE PTR [eax],ah
  107d94:	20 20                	and    BYTE PTR [eax],ah
  107d96:	20 20                	and    BYTE PTR [eax],ah
  107d98:	20 20                	and    BYTE PTR [eax],ah
  107d9a:	20 20                	and    BYTE PTR [eax],ah
  107d9c:	00 20                	add    BYTE PTR [eax],ah
  107d9e:	20 42 4c             	and    BYTE PTR [edx+0x4c],al
  107da1:	41                   	inc    ecx
  107da2:	43                   	inc    ebx
  107da3:	4b                   	dec    ebx
  107da4:	48                   	dec    eax
  107da5:	4f                   	dec    edi
  107da6:	4c                   	dec    esp
  107da7:	45                   	inc    ebp
  107da8:	20 20                	and    BYTE PTR [eax],ah
  107daa:	00 45 58             	add    BYTE PTR [ebp+0x58],al
  107dad:	43                   	inc    ebx
  107dae:	45                   	inc    ebp
  107daf:	50                   	push   eax
  107db0:	54                   	push   esp
  107db1:	49                   	dec    ecx
  107db2:	4f                   	dec    edi
  107db3:	4e                   	dec    esi
  107db4:	20 49 4e             	and    BYTE PTR [ecx+0x4e],cl
  107db7:	46                   	inc    esi
  107db8:	4f                   	dec    edi
  107db9:	52                   	push   edx
  107dba:	4d                   	dec    ebp
  107dbb:	41                   	inc    ecx
  107dbc:	54                   	push   esp
  107dbd:	49                   	dec    ecx
  107dbe:	4f                   	dec    edi
  107dbf:	4e                   	dec    esi
  107dc0:	3a 00                	cmp    al,BYTE PTR [eax]
  107dc2:	54                   	push   esp
  107dc3:	79 70                	jns    0x107e35
  107dc5:	65 3a 00             	cmp    al,BYTE PTR gs:[eax]
  107dc8:	4e                   	dec    esi
  107dc9:	75 6d                	jne    0x107e38
  107dcb:	62 65 72             	bound  esp,QWORD PTR [ebp+0x72]
  107dce:	3a 00                	cmp    al,BYTE PTR [eax]
  107dd0:	45                   	inc    ebp
  107dd1:	72 72                	jb     0x107e45
  107dd3:	6f                   	outs   dx,DWORD PTR ds:[esi]
  107dd4:	72 20                	jb     0x107df6
  107dd6:	43                   	inc    ebx
  107dd7:	6f                   	outs   dx,DWORD PTR ds:[esi]
  107dd8:	64 65 3a 00          	fs cmp al,BYTE PTR gs:[eax]
  107ddc:	44                   	inc    esp
  107ddd:	65 73 63             	gs jae 0x107e43
  107de0:	72 69                	jb     0x107e4b
  107de2:	70 74                	jo     0x107e58
  107de4:	69 6f 6e 3a 00 43 50 	imul   ebp,DWORD PTR [edi+0x6e],0x5043003a
  107deb:	55                   	push   ebp
  107dec:	20 53 54             	and    BYTE PTR [ebx+0x54],dl
  107def:	41                   	inc    ecx
  107df0:	54                   	push   esp
  107df1:	45                   	inc    ebp
  107df2:	20 41 54             	and    BYTE PTR [ecx+0x54],al
  107df5:	20 43 52             	and    BYTE PTR [ebx+0x52],al
  107df8:	41                   	inc    ecx
  107df9:	53                   	push   ebx
  107dfa:	48                   	dec    eax
  107dfb:	3a 00                	cmp    al,BYTE PTR [eax]
  107dfd:	45                   	inc    ebp
  107dfe:	49                   	dec    ecx
  107dff:	50                   	push   eax
  107e00:	3a 00                	cmp    al,BYTE PTR [eax]
  107e02:	45                   	inc    ebp
  107e03:	41                   	inc    ecx
  107e04:	58                   	pop    eax
  107e05:	3a 00                	cmp    al,BYTE PTR [eax]
  107e07:	45                   	inc    ebp
  107e08:	42                   	inc    edx
  107e09:	58                   	pop    eax
  107e0a:	3a 00                	cmp    al,BYTE PTR [eax]
  107e0c:	45                   	inc    ebp
  107e0d:	43                   	inc    ebx
  107e0e:	58                   	pop    eax
  107e0f:	3a 00                	cmp    al,BYTE PTR [eax]
  107e11:	45                   	inc    ebp
  107e12:	44                   	inc    esp
  107e13:	58                   	pop    eax
  107e14:	3a 00                	cmp    al,BYTE PTR [eax]
  107e16:	45                   	inc    ebp
  107e17:	53                   	push   ebx
  107e18:	49                   	dec    ecx
  107e19:	3a 00                	cmp    al,BYTE PTR [eax]
  107e1b:	45                   	inc    ebp
  107e1c:	44                   	inc    esp
  107e1d:	49                   	dec    ecx
  107e1e:	3a 00                	cmp    al,BYTE PTR [eax]
  107e20:	45                   	inc    ebp
  107e21:	42                   	inc    edx
  107e22:	50                   	push   eax
  107e23:	3a 00                	cmp    al,BYTE PTR [eax]
  107e25:	45                   	inc    ebp
  107e26:	53                   	push   ebx
  107e27:	50                   	push   eax
  107e28:	3a 00                	cmp    al,BYTE PTR [eax]
  107e2a:	43                   	inc    ebx
  107e2b:	4f                   	dec    edi
  107e2c:	4e                   	dec    esi
  107e2d:	54                   	push   esp
  107e2e:	52                   	push   edx
  107e2f:	4f                   	dec    edi
  107e30:	4c                   	dec    esp
  107e31:	20 52 45             	and    BYTE PTR [edx+0x45],dl
  107e34:	47                   	inc    edi
  107e35:	49                   	dec    ecx
  107e36:	53                   	push   ebx
  107e37:	54                   	push   esp
  107e38:	45                   	inc    ebp
  107e39:	52                   	push   edx
  107e3a:	53                   	push   ebx
  107e3b:	3a 00                	cmp    al,BYTE PTR [eax]
  107e3d:	43                   	inc    ebx
  107e3e:	52                   	push   edx
  107e3f:	30 3a                	xor    BYTE PTR [edx],bh
  107e41:	00 43 52             	add    BYTE PTR [ebx+0x52],al
  107e44:	32 3a                	xor    bh,BYTE PTR [edx]
  107e46:	00 43 52             	add    BYTE PTR [ebx+0x52],al
  107e49:	33 3a                	xor    edi,DWORD PTR [edx]
  107e4b:	00 50 61             	add    BYTE PTR [eax+0x61],dl
  107e4e:	67 65 20 46 61       	and    BYTE PTR gs:[bp+0x61],al
  107e53:	75 6c                	jne    0x107ec1
  107e55:	74 20                	je     0x107e77
  107e57:	41                   	inc    ecx
  107e58:	64 64 72 65          	fs fs jb 0x107ec1
  107e5c:	73 73                	jae    0x107ed1
  107e5e:	3a 00                	cmp    al,BYTE PTR [eax]
  107e60:	54                   	push   esp
  107e61:	68 65 20 73 79       	push   0x79732065
  107e66:	73 74                	jae    0x107edc
  107e68:	65 6d                	gs ins DWORD PTR es:[edi],dx
  107e6a:	20 68 61             	and    BYTE PTR [eax+0x61],ch
  107e6d:	73 20                	jae    0x107e8f
  107e6f:	62 65 65             	bound  esp,QWORD PTR [ebp+0x65]
  107e72:	6e                   	outs   dx,BYTE PTR ds:[esi]
  107e73:	20 68 61             	and    BYTE PTR [eax+0x61],ch
  107e76:	6c                   	ins    BYTE PTR es:[edi],dx
  107e77:	74 65                	je     0x107ede
  107e79:	64 20 74 6f 20       	and    BYTE PTR fs:[edi+ebp*2+0x20],dh
  107e7e:	70 72                	jo     0x107ef2
  107e80:	65 76 65             	gs jbe 0x107ee8
  107e83:	6e                   	outs   dx,BYTE PTR ds:[esi]
  107e84:	74 20                	je     0x107ea6
  107e86:	64 61                	fs popa
  107e88:	74 61                	je     0x107eeb
  107e8a:	20 63 6f             	and    BYTE PTR [ebx+0x6f],ah
  107e8d:	72 72                	jb     0x107f01
  107e8f:	75 70                	jne    0x107f01
  107e91:	74 69                	je     0x107efc
  107e93:	6f                   	outs   dx,DWORD PTR ds:[esi]
  107e94:	6e                   	outs   dx,BYTE PTR ds:[esi]
  107e95:	2e 00 50 6c          	add    BYTE PTR cs:[eax+0x6c],dl
  107e99:	65 61                	gs popa
  107e9b:	73 65                	jae    0x107f02
  107e9d:	20 72 65             	and    BYTE PTR [edx+0x65],dh
  107ea0:	62 6f 6f             	bound  ebp,QWORD PTR [edi+0x6f]
  107ea3:	74 20                	je     0x107ec5
  107ea5:	79 6f                	jns    0x107f16
  107ea7:	75 72                	jne    0x107f1b
  107ea9:	20 73 79             	and    BYTE PTR [ebx+0x79],dh
  107eac:	73 74                	jae    0x107f22
  107eae:	65 6d                	gs ins DWORD PTR es:[edi],dx
  107eb0:	2e 00 00             	add    BYTE PTR cs:[eax],al
  107eb3:	00 0a                	add    BYTE PTR [edx],cl
  107eb5:	5b                   	pop    ebx
  107eb6:	52                   	push   edx
  107eb7:	49                   	dec    ecx
  107eb8:	4e                   	dec    esi
  107eb9:	47                   	inc    edi
  107eba:	33 5f 53             	xor    ebx,DWORD PTR [edi+0x53]
  107ebd:	57                   	push   edi
  107ebe:	49                   	dec    ecx
  107ebf:	54                   	push   esp
  107ec0:	43                   	inc    ebx
  107ec1:	48                   	dec    eax
  107ec2:	5d                   	pop    ebp
  107ec3:	20 53 77             	and    BYTE PTR [ebx+0x77],dl
  107ec6:	69 74 63 68 69 6e 67 	imul   esi,DWORD PTR [ebx+eiz*2+0x68],0x20676e69
  107ecd:	20 
  107ece:	74 6f                	je     0x107f3f
  107ed0:	20 52 69             	and    BYTE PTR [edx+0x69],dl
  107ed3:	6e                   	outs   dx,BYTE PTR ds:[esi]
  107ed4:	67 20 33             	and    BYTE PTR [bp+di],dh
  107ed7:	20 6e 6f             	and    BYTE PTR [esi+0x6f],ch
  107eda:	77 21                	ja     0x107efd
  107edc:	0a 00                	or     al,BYTE PTR [eax]
  107ede:	00 00                	add    BYTE PTR [eax],al
  107ee0:	55                   	push   ebp
  107ee1:	6e                   	outs   dx,BYTE PTR ds:[esi]
  107ee2:	6b 6e 6f 77          	imul   ebp,DWORD PTR [esi+0x6f],0x77
  107ee6:	6e                   	outs   dx,BYTE PTR ds:[esi]
  107ee7:	20 73 79             	and    BYTE PTR [ebx+0x79],dh
  107eea:	73 63                	jae    0x107f4f
  107eec:	61                   	popa
  107eed:	6c                   	ins    BYTE PTR es:[edi],dx
  107eee:	6c                   	ins    BYTE PTR es:[edi],dx
  107eef:	3a 20                	cmp    ah,BYTE PTR [eax]
  107ef1:	00 0a                	add    BYTE PTR [edx],cl
  107ef3:	00 a5 43 10 00 cb    	add    BYTE PTR [ebp-0x34ffefbd],ah
  107ef9:	3f                   	aas
  107efa:	10 00                	adc    BYTE PTR [eax],al
  107efc:	e2 3f                	loop   0x107f3d
  107efe:	10 00                	adc    BYTE PTR [eax],al
  107f00:	f6 3f                	idiv   BYTE PTR [edi]
  107f02:	10 00                	adc    BYTE PTR [eax],al
  107f04:	0a 40 10             	or     al,BYTE PTR [eax+0x10]
  107f07:	00 a5 43 10 00 1e    	add    BYTE PTR [ebp+0x1e001043],ah
  107f0d:	40                   	inc    eax
  107f0e:	10 00                	adc    BYTE PTR [eax],al
  107f10:	2b 40 10             	sub    eax,DWORD PTR [eax+0x10]
  107f13:	00 3e                	add    BYTE PTR [esi],bh
  107f15:	40                   	inc    eax
  107f16:	10 00                	adc    BYTE PTR [eax],al
  107f18:	48                   	dec    eax
  107f19:	40                   	inc    eax
  107f1a:	10 00                	adc    BYTE PTR [eax],al
  107f1c:	66 40                	inc    ax
  107f1e:	10 00                	adc    BYTE PTR [eax],al
  107f20:	c7 40 10 00 d1 40 10 	mov    DWORD PTR [eax+0x10],0x1040d100
  107f27:	00 f0                	add    al,dh
  107f29:	40                   	inc    eax
  107f2a:	10 00                	adc    BYTE PTR [eax],al
  107f2c:	07                   	pop    es
  107f2d:	41                   	inc    ecx
  107f2e:	10 00                	adc    BYTE PTR [eax],al
  107f30:	46                   	inc    esi
  107f31:	41                   	inc    ecx
  107f32:	10 00                	adc    BYTE PTR [eax],al
  107f34:	5e                   	pop    esi
  107f35:	41                   	inc    ecx
  107f36:	10 00                	adc    BYTE PTR [eax],al
  107f38:	97                   	xchg   edi,eax
  107f39:	41                   	inc    ecx
  107f3a:	10 00                	adc    BYTE PTR [eax],al
  107f3c:	b3 41                	mov    bl,0x41
  107f3e:	10 00                	adc    BYTE PTR [eax],al
  107f40:	c0 41 10 00          	rol    BYTE PTR [ecx+0x10],0x0
  107f44:	f4                   	hlt
  107f45:	41                   	inc    ecx
  107f46:	10 00                	adc    BYTE PTR [eax],al
  107f48:	16                   	push   ss
  107f49:	42                   	inc    edx
  107f4a:	10 00                	adc    BYTE PTR [eax],al
  107f4c:	3b 42 10             	cmp    eax,DWORD PTR [edx+0x10]
  107f4f:	00 50 42             	add    BYTE PTR [eax+0x42],dl
  107f52:	10 00                	adc    BYTE PTR [eax],al
  107f54:	9b                   	fwait
  107f55:	42                   	inc    edx
  107f56:	10 00                	adc    BYTE PTR [eax],al
  107f58:	e3 42                	jecxz  0x107f9c
  107f5a:	10 00                	adc    BYTE PTR [eax],al
  107f5c:	22 43 10             	and    al,BYTE PTR [ebx+0x10]
  107f5f:	00 44 43 10          	add    BYTE PTR [ebx+eax*2+0x10],al
  107f63:	00 5d 43             	add    BYTE PTR [ebp+0x43],bl
  107f66:	10 00                	adc    BYTE PTR [eax],al
  107f68:	67 43                	addr16 inc ebx
  107f6a:	10 00                	adc    BYTE PTR [eax],al
  107f6c:	71 43                	jno    0x107fb1
  107f6e:	10 00                	adc    BYTE PTR [eax],al
  107f70:	7e 43                	jle    0x107fb5
  107f72:	10 00                	adc    BYTE PTR [eax],al
  107f74:	85 43 10             	test   DWORD PTR [ebx+0x10],eax
  107f77:	00 8f 43 10 00 99    	add    BYTE PTR [edi-0x66ffefbd],cl
  107f7d:	43                   	inc    ebx
  107f7e:	10 00                	adc    BYTE PTR [eax],al
  107f80:	50                   	push   eax
  107f81:	4d                   	dec    ebp
  107f82:	4d                   	dec    ebp
  107f83:	20 53 74             	and    BYTE PTR [ebx+0x74],dl
  107f86:	61                   	popa
  107f87:	74 73                	je     0x107ffc
  107f89:	3a 20                	cmp    ah,BYTE PTR [eax]
  107f8b:	00 20                	add    BYTE PTR [eax],ah
  107f8d:	70 61                	jo     0x107ff0
  107f8f:	67 65 73 20          	addr16 gs jae 0x107fb3
  107f93:	66 72 65             	data16 jb 0x107ffb
  107f96:	65 20 2f             	and    BYTE PTR gs:[edi],ch
  107f99:	20 00                	and    BYTE PTR [eax],al
  107f9b:	20 74 6f 74          	and    BYTE PTR [edi+ebp*2+0x74],dh
  107f9f:	61                   	popa
  107fa0:	6c                   	ins    BYTE PTR es:[edi],dx
  107fa1:	20 28                	and    BYTE PTR [eax],ch
  107fa3:	00 20                	add    BYTE PTR [eax],ah
  107fa5:	4d                   	dec    ebp
  107fa6:	42                   	inc    edx
  107fa7:	20 66 72             	and    BYTE PTR [esi+0x72],ah
  107faa:	65 65 29 0a          	gs sub DWORD PTR gs:[edx],ecx
  107fae:	00 00                	add    BYTE PTR [eax],al
  107fb0:	45                   	inc    ebp
  107fb1:	52                   	push   edx
  107fb2:	52                   	push   edx
  107fb3:	4f                   	dec    edi
  107fb4:	52                   	push   edx
  107fb5:	3a 20                	cmp    ah,BYTE PTR [eax]
  107fb7:	50                   	push   eax
  107fb8:	61                   	popa
  107fb9:	67 65 20 74 61       	and    BYTE PTR gs:[si+0x61],dh
  107fbe:	62 6c 65 20          	bound  ebp,QWORD PTR [ebp+eiz*2+0x20]
  107fc2:	61                   	popa
  107fc3:	6c                   	ins    BYTE PTR es:[edi],dx
  107fc4:	6c                   	ins    BYTE PTR es:[edi],dx
  107fc5:	6f                   	outs   dx,DWORD PTR ds:[esi]
  107fc6:	63 61 74             	arpl   WORD PTR [ecx+0x74],esp
  107fc9:	65 64 20 69 6e       	gs and BYTE PTR fs:[ecx+0x6e],ch
  107fce:	20 72 65             	and    BYTE PTR [edx+0x65],dh
  107fd1:	73 65                	jae    0x108038
  107fd3:	72 76                	jb     0x10804b
  107fd5:	65 64 20 72 65       	gs and BYTE PTR fs:[edx+0x65],dh
  107fda:	67 69 6f 6e 3a 20 30 	imul   ebp,DWORD PTR [bx+0x6e],0x7830203a
  107fe1:	78 
  107fe2:	00 0a                	add    BYTE PTR [edx],cl
  107fe4:	00 00                	add    BYTE PTR [eax],al
  107fe6:	00 00                	add    BYTE PTR [eax],al
  107fe8:	45                   	inc    ebp
  107fe9:	52                   	push   edx
  107fea:	52                   	push   edx
  107feb:	4f                   	dec    edi
  107fec:	52                   	push   edx
  107fed:	3a 20                	cmp    ah,BYTE PTR [eax]
  107fef:	43                   	inc    ebx
  107ff0:	61                   	popa
  107ff1:	6e                   	outs   dx,BYTE PTR ds:[esi]
  107ff2:	6e                   	outs   dx,BYTE PTR ds:[esi]
  107ff3:	6f                   	outs   dx,DWORD PTR ds:[esi]
  107ff4:	74 20                	je     0x108016
  107ff6:	65 6e                	outs   dx,BYTE PTR gs:[esi]
  107ff8:	61                   	popa
  107ff9:	62 6c 65 20          	bound  ebp,QWORD PTR [ebp+eiz*2+0x20]
  107ffd:	70 61                	jo     0x108060
  107fff:	67 69 6e 67 20 2d 20 	imul   ebp,DWORD PTR [bp+0x67],0x6e202d20
  108006:	6e 
  108007:	6f                   	outs   dx,DWORD PTR ds:[esi]
  108008:	20 70 61             	and    BYTE PTR [eax+0x61],dh
  10800b:	67 65 20 64 69       	and    BYTE PTR gs:[si+0x69],ah
  108010:	72 65                	jb     0x108077
  108012:	63 74 6f 72          	arpl   WORD PTR [edi+ebp*2+0x72],esi
  108016:	79 21                	jns    0x108039
  108018:	0a 00                	or     al,BYTE PTR [eax]
  10801a:	00 00                	add    BYTE PTR [eax],al
  10801c:	5b                   	pop    ebx
  10801d:	50                   	push   eax
  10801e:	41                   	inc    ecx
  10801f:	47                   	inc    edi
  108020:	49                   	dec    ecx
  108021:	4e                   	dec    esi
  108022:	47                   	inc    edi
  108023:	5d                   	pop    ebp
  108024:	20 45 52             	and    BYTE PTR [ebp+0x52],al
  108027:	52                   	push   edx
  108028:	4f                   	dec    edi
  108029:	52                   	push   edx
  10802a:	3a 20                	cmp    ah,BYTE PTR [eax]
  10802c:	43                   	inc    ebx
  10802d:	61                   	popa
  10802e:	6e                   	outs   dx,BYTE PTR ds:[esi]
  10802f:	6e                   	outs   dx,BYTE PTR ds:[esi]
  108030:	6f                   	outs   dx,DWORD PTR ds:[esi]
  108031:	74 20                	je     0x108053
  108033:	6d                   	ins    DWORD PTR es:[edi],dx
  108034:	61                   	popa
  108035:	70 20                	jo     0x108057
  108037:	4d                   	dec    ebp
  108038:	4d                   	dec    ebp
  108039:	49                   	dec    ecx
  10803a:	4f                   	dec    edi
  10803b:	20 2d 20 70 61 67    	and    BYTE PTR ds:0x67617020,ch
  108041:	69 6e 67 20 6e 6f 74 	imul   ebp,DWORD PTR [esi+0x67],0x746f6e20
  108048:	20 69 6e             	and    BYTE PTR [ecx+0x6e],ch
  10804b:	69 74 69 61 6c 69 7a 	imul   esi,DWORD PTR [ecx+ebp*2+0x61],0x657a696c
  108052:	65 
  108053:	64 0a 00             	or     al,BYTE PTR fs:[eax]
  108056:	5b                   	pop    ebx
  108057:	53                   	push   ebx
  108058:	43                   	inc    ebx
  108059:	48                   	dec    eax
  10805a:	45                   	inc    ebp
  10805b:	44                   	inc    esp
  10805c:	55                   	push   ebp
  10805d:	4c                   	dec    esp
  10805e:	45                   	inc    ebp
  10805f:	52                   	push   edx
  108060:	5d                   	pop    ebp
  108061:	20 49 6e             	and    BYTE PTR [ecx+0x6e],cl
  108064:	69 74 69 61 6c 69 7a 	imul   esi,DWORD PTR [ecx+ebp*2+0x61],0x657a696c
  10806b:	65 
  10806c:	64 0a 00             	or     al,BYTE PTR fs:[eax]
  10806f:	5b                   	pop    ebx
  108070:	53                   	push   ebx
  108071:	43                   	inc    ebx
  108072:	48                   	dec    eax
  108073:	45                   	inc    ebp
  108074:	44                   	inc    esp
  108075:	55                   	push   ebp
  108076:	4c                   	dec    esp
  108077:	45                   	inc    ebp
  108078:	52                   	push   edx
  108079:	5d                   	pop    ebp
  10807a:	20 45 6e             	and    BYTE PTR [ebp+0x6e],al
  10807d:	61                   	popa
  10807e:	62 6c 65 64          	bound  ebp,QWORD PTR [ebp+eiz*2+0x64]
  108082:	0a 00                	or     al,BYTE PTR [eax]
  108084:	5b                   	pop    ebx
  108085:	53                   	push   ebx
  108086:	43                   	inc    ebx
  108087:	48                   	dec    eax
  108088:	45                   	inc    ebp
  108089:	44                   	inc    esp
  10808a:	55                   	push   ebp
  10808b:	4c                   	dec    esp
  10808c:	45                   	inc    ebp
  10808d:	52                   	push   edx
  10808e:	5d                   	pop    ebp
  10808f:	20 44 69 73          	and    BYTE PTR [ecx+ebp*2+0x73],al
  108093:	61                   	popa
  108094:	62 6c 65 64          	bound  ebp,QWORD PTR [ebp+eiz*2+0x64]
  108098:	0a 00                	or     al,BYTE PTR [eax]
  10809a:	00 00                	add    BYTE PTR [eax],al
  10809c:	0a 5b 49             	or     bl,BYTE PTR [ebx+0x49]
  10809f:	52                   	push   edx
  1080a0:	51                   	push   ecx
  1080a1:	5f                   	pop    edi
  1080a2:	45                   	inc    ebp
  1080a3:	4e                   	dec    esi
  1080a4:	41                   	inc    ecx
  1080a5:	42                   	inc    edx
  1080a6:	4c                   	dec    esp
  1080a7:	45                   	inc    ebp
  1080a8:	5d                   	pop    ebp
  1080a9:	20 49 52             	and    BYTE PTR [ecx+0x52],cl
  1080ac:	51                   	push   ecx
  1080ad:	20 00                	and    BYTE PTR [eax],al
  1080af:	20 2d 3e 20 4d 41    	and    BYTE PTR ds:0x414d203e,ch
  1080b5:	53                   	push   ebx
  1080b6:	54                   	push   esp
  1080b7:	45                   	inc    ebp
  1080b8:	52                   	push   edx
  1080b9:	0a 00                	or     al,BYTE PTR [eax]
  1080bb:	20 2d 3e 20 53 4c    	and    BYTE PTR ds:0x4c53203e,ch
  1080c1:	41                   	inc    ecx
  1080c2:	56                   	push   esi
  1080c3:	45                   	inc    ebp
  1080c4:	0a 00                	or     al,BYTE PTR [eax]
  1080c6:	5b                   	pop    ebx
  1080c7:	49                   	dec    ecx
  1080c8:	52                   	push   edx
  1080c9:	51                   	push   ecx
  1080ca:	32 5f 43             	xor    bl,BYTE PTR [edi+0x43]
  1080cd:	41                   	inc    ecx
  1080ce:	53                   	push   ebx
  1080cf:	43                   	inc    ebx
  1080d0:	41                   	inc    ecx
  1080d1:	44                   	inc    esp
  1080d2:	45                   	inc    ebp
  1080d3:	5d                   	pop    ebp
  1080d4:	20 42 65             	and    BYTE PTR [edx+0x65],al
  1080d7:	66 6f                	outs   dx,WORD PTR ds:[esi]
  1080d9:	72 65                	jb     0x108140
  1080db:	3a 20                	cmp    ah,BYTE PTR [eax]
  1080dd:	00 20                	add    BYTE PTR [eax],ah
  1080df:	41                   	inc    ecx
  1080e0:	66 74 65             	data16 je 0x108148
  1080e3:	72 20                	jb     0x108105
  1080e5:	63 61 6c             	arpl   WORD PTR [ecx+0x6c],esp
  1080e8:	63 3a                	arpl   WORD PTR [edx],edi
  1080ea:	20 00                	and    BYTE PTR [eax],al
  1080ec:	20 52 65             	and    BYTE PTR [edx+0x65],dl
  1080ef:	61                   	popa
  1080f0:	64 62 61 63          	bound  esp,QWORD PTR fs:[ecx+0x63]
  1080f4:	6b 3a 20             	imul   edi,DWORD PTR [edx],0x20
  1080f7:	00 0a                	add    BYTE PTR [edx],cl
  1080f9:	00 00                	add    BYTE PTR [eax],al
  1080fb:	00 5b 49             	add    BYTE PTR [ebx+0x49],bl
  1080fe:	52                   	push   edx
  1080ff:	51                   	push   ecx
  108100:	32 5f 43             	xor    bl,BYTE PTR [edi+0x43]
  108103:	41                   	inc    ecx
  108104:	53                   	push   ebx
  108105:	43                   	inc    ebx
  108106:	41                   	inc    ecx
  108107:	44                   	inc    esp
  108108:	45                   	inc    ebp
  108109:	5d                   	pop    ebp
  10810a:	20 57 52             	and    BYTE PTR [edi+0x52],dl
  10810d:	49                   	dec    ecx
  10810e:	54                   	push   esp
  10810f:	45                   	inc    ebp
  108110:	20 46 41             	and    BYTE PTR [esi+0x41],al
  108113:	49                   	dec    ecx
  108114:	4c                   	dec    esp
  108115:	45                   	inc    ebp
  108116:	44                   	inc    esp
  108117:	21 20                	and    DWORD PTR [eax],esp
  108119:	52                   	push   edx
  10811a:	65 74 72             	gs je  0x10818f
  10811d:	79 69                	jns    0x108188
  10811f:	6e                   	outs   dx,BYTE PTR ds:[esi]
  108120:	67 2e 2e 2e 0a 00    	cs cs or al,BYTE PTR cs:[bx+si]
  108126:	5b                   	pop    ebx
  108127:	49                   	dec    ecx
  108128:	52                   	push   edx
  108129:	51                   	push   ecx
  10812a:	5f                   	pop    edi
  10812b:	4d                   	dec    ebp
  10812c:	41                   	inc    ecx
  10812d:	53                   	push   ebx
  10812e:	4b                   	dec    ebx
  10812f:	5d                   	pop    ebp
  108130:	20 42 65             	and    BYTE PTR [edx+0x65],al
  108133:	66 6f                	outs   dx,WORD PTR ds:[esi]
  108135:	72 65                	jb     0x10819c
  108137:	3a 20                	cmp    ah,BYTE PTR [eax]
  108139:	00 20                	add    BYTE PTR [eax],ah
  10813b:	49                   	dec    ecx
  10813c:	52                   	push   edx
  10813d:	51                   	push   ecx
  10813e:	5f                   	pop    edi
  10813f:	42                   	inc    edx
  108140:	49                   	dec    ecx
  108141:	54                   	push   esp
  108142:	3a 20                	cmp    ah,BYTE PTR [eax]
  108144:	00 20                	add    BYTE PTR [eax],ah
  108146:	7e 28                	jle    0x108170
  108148:	31 3c 3c             	xor    DWORD PTR [esp+edi*1],edi
  10814b:	6e                   	outs   dx,BYTE PTR ds:[esi]
  10814c:	29 3a                	sub    DWORD PTR [edx],edi
  10814e:	20 00                	and    BYTE PTR [eax],al
  108150:	5b                   	pop    ebx
  108151:	49                   	dec    ecx
  108152:	52                   	push   edx
  108153:	51                   	push   ecx
  108154:	5f                   	pop    edi
  108155:	4d                   	dec    ebp
  108156:	41                   	inc    ecx
  108157:	53                   	push   ebx
  108158:	4b                   	dec    ebx
  108159:	5d                   	pop    ebp
  10815a:	20 57 52             	and    BYTE PTR [edi+0x52],dl
  10815d:	49                   	dec    ecx
  10815e:	54                   	push   esp
  10815f:	45                   	inc    ebp
  108160:	20 46 41             	and    BYTE PTR [esi+0x41],al
  108163:	49                   	dec    ecx
  108164:	4c                   	dec    esp
  108165:	45                   	inc    ebp
  108166:	44                   	inc    esp
  108167:	21 20                	and    DWORD PTR [eax],esp
  108169:	52                   	push   edx
  10816a:	65 74 72             	gs je  0x1081df
  10816d:	79 69                	jns    0x1081d8
  10816f:	6e                   	outs   dx,BYTE PTR ds:[esi]
  108170:	67 2e 2e 2e 0a 00    	cs cs or al,BYTE PTR cs:[bx+si]
	...
  109012:	00 00                	add    BYTE PTR [eax],al
  109014:	00 80 0b 00 07 00    	add    BYTE PTR [eax+0x7000b],al
  10901a:	00 00                	add    BYTE PTR [eax],al
  10901c:	00 00                	add    BYTE PTR [eax],al
  10901e:	0a 00                	or     al,BYTE PTR [eax]
  109020:	00 02                	add    BYTE PTR [edx],al
  109022:	00 00                	add    BYTE PTR [eax],al
  109024:	80 01 00             	add    BYTE PTR [ecx],0x0
  109027:	00 ff                	add    bh,bh
  109029:	ff                   	(bad)
  10902a:	ff                   	(bad)
  10902b:	ff 01                	inc    DWORD PTR [ecx]
  10902d:	00 00                	add    BYTE PTR [eax],al
  10902f:	00 00                	add    BYTE PTR [eax],al
  109031:	00 20                	add    BYTE PTR [eax],ah
  109033:	00 00                	add    BYTE PTR [eax],al
  109035:	00 28                	add    BYTE PTR [eax],ch
  109037:	00 ff                	add    bh,bh
  109039:	ff                   	(bad)
  10903a:	ff                   	(bad)
  10903b:	ff 47 43             	inc    DWORD PTR [edi+0x43]
  10903e:	43                   	inc    ebx
  10903f:	3a 20                	cmp    ah,BYTE PTR [eax]
  109041:	28 47 4e             	sub    BYTE PTR [edi+0x4e],al
  109044:	55                   	push   ebp
  109045:	29 20                	sub    DWORD PTR [eax],esp
  109047:	31 33                	xor    DWORD PTR [ebx],esi
  109049:	2e 32 2e             	xor    ch,BYTE PTR cs:[esi]
  10904c:	30 00                	xor    BYTE PTR [eax],al
	...
  10905e:	00 00                	add    BYTE PTR [eax],al
  109060:	01 00                	add    DWORD PTR [eax],eax
	...
  10906a:	00 00                	add    BYTE PTR [eax],al
  10906c:	04 00                	add    al,0x0
  10906e:	f1                   	int1
  10906f:	ff 08                	dec    DWORD PTR [eax]
  109071:	00 00                	add    BYTE PTR [eax],al
  109073:	00 01                	add    BYTE PTR [ecx],al
	...
  10907d:	00 f1                	add    cl,dh
  10907f:	ff 0e                	dec    DWORD PTR [esi]
  109081:	00 00                	add    BYTE PTR [eax],al
  109083:	00 02                	add    BYTE PTR [edx],al
	...
  10908d:	00 f1                	add    cl,dh
  10908f:	ff 16                	call   DWORD PTR [esi]
  109091:	00 00                	add    BYTE PTR [eax],al
  109093:	00 04 00             	add    BYTE PTR [eax+eax*1],al
	...
  10909e:	f1                   	int1
  10909f:	ff 21                	jmp    DWORD PTR [ecx]
  1090a1:	00 00                	add    BYTE PTR [eax],al
  1090a3:	00 03                	add    BYTE PTR [ebx],al
	...
  1090ad:	00 f1                	add    cl,dh
  1090af:	ff 27                	jmp    DWORD PTR [edi]
  1090b1:	00 00                	add    BYTE PTR [eax],al
  1090b3:	00 02                	add    BYTE PTR [edx],al
  1090b5:	b0 ad                	mov    al,0xad
  1090b7:	1b 00                	sbb    eax,DWORD PTR [eax]
  1090b9:	00 00                	add    BYTE PTR [eax],al
  1090bb:	00 00                	add    BYTE PTR [eax],al
  1090bd:	00 f1                	add    cl,dh
  1090bf:	ff 2d 00 00 00 fb    	jmp    FWORD PTR ds:0xfb000000
  1090c5:	4f                   	dec    edi
  1090c6:	52                   	push   edx
  1090c7:	e4 00                	in     al,0x0
  1090c9:	00 00                	add    BYTE PTR [eax],al
  1090cb:	00 00                	add    BYTE PTR [eax],al
  1090cd:	00 f1                	add    cl,dh
  1090cf:	ff 36                	push   DWORD PTR [esi]
  1090d1:	00 00                	add    BYTE PTR [eax],al
  1090d3:	00 00                	add    BYTE PTR [eax],al
  1090d5:	90                   	nop
  1090d6:	10 00                	adc    BYTE PTR [eax],al
  1090d8:	00 00                	add    BYTE PTR [eax],al
  1090da:	00 00                	add    BYTE PTR [eax],al
  1090dc:	00 00                	add    BYTE PTR [eax],al
  1090de:	04 00                	add    al,0x0
  1090e0:	41                   	inc    ecx
  1090e1:	05 00 00 00 90       	add    eax,0x90000000
  1090e6:	11 00                	adc    DWORD PTR [eax],eax
  1090e8:	00 00                	add    BYTE PTR [eax],al
  1090ea:	00 00                	add    BYTE PTR [eax],al
  1090ec:	00 00                	add    BYTE PTR [eax],al
  1090ee:	04 00                	add    al,0x0
  1090f0:	43                   	inc    ebx
  1090f1:	00 00                	add    BYTE PTR [eax],al
  1090f3:	00 68 00             	add    BYTE PTR [eax+0x0],ch
  1090f6:	10 00                	adc    BYTE PTR [eax],al
  1090f8:	00 00                	add    BYTE PTR [eax],al
  1090fa:	00 00                	add    BYTE PTR [eax],al
  1090fc:	00 00                	add    BYTE PTR [eax],al
  1090fe:	01 00                	add    DWORD PTR [eax],eax
  109100:	52                   	push   edx
  109101:	00 00                	add    BYTE PTR [eax],al
  109103:	00 83 00 10 00 00    	add    BYTE PTR [ebx+0x1000],al
  109109:	00 00                	add    BYTE PTR [eax],al
  10910b:	00 00                	add    BYTE PTR [eax],al
  10910d:	00 01                	add    BYTE PTR [ecx],al
  10910f:	00 65 00             	add    BYTE PTR [ebp+0x0],ah
  109112:	00 00                	add    BYTE PTR [eax],al
  109114:	b0 00                	mov    al,0x0
  109116:	10 00                	adc    BYTE PTR [eax],al
  109118:	00 00                	add    BYTE PTR [eax],al
  10911a:	00 00                	add    BYTE PTR [eax],al
  10911c:	00 00                	add    BYTE PTR [eax],al
  10911e:	01 00                	add    DWORD PTR [eax],eax
  109120:	76 00                	jbe    0x109122
	...
  10912a:	00 00                	add    BYTE PTR [eax],al
  10912c:	04 00                	add    al,0x0
  10912e:	f1                   	int1
  10912f:	ff                   	(bad)
  109130:	7f 00                	jg     0x109132
	...
  10913a:	00 00                	add    BYTE PTR [eax],al
  10913c:	04 00                	add    al,0x0
  10913e:	f1                   	int1
  10913f:	ff 85 00 00 00 14    	inc    DWORD PTR [ebp+0x14000000]
  109145:	80 10 00             	adc    BYTE PTR [eax],0x0
  109148:	04 00                	add    al,0x0
  10914a:	00 00                	add    BYTE PTR [eax],al
  10914c:	01 00                	add    DWORD PTR [eax],eax
  10914e:	03 00                	add    eax,DWORD PTR [eax]
  109150:	89 00                	mov    DWORD PTR [eax],eax
  109152:	00 00                	add    BYTE PTR [eax],al
  109154:	08 90 11 00 04 00    	or     BYTE PTR [eax+0x40011],dl
  10915a:	00 00                	add    BYTE PTR [eax],al
  10915c:	01 00                	add    DWORD PTR [eax],eax
  10915e:	04 00                	add    al,0x0
  109160:	8f 00                	pop    DWORD PTR [eax]
  109162:	00 00                	add    BYTE PTR [eax],al
  109164:	0c 90                	or     al,0x90
  109166:	11 00                	adc    DWORD PTR [eax],eax
  109168:	04 00                	add    al,0x0
  10916a:	00 00                	add    BYTE PTR [eax],al
  10916c:	01 00                	add    DWORD PTR [eax],eax
  10916e:	04 00                	add    al,0x0
  109170:	95                   	xchg   ebp,eax
  109171:	00 00                	add    BYTE PTR [eax],al
  109173:	00 18                	add    BYTE PTR [eax],bl
  109175:	80 10 00             	adc    BYTE PTR [eax],0x0
  109178:	01 00                	add    DWORD PTR [eax],eax
  10917a:	00 00                	add    BYTE PTR [eax],al
  10917c:	01 00                	add    DWORD PTR [eax],eax
  10917e:	03 00                	add    eax,DWORD PTR [eax]
  109180:	a6                   	cmps   BYTE PTR ds:[esi],BYTE PTR es:[edi]
	...
  109189:	00 00                	add    BYTE PTR [eax],al
  10918b:	00 04 00             	add    BYTE PTR [eax+eax*1],al
  10918e:	f1                   	int1
  10918f:	ff b1 00 00 00 1c    	push   DWORD PTR [ecx+0x1c000000]
  109195:	80 10 00             	adc    BYTE PTR [eax],0x0
  109198:	04 00                	add    al,0x0
  10919a:	00 00                	add    BYTE PTR [eax],al
  10919c:	01 00                	add    DWORD PTR [eax],eax
  10919e:	03 00                	add    eax,DWORD PTR [eax]
  1091a0:	bb 00 00 00 49       	mov    ebx,0x49000000
  1091a5:	0a 10                	or     dl,BYTE PTR [eax]
  1091a7:	00 1f                	add    BYTE PTR [edi],bl
  1091a9:	00 00                	add    BYTE PTR [eax],al
  1091ab:	00 02                	add    BYTE PTR [edx],al
  1091ad:	00 01                	add    BYTE PTR [ecx],al
  1091af:	00 c0                	add    al,al
  1091b1:	00 00                	add    BYTE PTR [eax],al
  1091b3:	00 68 0a             	add    BYTE PTR [eax+0xa],ch
  1091b6:	10 00                	adc    BYTE PTR [eax],al
  1091b8:	1d 00 00 00 02       	sbb    eax,0x2000000
  1091bd:	00 01                	add    BYTE PTR [ecx],al
  1091bf:	00 c4                	add    ah,al
	...
  1091c9:	00 00                	add    BYTE PTR [eax],al
  1091cb:	00 04 00             	add    BYTE PTR [eax+eax*1],al
  1091ce:	f1                   	int1
  1091cf:	ff ca                	dec    edx
  1091d1:	00 00                	add    BYTE PTR [eax],al
  1091d3:	00 10                	add    BYTE PTR [eax],dl
  1091d5:	90                   	nop
  1091d6:	11 00                	adc    DWORD PTR [eax],eax
  1091d8:	04 00                	add    al,0x0
  1091da:	00 00                	add    BYTE PTR [eax],al
  1091dc:	01 00                	add    DWORD PTR [eax],eax
  1091de:	04 00                	add    al,0x0
  1091e0:	d6                   	(bad)
  1091e1:	00 00                	add    BYTE PTR [eax],al
  1091e3:	00 14 90             	add    BYTE PTR [eax+edx*4],dl
  1091e6:	11 00                	adc    DWORD PTR [eax],eax
  1091e8:	04 00                	add    al,0x0
  1091ea:	00 00                	add    BYTE PTR [eax],al
  1091ec:	01 00                	add    DWORD PTR [eax],eax
  1091ee:	04 00                	add    al,0x0
  1091f0:	e3 00                	jecxz  0x1091f2
  1091f2:	00 00                	add    BYTE PTR [eax],al
  1091f4:	18 90 11 00 04 00    	sbb    BYTE PTR [eax+0x40011],dl
  1091fa:	00 00                	add    BYTE PTR [eax],al
  1091fc:	01 00                	add    DWORD PTR [eax],eax
  1091fe:	04 00                	add    al,0x0
  109200:	f1                   	int1
  109201:	00 00                	add    BYTE PTR [eax],al
  109203:	00 1c 90             	add    BYTE PTR [eax+edx*4],bl
  109206:	11 00                	adc    DWORD PTR [eax],eax
  109208:	04 00                	add    al,0x0
  10920a:	00 00                	add    BYTE PTR [eax],al
  10920c:	01 00                	add    DWORD PTR [eax],eax
  10920e:	04 00                	add    al,0x0
  109210:	fe 00                	inc    BYTE PTR [eax]
  109212:	00 00                	add    BYTE PTR [eax],al
  109214:	20 90 11 00 04 00    	and    BYTE PTR [eax+0x40011],dl
  10921a:	00 00                	add    BYTE PTR [eax],al
  10921c:	01 00                	add    DWORD PTR [eax],eax
  10921e:	04 00                	add    al,0x0
  109220:	0d 01 00 00 24       	or     eax,0x24000001
  109225:	90                   	nop
  109226:	11 00                	adc    DWORD PTR [eax],eax
  109228:	04 00                	add    al,0x0
  10922a:	00 00                	add    BYTE PTR [eax],al
  10922c:	01 00                	add    DWORD PTR [eax],eax
  10922e:	04 00                	add    al,0x0
  109230:	16                   	push   ss
  109231:	01 00                	add    DWORD PTR [eax],eax
  109233:	00 28                	add    BYTE PTR [eax],ch
  109235:	90                   	nop
  109236:	11 00                	adc    DWORD PTR [eax],eax
  109238:	04 00                	add    al,0x0
  10923a:	00 00                	add    BYTE PTR [eax],al
  10923c:	01 00                	add    DWORD PTR [eax],eax
  10923e:	04 00                	add    al,0x0
  109240:	1f                   	pop    ds
  109241:	01 00                	add    DWORD PTR [eax],eax
  109243:	00 40 58             	add    BYTE PTR [eax+0x58],al
  109246:	10 00                	adc    BYTE PTR [eax],al
  109248:	00 08                	add    BYTE PTR [eax],cl
  10924a:	00 00                	add    BYTE PTR [eax],al
  10924c:	01 00                	add    DWORD PTR [eax],eax
  10924e:	02 00                	add    al,BYTE PTR [eax]
  109250:	bb 00 00 00 36       	mov    ebx,0x36000000
  109255:	0e                   	push   cs
  109256:	10 00                	adc    BYTE PTR [eax],al
  109258:	1f                   	pop    ds
  109259:	00 00                	add    BYTE PTR [eax],al
  10925b:	00 02                	add    BYTE PTR [edx],al
  10925d:	00 01                	add    BYTE PTR [ecx],al
  10925f:	00 c0                	add    al,al
  109261:	00 00                	add    BYTE PTR [eax],al
  109263:	00 55 0e             	add    BYTE PTR [ebp+0xe],dl
  109266:	10 00                	adc    BYTE PTR [eax],al
  109268:	1d 00 00 00 02       	sbb    eax,0x2000000
  10926d:	00 01                	add    BYTE PTR [ecx],al
  10926f:	00 29                	add    BYTE PTR [ecx],ch
  109271:	01 00                	add    DWORD PTR [eax],eax
	...
  10927b:	00 04 00             	add    BYTE PTR [eax+eax*1],al
  10927e:	f1                   	int1
  10927f:	ff ca                	dec    edx
  109281:	00 00                	add    BYTE PTR [eax],al
  109283:	00 2c 90             	add    BYTE PTR [eax+edx*4],ch
  109286:	11 00                	adc    DWORD PTR [eax],eax
  109288:	04 00                	add    al,0x0
  10928a:	00 00                	add    BYTE PTR [eax],al
  10928c:	01 00                	add    DWORD PTR [eax],eax
  10928e:	04 00                	add    al,0x0
  109290:	d6                   	(bad)
  109291:	00 00                	add    BYTE PTR [eax],al
  109293:	00 30                	add    BYTE PTR [eax],dh
  109295:	90                   	nop
  109296:	11 00                	adc    DWORD PTR [eax],eax
  109298:	02 00                	add    al,BYTE PTR [eax]
  10929a:	00 00                	add    BYTE PTR [eax],al
  10929c:	01 00                	add    DWORD PTR [eax],eax
  10929e:	04 00                	add    al,0x0
  1092a0:	e3 00                	jecxz  0x1092a2
  1092a2:	00 00                	add    BYTE PTR [eax],al
  1092a4:	32 90 11 00 02 00    	xor    dl,BYTE PTR [eax+0x20011]
  1092aa:	00 00                	add    BYTE PTR [eax],al
  1092ac:	01 00                	add    DWORD PTR [eax],eax
  1092ae:	04 00                	add    al,0x0
  1092b0:	2f                   	das
  1092b1:	01 00                	add    DWORD PTR [eax],eax
  1092b3:	00 34 90             	add    BYTE PTR [eax+edx*4],dh
  1092b6:	11 00                	adc    DWORD PTR [eax],eax
  1092b8:	02 00                	add    al,BYTE PTR [eax]
  1092ba:	00 00                	add    BYTE PTR [eax],al
  1092bc:	01 00                	add    DWORD PTR [eax],eax
  1092be:	04 00                	add    al,0x0
  1092c0:	0d 01 00 00 38       	or     eax,0x38000001
  1092c5:	90                   	nop
  1092c6:	11 00                	adc    DWORD PTR [eax],eax
  1092c8:	04 00                	add    al,0x0
  1092ca:	00 00                	add    BYTE PTR [eax],al
  1092cc:	01 00                	add    DWORD PTR [eax],eax
  1092ce:	04 00                	add    al,0x0
  1092d0:	16                   	push   ss
  1092d1:	01 00                	add    DWORD PTR [eax],eax
  1092d3:	00 3c 90             	add    BYTE PTR [eax+edx*4],bh
  1092d6:	11 00                	adc    DWORD PTR [eax],eax
  1092d8:	04 00                	add    al,0x0
  1092da:	00 00                	add    BYTE PTR [eax],al
  1092dc:	01 00                	add    DWORD PTR [eax],eax
  1092de:	04 00                	add    al,0x0
  1092e0:	1f                   	pop    ds
  1092e1:	01 00                	add    DWORD PTR [eax],eax
  1092e3:	00 40 60             	add    BYTE PTR [eax+0x60],al
  1092e6:	10 00                	adc    BYTE PTR [eax],al
  1092e8:	00 08                	add    BYTE PTR [eax],cl
  1092ea:	00 00                	add    BYTE PTR [eax],al
  1092ec:	01 00                	add    DWORD PTR [eax],eax
  1092ee:	02 00                	add    al,BYTE PTR [eax]
  1092f0:	3a 01                	cmp    al,BYTE PTR [ecx]
  1092f2:	00 00                	add    BYTE PTR [eax],al
  1092f4:	62 13                	bound  edx,QWORD PTR [ebx]
  1092f6:	10 00                	adc    BYTE PTR [eax],al
  1092f8:	21 00                	and    DWORD PTR [eax],eax
  1092fa:	00 00                	add    BYTE PTR [eax],al
  1092fc:	02 00                	add    al,BYTE PTR [eax]
  1092fe:	01 00                	add    DWORD PTR [eax],eax
  109300:	3f                   	aas
  109301:	01 00                	add    DWORD PTR [eax],eax
  109303:	00 83 13 10 00 1f    	add    BYTE PTR [ebx+0x1f001013],al
  109309:	00 00                	add    BYTE PTR [eax],al
  10930b:	00 02                	add    BYTE PTR [edx],al
  10930d:	00 01                	add    BYTE PTR [ecx],al
  10930f:	00 43 01             	add    BYTE PTR [ebx+0x1],al
  109312:	00 00                	add    BYTE PTR [eax],al
  109314:	a2 13 10 00 18       	mov    ds:0x18001013,al
  109319:	00 00                	add    BYTE PTR [eax],al
  10931b:	00 02                	add    BYTE PTR [edx],al
  10931d:	00 01                	add    BYTE PTR [ecx],al
  10931f:	00 48 01             	add    BYTE PTR [eax+0x1],cl
  109322:	00 00                	add    BYTE PTR [eax],al
  109324:	ba 13 10 00 1c       	mov    edx,0x1c001013
  109329:	00 00                	add    BYTE PTR [eax],al
  10932b:	00 02                	add    BYTE PTR [edx],al
  10932d:	00 01                	add    BYTE PTR [ecx],al
  10932f:	00 4c 01 00          	add    BYTE PTR [ecx+eax*1+0x0],cl
  109333:	00 d4                	add    ah,dl
  109335:	14 10                	adc    al,0x10
  109337:	00 6f 00             	add    BYTE PTR [edi+0x0],ch
  10933a:	00 00                	add    BYTE PTR [eax],al
  10933c:	02 00                	add    al,BYTE PTR [eax]
  10933e:	01 00                	add    DWORD PTR [eax],eax
  109340:	5c                   	pop    esp
  109341:	01 00                	add    DWORD PTR [eax],eax
  109343:	00 6a 17             	add    BYTE PTR [edx+0x17],ch
  109346:	10 00                	adc    BYTE PTR [eax],al
  109348:	9f                   	lahf
  109349:	00 00                	add    BYTE PTR [eax],al
  10934b:	00 02                	add    BYTE PTR [edx],al
  10934d:	00 01                	add    BYTE PTR [ecx],al
  10934f:	00 68 01             	add    BYTE PTR [eax+0x1],ch
	...
  10935a:	00 00                	add    BYTE PTR [eax],al
  10935c:	04 00                	add    al,0x0
  10935e:	f1                   	int1
  10935f:	ff 70 01             	push   DWORD PTR [eax+0x1]
  109362:	00 00                	add    BYTE PTR [eax],al
  109364:	50                   	push   eax
  109365:	90                   	nop
  109366:	11 00                	adc    DWORD PTR [eax],eax
  109368:	03 00                	add    eax,DWORD PTR [eax]
  10936a:	00 00                	add    BYTE PTR [eax],al
  10936c:	01 00                	add    DWORD PTR [eax],eax
  10936e:	04 00                	add    al,0x0
  109370:	77 01                	ja     0x109373
  109372:	00 00                	add    BYTE PTR [eax],al
  109374:	54                   	push   esp
  109375:	90                   	nop
  109376:	11 00                	adc    DWORD PTR [eax],eax
  109378:	04 00                	add    al,0x0
  10937a:	00 00                	add    BYTE PTR [eax],al
  10937c:	01 00                	add    DWORD PTR [eax],eax
  10937e:	04 00                	add    al,0x0
  109380:	83 01 00             	add    DWORD PTR [ecx],0x0
  109383:	00 58 90             	add    BYTE PTR [eax-0x70],bl
  109386:	11 00                	adc    DWORD PTR [eax],eax
  109388:	04 00                	add    al,0x0
  10938a:	00 00                	add    BYTE PTR [eax],al
  10938c:	01 00                	add    DWORD PTR [eax],eax
  10938e:	04 00                	add    al,0x0
  109390:	c0 00 00             	rol    BYTE PTR [eax],0x0
  109393:	00 9c 1d 10 00 1d 00 	add    BYTE PTR [ebp+ebx*1+0x1d0010],bl
  10939a:	00 00                	add    BYTE PTR [eax],al
  10939c:	02 00                	add    al,BYTE PTR [eax]
  10939e:	01 00                	add    DWORD PTR [eax],eax
  1093a0:	bb 00 00 00 b9       	mov    ebx,0xb9000000
  1093a5:	1d 10 00 1f 00       	sbb    eax,0x1f0010
  1093aa:	00 00                	add    BYTE PTR [eax],al
  1093ac:	02 00                	add    al,BYTE PTR [eax]
  1093ae:	01 00                	add    DWORD PTR [eax],eax
  1093b0:	8f 01                	pop    DWORD PTR [ecx]
  1093b2:	00 00                	add    BYTE PTR [eax],al
  1093b4:	d8 1d 10 00 3c 00    	fcomp  DWORD PTR ds:0x3c0010
  1093ba:	00 00                	add    BYTE PTR [eax],al
  1093bc:	02 00                	add    al,BYTE PTR [eax]
  1093be:	01 00                	add    DWORD PTR [eax],eax
  1093c0:	9b                   	fwait
  1093c1:	01 00                	add    DWORD PTR [eax],eax
  1093c3:	00 14 1e             	add    BYTE PTR [esi+ebx*1],dl
  1093c6:	10 00                	adc    BYTE PTR [eax],al
  1093c8:	3f                   	aas
  1093c9:	00 00                	add    BYTE PTR [eax],al
  1093cb:	00 02                	add    BYTE PTR [edx],al
  1093cd:	00 01                	add    BYTE PTR [ecx],al
  1093cf:	00 a8 01 00 00 53    	add    BYTE PTR [eax+0x53000001],ch
  1093d5:	1e                   	push   ds
  1093d6:	10 00                	adc    BYTE PTR [eax],al
  1093d8:	62 00                	bound  eax,QWORD PTR [eax]
  1093da:	00 00                	add    BYTE PTR [eax],al
  1093dc:	02 00                	add    al,BYTE PTR [eax]
  1093de:	01 00                	add    DWORD PTR [eax],eax
  1093e0:	b3 01                	mov    bl,0x1
  1093e2:	00 00                	add    BYTE PTR [eax],al
  1093e4:	b5 1e                	mov    ch,0x1e
  1093e6:	10 00                	adc    BYTE PTR [eax],al
  1093e8:	35 00 00 00 02       	xor    eax,0x2000000
  1093ed:	00 01                	add    BYTE PTR [ecx],al
  1093ef:	00 cb                	add    bl,cl
  1093f1:	01 00                	add    DWORD PTR [eax],eax
  1093f3:	00 ea                	add    dl,ch
  1093f5:	1e                   	push   ds
  1093f6:	10 00                	adc    BYTE PTR [eax],al
  1093f8:	35 00 00 00 02       	xor    eax,0x2000000
  1093fd:	00 01                	add    BYTE PTR [ecx],al
  1093ff:	00 e3                	add    bl,ah
  109401:	01 00                	add    DWORD PTR [eax],eax
	...
  10940b:	00 04 00             	add    BYTE PTR [eax+eax*1],al
  10940e:	f1                   	int1
  10940f:	ff 43 01             	inc    DWORD PTR [ebx+0x1]
  109412:	00 00                	add    BYTE PTR [eax],al
  109414:	db 27                	(bad)  [edi]
  109416:	10 00                	adc    BYTE PTR [eax],al
  109418:	18 00                	sbb    BYTE PTR [eax],al
  10941a:	00 00                	add    BYTE PTR [eax],al
  10941c:	02 00                	add    al,BYTE PTR [eax]
  10941e:	01 00                	add    DWORD PTR [eax],eax
  109420:	48                   	dec    eax
  109421:	01 00                	add    DWORD PTR [eax],eax
  109423:	00 f3                	add    bl,dh
  109425:	27                   	daa
  109426:	10 00                	adc    BYTE PTR [eax],al
  109428:	1c 00                	sbb    al,0x0
  10942a:	00 00                	add    BYTE PTR [eax],al
  10942c:	02 00                	add    al,BYTE PTR [eax]
  10942e:	01 00                	add    DWORD PTR [eax],eax
  109430:	e9 01 00 00 0f       	jmp    0xf109436
  109435:	28 10                	sub    BYTE PTR [eax],dl
  109437:	00 4f 00             	add    BYTE PTR [edi+0x0],cl
  10943a:	00 00                	add    BYTE PTR [eax],al
  10943c:	02 00                	add    al,BYTE PTR [eax]
  10943e:	01 00                	add    DWORD PTR [eax],eax
  109440:	fc                   	cld
  109441:	01 00                	add    DWORD PTR [eax],eax
	...
  10944b:	00 04 00             	add    BYTE PTR [eax+eax*1],al
  10944e:	f1                   	int1
  10944f:	ff                   	(bad)
  109450:	3a 01                	cmp    al,BYTE PTR [ecx]
  109452:	00 00                	add    BYTE PTR [eax],al
  109454:	67 2b 10             	sub    edx,DWORD PTR [bx+si]
  109457:	00 21                	add    BYTE PTR [ecx],ah
  109459:	00 00                	add    BYTE PTR [eax],al
  10945b:	00 02                	add    BYTE PTR [edx],al
  10945d:	00 01                	add    BYTE PTR [ecx],al
  10945f:	00 3f                	add    BYTE PTR [edi],bh
  109461:	01 00                	add    DWORD PTR [eax],eax
  109463:	00 88 2b 10 00 1f    	add    BYTE PTR [eax+0x1f00102b],cl
  109469:	00 00                	add    BYTE PTR [eax],al
  10946b:	00 02                	add    BYTE PTR [edx],al
  10946d:	00 01                	add    BYTE PTR [ecx],al
  10946f:	00 02                	add    BYTE PTR [edx],al
  109471:	02 00                	add    al,BYTE PTR [eax]
  109473:	00 5c 90 11          	add    BYTE PTR [eax+edx*4+0x11],bl
  109477:	00 18                	add    BYTE PTR [eax],bl
  109479:	00 00                	add    BYTE PTR [eax],al
  10947b:	00 01                	add    BYTE PTR [ecx],al
  10947d:	00 04 00             	add    BYTE PTR [eax+eax*1],al
  109480:	0e                   	push   cs
  109481:	02 00                	add    al,BYTE PTR [eax]
  109483:	00 74 90 11          	add    BYTE PTR [eax+edx*4+0x11],dh
  109487:	00 0c 00             	add    BYTE PTR [eax+eax*1],cl
  10948a:	00 00                	add    BYTE PTR [eax],al
  10948c:	01 00                	add    DWORD PTR [eax],eax
  10948e:	04 00                	add    al,0x0
  109490:	1e                   	push   ds
  109491:	02 00                	add    al,BYTE PTR [eax]
  109493:	00 80 90 11 00 04    	add    BYTE PTR [eax+0x4001190],al
  109499:	00 00                	add    BYTE PTR [eax],al
  10949b:	00 01                	add    BYTE PTR [ecx],al
  10949d:	00 04 00             	add    BYTE PTR [eax+eax*1],al
  1094a0:	2d 02 00 00 84       	sub    eax,0x84000002
  1094a5:	90                   	nop
  1094a6:	11 00                	adc    DWORD PTR [eax],eax
  1094a8:	01 00                	add    DWORD PTR [eax],eax
  1094aa:	00 00                	add    BYTE PTR [eax],al
  1094ac:	01 00                	add    DWORD PTR [eax],eax
  1094ae:	04 00                	add    al,0x0
  1094b0:	3f                   	aas
  1094b1:	02 00                	add    al,BYTE PTR [eax]
  1094b3:	00 20                	add    BYTE PTR [eax],ah
  1094b5:	80 10 00             	adc    BYTE PTR [eax],0x0
  1094b8:	04 00                	add    al,0x0
  1094ba:	00 00                	add    BYTE PTR [eax],al
  1094bc:	01 00                	add    DWORD PTR [eax],eax
  1094be:	03 00                	add    eax,DWORD PTR [eax]
  1094c0:	48                   	dec    eax
  1094c1:	02 00                	add    al,BYTE PTR [eax]
  1094c3:	00 24 80             	add    BYTE PTR [eax+eax*4],ah
  1094c6:	10 00                	adc    BYTE PTR [eax],al
  1094c8:	04 00                	add    al,0x0
  1094ca:	00 00                	add    BYTE PTR [eax],al
  1094cc:	01 00                	add    DWORD PTR [eax],eax
  1094ce:	03 00                	add    eax,DWORD PTR [eax]
  1094d0:	51                   	push   ecx
  1094d1:	02 00                	add    al,BYTE PTR [eax]
  1094d3:	00 85 90 11 00 01    	add    BYTE PTR [ebp+0x1001190],al
  1094d9:	00 00                	add    BYTE PTR [eax],al
  1094db:	00 01                	add    BYTE PTR [ecx],al
  1094dd:	00 04 00             	add    BYTE PTR [eax+eax*1],al
  1094e0:	60                   	pusha
  1094e1:	02 00                	add    al,BYTE PTR [eax]
  1094e3:	00 a7 2b 10 00 4c    	add    BYTE PTR [edi+0x4c00102b],ah
  1094e9:	01 00                	add    DWORD PTR [eax],eax
  1094eb:	00 02                	add    BYTE PTR [edx],al
  1094ed:	00 01                	add    BYTE PTR [ecx],al
  1094ef:	00 75 02             	add    BYTE PTR [ebp+0x2],dh
  1094f2:	00 00                	add    BYTE PTR [eax],al
  1094f4:	f3 2c 10             	repz sub al,0x10
  1094f7:	00 e2                	add    dl,ah
  1094f9:	00 00                	add    BYTE PTR [eax],al
  1094fb:	00 02                	add    BYTE PTR [edx],al
  1094fd:	00 01                	add    BYTE PTR [ecx],al
  1094ff:	00 8b 02 00 00 d5    	add    BYTE PTR [ebx-0x2afffffe],cl
  109505:	2d 10 00 cc 01       	sub    eax,0x1cc0010
  10950a:	00 00                	add    BYTE PTR [eax],al
  10950c:	02 00                	add    al,BYTE PTR [eax]
  10950e:	01 00                	add    DWORD PTR [eax],eax
  109510:	9b                   	fwait
  109511:	02 00                	add    al,BYTE PTR [eax]
	...
  10951b:	00 04 00             	add    BYTE PTR [eax+eax*1],al
  10951e:	f1                   	int1
  10951f:	ff a1 02 00 00 a0    	jmp    DWORD PTR [ecx-0x5ffffffe]
  109525:	90                   	nop
  109526:	11 00                	adc    DWORD PTR [eax],eax
  109528:	30 00                	xor    BYTE PTR [eax],al
  10952a:	00 00                	add    BYTE PTR [eax],al
  10952c:	01 00                	add    DWORD PTR [eax],eax
  10952e:	04 00                	add    al,0x0
  109530:	a5                   	movs   DWORD PTR es:[edi],DWORD PTR ds:[esi]
  109531:	02 00                	add    al,BYTE PTR [eax]
  109533:	00 d0                	add    al,dl
  109535:	90                   	nop
  109536:	11 00                	adc    DWORD PTR [eax],eax
  109538:	06                   	push   es
  109539:	00 00                	add    BYTE PTR [eax],al
  10953b:	00 01                	add    BYTE PTR [ecx],al
  10953d:	00 04 00             	add    BYTE PTR [eax+eax*1],al
  109540:	b1 02                	mov    cl,0x2
  109542:	00 00                	add    BYTE PTR [eax],al
  109544:	e0 90                	loopne 0x1094d6
  109546:	11 00                	adc    DWORD PTR [eax],eax
  109548:	68 00 00 00 01       	push   0x1000000
  10954d:	00 04 00             	add    BYTE PTR [eax+eax*1],al
  109550:	b5 02                	mov    ch,0x2
  109552:	00 00                	add    BYTE PTR [eax],al
  109554:	03 32                	add    esi,DWORD PTR [edx]
  109556:	10 00                	adc    BYTE PTR [eax],al
  109558:	00 00                	add    BYTE PTR [eax],al
  10955a:	00 00                	add    BYTE PTR [eax],al
  10955c:	00 00                	add    BYTE PTR [eax],al
  10955e:	01 00                	add    DWORD PTR [eax],eax
  109560:	bf 02 00 00 00       	mov    edi,0x2
  109565:	00 00                	add    BYTE PTR [eax],al
  109567:	00 00                	add    BYTE PTR [eax],al
  109569:	00 00                	add    BYTE PTR [eax],al
  10956b:	00 04 00             	add    BYTE PTR [eax+eax*1],al
  10956e:	f1                   	int1
  10956f:	ff c5                	inc    ebp
  109571:	02 00                	add    al,BYTE PTR [eax]
  109573:	00 60 91             	add    BYTE PTR [eax-0x6f],ah
  109576:	11 00                	adc    DWORD PTR [eax],eax
  109578:	00 08                	add    BYTE PTR [eax],cl
  10957a:	00 00                	add    BYTE PTR [eax],al
  10957c:	01 00                	add    DWORD PTR [eax],eax
  10957e:	04 00                	add    al,0x0
  109580:	c9                   	leave
  109581:	02 00                	add    al,BYTE PTR [eax]
  109583:	00 60 99             	add    BYTE PTR [eax-0x67],ah
  109586:	11 00                	adc    DWORD PTR [eax],eax
  109588:	06                   	push   es
  109589:	00 00                	add    BYTE PTR [eax],al
  10958b:	00 01                	add    BYTE PTR [ecx],al
  10958d:	00 04 00             	add    BYTE PTR [eax+eax*1],al
  109590:	d5 02                	aad    0x2
	...
  10959a:	00 00                	add    BYTE PTR [eax],al
  10959c:	04 00                	add    al,0x0
  10959e:	f1                   	int1
  10959f:	ff e7                	jmp    edi
  1095a1:	02 00                	add    al,BYTE PTR [eax]
  1095a3:	00 10                	add    BYTE PTR [eax],dl
  1095a5:	35 10 00 00 00       	xor    eax,0x10
  1095aa:	00 00                	add    BYTE PTR [eax],al
  1095ac:	00 00                	add    BYTE PTR [eax],al
  1095ae:	01 00                	add    DWORD PTR [eax],eax
  1095b0:	f8                   	clc
  1095b1:	02 00                	add    al,BYTE PTR [eax]
	...
  1095bb:	00 04 00             	add    BYTE PTR [eax+eax*1],al
  1095be:	f1                   	int1
  1095bf:	ff 0c 03             	dec    DWORD PTR [ebx+eax*1]
  1095c2:	00 00                	add    BYTE PTR [eax],al
  1095c4:	fa                   	cli
  1095c5:	35 10 00 7c 00       	xor    eax,0x7c0010
  1095ca:	00 00                	add    BYTE PTR [eax],al
  1095cc:	02 00                	add    al,BYTE PTR [eax]
  1095ce:	01 00                	add    DWORD PTR [eax],eax
  1095d0:	16                   	push   ss
  1095d1:	03 00                	add    eax,DWORD PTR [eax]
  1095d3:	00 76 36             	add    BYTE PTR [esi+0x36],dh
  1095d6:	10 00                	adc    BYTE PTR [eax],al
  1095d8:	82 00 00             	add    BYTE PTR [eax],0x0
  1095db:	00 02                	add    BYTE PTR [edx],al
  1095dd:	00 01                	add    BYTE PTR [ecx],al
  1095df:	00 23                	add    BYTE PTR [ebx],ah
  1095e1:	03 00                	add    eax,DWORD PTR [eax]
  1095e3:	00 f8                	add    al,bh
  1095e5:	36 10 00             	adc    BYTE PTR ss:[eax],al
  1095e8:	bf 00 00 00 02       	mov    edi,0x2000000
  1095ed:	00 01                	add    BYTE PTR [ecx],al
  1095ef:	00 36                	add    BYTE PTR [esi],dh
  1095f1:	03 00                	add    eax,DWORD PTR [eax]
  1095f3:	00 b7 37 10 00 4c    	add    BYTE PTR [edi+0x4c001037],dh
  1095f9:	00 00                	add    BYTE PTR [eax],al
  1095fb:	00 02                	add    BYTE PTR [edx],al
  1095fd:	00 01                	add    BYTE PTR [ecx],al
  1095ff:	00 50 03             	add    BYTE PTR [eax+0x3],dl
  109602:	00 00                	add    BYTE PTR [eax],al
  109604:	03 38                	add    edi,DWORD PTR [eax]
  109606:	10 00                	adc    BYTE PTR [eax],al
  109608:	90                   	nop
  109609:	00 00                	add    BYTE PTR [eax],al
  10960b:	00 02                	add    BYTE PTR [edx],al
  10960d:	00 01                	add    BYTE PTR [ecx],al
  10960f:	00 66 03             	add    BYTE PTR [esi+0x3],ah
  109612:	00 00                	add    BYTE PTR [eax],al
  109614:	93                   	xchg   ebx,eax
  109615:	38 10                	cmp    BYTE PTR [eax],dl
  109617:	00 fa                	add    dl,bh
  109619:	04 00                	add    al,0x0
  10961b:	00 02                	add    BYTE PTR [edx],al
  10961d:	00 01                	add    BYTE PTR [ecx],al
  10961f:	00 7e 03             	add    BYTE PTR [esi+0x3],bh
	...
  10962a:	00 00                	add    BYTE PTR [eax],al
  10962c:	04 00                	add    al,0x0
  10962e:	f1                   	int1
  10962f:	ff c0                	inc    eax
  109631:	00 00                	add    BYTE PTR [eax],al
  109633:	00 d5                	add    ch,dl
  109635:	3d 10 00 1d 00       	cmp    eax,0x1d0010
  10963a:	00 00                	add    BYTE PTR [eax],al
  10963c:	02 00                	add    al,BYTE PTR [eax]
  10963e:	01 00                	add    DWORD PTR [eax],eax
  109640:	bb 00 00 00 f2       	mov    ebx,0xf2000000
  109645:	3d 10 00 1f 00       	cmp    eax,0x1f0010
  10964a:	00 00                	add    BYTE PTR [eax],al
  10964c:	02 00                	add    al,BYTE PTR [eax]
  10964e:	01 00                	add    DWORD PTR [eax],eax
  109650:	8f 01                	pop    DWORD PTR [ecx]
  109652:	00 00                	add    BYTE PTR [eax],al
  109654:	11 3e                	adc    DWORD PTR [esi],edi
  109656:	10 00                	adc    BYTE PTR [eax],al
  109658:	3c 00                	cmp    al,0x0
  10965a:	00 00                	add    BYTE PTR [eax],al
  10965c:	02 00                	add    al,BYTE PTR [eax]
  10965e:	01 00                	add    DWORD PTR [eax],eax
  109660:	9b                   	fwait
  109661:	01 00                	add    DWORD PTR [eax],eax
  109663:	00 4d 3e             	add    BYTE PTR [ebp+0x3e],cl
  109666:	10 00                	adc    BYTE PTR [eax],al
  109668:	3f                   	aas
  109669:	00 00                	add    BYTE PTR [eax],al
  10966b:	00 02                	add    BYTE PTR [edx],al
  10966d:	00 01                	add    BYTE PTR [ecx],al
  10966f:	00 86 03 00 00 00    	add    BYTE PTR [esi+0x3],al
  109675:	00 00                	add    BYTE PTR [eax],al
  109677:	00 00                	add    BYTE PTR [eax],al
  109679:	00 00                	add    BYTE PTR [eax],al
  10967b:	00 04 00             	add    BYTE PTR [eax+eax*1],al
  10967e:	f1                   	int1
  10967f:	ff 98 03 00 00 c4    	call   FWORD PTR [eax-0x3bfffffd]
  109685:	3e 10 00             	adc    BYTE PTR ds:[eax],al
  109688:	1f                   	pop    ds
  109689:	00 00                	add    BYTE PTR [eax],al
  10968b:	00 02                	add    BYTE PTR [edx],al
  10968d:	00 01                	add    BYTE PTR [ecx],al
  10968f:	00 a7 03 00 00 e3    	add    BYTE PTR [edi-0x1cfffffd],ah
  109695:	3e 10 00             	adc    BYTE PTR ds:[eax],al
  109698:	67 00 00             	add    BYTE PTR [bx+si],al
  10969b:	00 02                	add    BYTE PTR [edx],al
  10969d:	00 01                	add    BYTE PTR [ecx],al
  10969f:	00 b3 03 00 00 4a    	add    BYTE PTR [ebx+0x4a000003],dh
  1096a5:	3f                   	aas
  1096a6:	10 00                	adc    BYTE PTR [eax],al
  1096a8:	17                   	pop    ss
  1096a9:	00 00                	add    BYTE PTR [eax],al
  1096ab:	00 02                	add    BYTE PTR [edx],al
  1096ad:	00 01                	add    BYTE PTR [ecx],al
  1096af:	00 c1                	add    cl,al
  1096b1:	03 00                	add    eax,DWORD PTR [eax]
  1096b3:	00 61 3f             	add    BYTE PTR [ecx+0x3f],ah
  1096b6:	10 00                	adc    BYTE PTR [eax],al
  1096b8:	07                   	pop    es
  1096b9:	00 00                	add    BYTE PTR [eax],al
  1096bb:	00 02                	add    BYTE PTR [edx],al
  1096bd:	00 01                	add    BYTE PTR [ecx],al
  1096bf:	00 cd                	add    ch,cl
  1096c1:	03 00                	add    eax,DWORD PTR [eax]
  1096c3:	00 68 3f             	add    BYTE PTR [eax+0x3f],ch
  1096c6:	10 00                	adc    BYTE PTR [eax],al
  1096c8:	13 00                	adc    eax,DWORD PTR [eax]
  1096ca:	00 00                	add    BYTE PTR [eax],al
  1096cc:	02 00                	add    al,BYTE PTR [eax]
  1096ce:	01 00                	add    DWORD PTR [eax],eax
  1096d0:	df 03                	fild   WORD PTR [ebx]
  1096d2:	00 00                	add    BYTE PTR [eax],al
  1096d4:	7b 3f                	jnp    0x109715
  1096d6:	10 00                	adc    BYTE PTR [eax],al
  1096d8:	18 00                	sbb    BYTE PTR [eax],al
  1096da:	00 00                	add    BYTE PTR [eax],al
  1096dc:	02 00                	add    al,BYTE PTR [eax]
  1096de:	01 00                	add    DWORD PTR [eax],eax
  1096e0:	f0 03 00             	lock add eax,DWORD PTR [eax]
  1096e3:	00 93 3f 10 00 0e    	add    BYTE PTR [ebx+0xe00103f],dl
  1096e9:	00 00                	add    BYTE PTR [eax],al
  1096eb:	00 02                	add    BYTE PTR [edx],al
  1096ed:	00 01                	add    BYTE PTR [ecx],al
  1096ef:	00 fd                	add    ch,bh
  1096f1:	03 00                	add    eax,DWORD PTR [eax]
	...
  1096fb:	00 04 00             	add    BYTE PTR [eax+eax*1],al
  1096fe:	f1                   	int1
  1096ff:	ff 0c 03             	dec    DWORD PTR [ebx+eax*1]
  109702:	00 00                	add    BYTE PTR [eax],al
  109704:	da 43 10             	fiadd  DWORD PTR [ebx+0x10]
  109707:	00 5e 00             	add    BYTE PTR [esi+0x0],bl
  10970a:	00 00                	add    BYTE PTR [eax],al
  10970c:	02 00                	add    al,BYTE PTR [eax]
  10970e:	01 00                	add    DWORD PTR [eax],eax
  109710:	03 04 00             	add    eax,DWORD PTR [eax+eax*1]
  109713:	00 6c 99 11          	add    BYTE PTR [ecx+ebx*4+0x11],ch
  109717:	00 04 00             	add    BYTE PTR [eax+eax*1],al
  10971a:	00 00                	add    BYTE PTR [eax],al
  10971c:	01 00                	add    DWORD PTR [eax],eax
  10971e:	04 00                	add    al,0x0
  109720:	74 0a                	je     0x10972c
  109722:	00 00                	add    BYTE PTR [eax],al
  109724:	70 99                	jo     0x1096bf
  109726:	11 00                	adc    DWORD PTR [eax],eax
  109728:	04 00                	add    al,0x0
  10972a:	00 00                	add    BYTE PTR [eax],al
  10972c:	01 00                	add    DWORD PTR [eax],eax
  10972e:	04 00                	add    al,0x0
  109730:	0a 04 00             	or     al,BYTE PTR [eax+eax*1]
  109733:	00 74 99 11          	add    BYTE PTR [ecx+ebx*4+0x11],dh
  109737:	00 04 00             	add    BYTE PTR [eax+eax*1],al
  10973a:	00 00                	add    BYTE PTR [eax],al
  10973c:	01 00                	add    DWORD PTR [eax],eax
  10973e:	04 00                	add    al,0x0
  109740:	15 04 00 00 78       	adc    eax,0x78000004
  109745:	99                   	cdq
  109746:	11 00                	adc    DWORD PTR [eax],eax
  109748:	04 00                	add    al,0x0
  10974a:	00 00                	add    BYTE PTR [eax],al
  10974c:	01 00                	add    DWORD PTR [eax],eax
  10974e:	04 00                	add    al,0x0
  109750:	21 04 00             	and    DWORD PTR [eax+eax*1],eax
  109753:	00 7c 99 11          	add    BYTE PTR [ecx+ebx*4+0x11],bh
  109757:	00 04 00             	add    BYTE PTR [eax+eax*1],al
  10975a:	00 00                	add    BYTE PTR [eax],al
  10975c:	01 00                	add    DWORD PTR [eax],eax
  10975e:	04 00                	add    al,0x0
  109760:	2e 04 00             	cs add al,0x0
  109763:	00 38                	add    BYTE PTR [eax],bh
  109765:	44                   	inc    esp
  109766:	10 00                	adc    BYTE PTR [eax],al
  109768:	14 00                	adc    al,0x0
  10976a:	00 00                	add    BYTE PTR [eax],al
  10976c:	02 00                	add    al,BYTE PTR [eax]
  10976e:	01 00                	add    DWORD PTR [eax],eax
  109770:	3b 04 00             	cmp    eax,DWORD PTR [eax+eax*1]
  109773:	00 4c 44 10          	add    BYTE PTR [esp+eax*2+0x10],cl
  109777:	00 14 00             	add    BYTE PTR [eax+eax*1],dl
  10977a:	00 00                	add    BYTE PTR [eax],al
  10977c:	02 00                	add    al,BYTE PTR [eax]
  10977e:	01 00                	add    DWORD PTR [eax],eax
  109780:	48                   	dec    eax
  109781:	04 00                	add    al,0x0
  109783:	00 60 44             	add    BYTE PTR [eax+0x44],ah
  109786:	10 00                	adc    BYTE PTR [eax],al
  109788:	4f                   	dec    edi
  109789:	00 00                	add    BYTE PTR [eax],al
  10978b:	00 02                	add    BYTE PTR [edx],al
  10978d:	00 01                	add    BYTE PTR [ecx],al
  10978f:	00 53 04             	add    BYTE PTR [ebx+0x4],dl
  109792:	00 00                	add    BYTE PTR [eax],al
  109794:	af                   	scas   eax,DWORD PTR es:[edi]
  109795:	44                   	inc    esp
  109796:	10 00                	adc    BYTE PTR [eax],al
  109798:	51                   	push   ecx
  109799:	00 00                	add    BYTE PTR [eax],al
  10979b:	00 02                	add    BYTE PTR [edx],al
  10979d:	00 01                	add    BYTE PTR [ecx],al
  10979f:	00 60 04             	add    BYTE PTR [eax+0x4],ah
  1097a2:	00 00                	add    BYTE PTR [eax],al
  1097a4:	00 45 10             	add    BYTE PTR [ebp+0x10],al
  1097a7:	00 3d 00 00 00 02    	add    BYTE PTR ds:0x2000000,bh
  1097ad:	00 01                	add    BYTE PTR [ecx],al
  1097af:	00 6c 04 00          	add    BYTE PTR [esp+eax*1+0x0],ch
	...
  1097bb:	00 04 00             	add    BYTE PTR [eax+eax*1],al
  1097be:	f1                   	int1
  1097bf:	ff 0c 03             	dec    DWORD PTR [ebx+eax*1]
  1097c2:	00 00                	add    BYTE PTR [eax],al
  1097c4:	9b                   	fwait
  1097c5:	48                   	dec    eax
  1097c6:	10 00                	adc    BYTE PTR [eax],al
  1097c8:	5e                   	pop    esi
  1097c9:	00 00                	add    BYTE PTR [eax],al
  1097cb:	00 02                	add    BYTE PTR [edx],al
  1097cd:	00 01                	add    BYTE PTR [ecx],al
  1097cf:	00 75 04             	add    BYTE PTR [ebp+0x4],dh
  1097d2:	00 00                	add    BYTE PTR [eax],al
  1097d4:	84 99 11 00 04 00    	test   BYTE PTR [ecx+0x40011],bl
  1097da:	00 00                	add    BYTE PTR [eax],al
  1097dc:	01 00                	add    DWORD PTR [eax],eax
  1097de:	04 00                	add    al,0x0
  1097e0:	86 04 00             	xchg   BYTE PTR [eax+eax*1],al
  1097e3:	00 7e 4a             	add    BYTE PTR [esi+0x4a],bh
  1097e6:	10 00                	adc    BYTE PTR [eax],al
  1097e8:	9f                   	lahf
  1097e9:	00 00                	add    BYTE PTR [eax],al
  1097eb:	00 02                	add    BYTE PTR [edx],al
  1097ed:	00 01                	add    BYTE PTR [ecx],al
  1097ef:	00 a0 04 00 00 00    	add    BYTE PTR [eax+0x4],ah
  1097f5:	00 00                	add    BYTE PTR [eax],al
  1097f7:	00 00                	add    BYTE PTR [eax],al
  1097f9:	00 00                	add    BYTE PTR [eax],al
  1097fb:	00 04 00             	add    BYTE PTR [eax+eax*1],al
  1097fe:	f1                   	int1
  1097ff:	ff a8 04 00 00 88    	jmp    FWORD PTR [eax-0x77fffffc]
  109805:	99                   	cdq
  109806:	11 00                	adc    DWORD PTR [eax],eax
  109808:	04 00                	add    al,0x0
  10980a:	00 00                	add    BYTE PTR [eax],al
  10980c:	01 00                	add    DWORD PTR [eax],eax
  10980e:	04 00                	add    al,0x0
  109810:	b3 04                	mov    bl,0x4
  109812:	00 00                	add    BYTE PTR [eax],al
  109814:	8c 99 11 00 04 00    	mov    WORD PTR [ecx+0x40011],ds
  10981a:	00 00                	add    BYTE PTR [eax],al
  10981c:	01 00                	add    DWORD PTR [eax],eax
  10981e:	04 00                	add    al,0x0
  109820:	bc 04 00 00 90       	mov    esp,0x90000004
  109825:	99                   	cdq
  109826:	11 00                	adc    DWORD PTR [eax],eax
  109828:	04 00                	add    al,0x0
  10982a:	00 00                	add    BYTE PTR [eax],al
  10982c:	01 00                	add    DWORD PTR [eax],eax
  10982e:	04 00                	add    al,0x0
  109830:	c9                   	leave
  109831:	04 00                	add    al,0x0
  109833:	00 94 99 11 00 04 00 	add    BYTE PTR [ecx+ebx*4+0x40011],dl
  10983a:	00 00                	add    BYTE PTR [eax],al
  10983c:	01 00                	add    DWORD PTR [eax],eax
  10983e:	04 00                	add    al,0x0
  109840:	df 04 00             	fild   WORD PTR [eax+eax*1]
  109843:	00 98 99 11 00 04    	add    BYTE PTR [eax+0x4001199],bl
  109849:	00 00                	add    BYTE PTR [eax],al
  10984b:	00 01                	add    BYTE PTR [ecx],al
  10984d:	00 04 00             	add    BYTE PTR [eax+eax*1],al
  109850:	fd                   	std
  109851:	04 00                	add    al,0x0
	...
  10985b:	00 04 00             	add    BYTE PTR [eax+eax*1],al
  10985e:	f1                   	int1
  10985f:	ff 0f                	dec    DWORD PTR [edi]
  109861:	05 00 00 a0 99       	add    eax,0x99a00000
  109866:	11 00                	adc    DWORD PTR [eax],eax
  109868:	00 01                	add    BYTE PTR [ecx],al
  10986a:	00 00                	add    BYTE PTR [eax],al
  10986c:	01 00                	add    DWORD PTR [eax],eax
  10986e:	04 00                	add    al,0x0
  109870:	1d 05 00 00 2c       	sbb    eax,0x2c000005
  109875:	80 10 00             	adc    BYTE PTR [eax],0x0
  109878:	04 00                	add    al,0x0
  10987a:	00 00                	add    BYTE PTR [eax],al
  10987c:	01 00                	add    DWORD PTR [eax],eax
  10987e:	03 00                	add    eax,DWORD PTR [eax]
  109880:	26 05 00 00 30 80    	es add eax,0x80300000
  109886:	10 00                	adc    BYTE PTR [eax],al
  109888:	04 00                	add    al,0x0
  10988a:	00 00                	add    BYTE PTR [eax],al
  10988c:	01 00                	add    DWORD PTR [eax],eax
  10988e:	03 00                	add    eax,DWORD PTR [eax]
  109890:	35 05 00 00 34       	xor    eax,0x34000005
  109895:	80 10 00             	adc    BYTE PTR [eax],0x0
  109898:	04 00                	add    al,0x0
  10989a:	00 00                	add    BYTE PTR [eax],al
  10989c:	01 00                	add    DWORD PTR [eax],eax
  10989e:	03 00                	add    eax,DWORD PTR [eax]
  1098a0:	4b                   	dec    ebx
  1098a1:	05 00 00 00 00       	add    eax,0x0
  1098a6:	00 00                	add    BYTE PTR [eax],al
  1098a8:	00 00                	add    BYTE PTR [eax],al
  1098aa:	00 00                	add    BYTE PTR [eax],al
  1098ac:	04 00                	add    al,0x0
  1098ae:	f1                   	int1
  1098af:	ff                   	(bad)
  1098b0:	bb 00 00 00 69       	mov    ebx,0x69000000
  1098b5:	50                   	push   eax
  1098b6:	10 00                	adc    BYTE PTR [eax],al
  1098b8:	1f                   	pop    ds
  1098b9:	00 00                	add    BYTE PTR [eax],al
  1098bb:	00 02                	add    BYTE PTR [edx],al
  1098bd:	00 01                	add    BYTE PTR [ecx],al
  1098bf:	00 51 05             	add    BYTE PTR [ecx+0x5],dl
  1098c2:	00 00                	add    BYTE PTR [eax],al
  1098c4:	a0 9a 11 00 04       	mov    al,ds:0x400119a
  1098c9:	00 00                	add    BYTE PTR [eax],al
  1098cb:	00 01                	add    BYTE PTR [ecx],al
  1098cd:	00 04 00             	add    BYTE PTR [eax+eax*1],al
  1098d0:	5b                   	pop    ebx
  1098d1:	05 00 00 00 00       	add    eax,0x0
  1098d6:	00 00                	add    BYTE PTR [eax],al
  1098d8:	00 00                	add    BYTE PTR [eax],al
  1098da:	00 00                	add    BYTE PTR [eax],al
  1098dc:	04 00                	add    al,0x0
  1098de:	f1                   	int1
  1098df:	ff cd                	dec    ebp
  1098e1:	0b 00                	or     eax,DWORD PTR [eax]
  1098e3:	00 38                	add    BYTE PTR [eax],bh
  1098e5:	80 10 00             	adc    BYTE PTR [eax],0x0
  1098e8:	04 00                	add    al,0x0
  1098ea:	00 00                	add    BYTE PTR [eax],al
  1098ec:	01 00                	add    DWORD PTR [eax],eax
  1098ee:	03 00                	add    eax,DWORD PTR [eax]
  1098f0:	67 05 00 00 c0 9a    	addr16 add eax,0x9ac00000
  1098f6:	11 00                	adc    DWORD PTR [eax],eax
  1098f8:	04 00                	add    al,0x0
  1098fa:	00 00                	add    BYTE PTR [eax],al
  1098fc:	01 00                	add    DWORD PTR [eax],eax
  1098fe:	04 00                	add    al,0x0
  109900:	7a 05                	jp     0x109907
  109902:	00 00                	add    BYTE PTR [eax],al
  109904:	e0 9a                	loopne 0x1098a0
  109906:	11 00                	adc    DWORD PTR [eax],eax
  109908:	00 01                	add    BYTE PTR [ecx],al
  10990a:	00 00                	add    BYTE PTR [eax],al
  10990c:	01 00                	add    DWORD PTR [eax],eax
  10990e:	04 00                	add    al,0x0
  109910:	88 05 00 00 e0 9b    	mov    BYTE PTR ds:0x9be00000,al
  109916:	11 00                	adc    DWORD PTR [eax],eax
  109918:	04 00                	add    al,0x0
  10991a:	00 00                	add    BYTE PTR [eax],al
  10991c:	01 00                	add    DWORD PTR [eax],eax
  10991e:	04 00                	add    al,0x0
  109920:	93                   	xchg   ebx,eax
  109921:	05 00 00 e4 9b       	add    eax,0x9be40000
  109926:	11 00                	adc    DWORD PTR [eax],eax
  109928:	04 00                	add    al,0x0
  10992a:	00 00                	add    BYTE PTR [eax],al
  10992c:	01 00                	add    DWORD PTR [eax],eax
  10992e:	04 00                	add    al,0x0
  109930:	9e                   	sahf
  109931:	05 00 00 e8 9b       	add    eax,0x9be80000
  109936:	11 00                	adc    DWORD PTR [eax],eax
  109938:	04 00                	add    al,0x0
  10993a:	00 00                	add    BYTE PTR [eax],al
  10993c:	01 00                	add    DWORD PTR [eax],eax
  10993e:	04 00                	add    al,0x0
  109940:	aa                   	stos   BYTE PTR es:[edi],al
  109941:	05 00 00 00 00       	add    eax,0x0
  109946:	00 00                	add    BYTE PTR [eax],al
  109948:	00 00                	add    BYTE PTR [eax],al
  10994a:	00 00                	add    BYTE PTR [eax],al
  10994c:	04 00                	add    al,0x0
  10994e:	f1                   	int1
  10994f:	ff                   	(bad)
  109950:	bb 00 00 00 e3       	mov    ebx,0xe3000000
  109955:	52                   	push   edx
  109956:	10 00                	adc    BYTE PTR [eax],al
  109958:	1f                   	pop    ds
  109959:	00 00                	add    BYTE PTR [eax],al
  10995b:	00 02                	add    BYTE PTR [edx],al
  10995d:	00 01                	add    BYTE PTR [ecx],al
  10995f:	00 c0                	add    al,al
  109961:	00 00                	add    BYTE PTR [eax],al
  109963:	00 02                	add    BYTE PTR [edx],al
  109965:	53                   	push   ebx
  109966:	10 00                	adc    BYTE PTR [eax],al
  109968:	1d 00 00 00 02       	sbb    eax,0x2000000
  10996d:	00 01                	add    BYTE PTR [ecx],al
  10996f:	00 b8 05 00 00 1f    	add    BYTE PTR [eax+0x1f000005],bh
  109975:	53                   	push   ebx
  109976:	10 00                	adc    BYTE PTR [eax],al
  109978:	15 00 00 00 02       	adc    eax,0x2000000
  10997d:	00 01                	add    BYTE PTR [ecx],al
  10997f:	00 c0                	add    al,al
  109981:	05 00 00 34 53       	add    eax,0x53340000
  109986:	10 00                	adc    BYTE PTR [eax],al
  109988:	bb 00 00 00 02       	mov    ebx,0x2000000
  10998d:	00 01                	add    BYTE PTR [ecx],al
  10998f:	00 9b 01 00 00 fa    	add    BYTE PTR [ebx-0x5ffffff],bl
  109995:	53                   	push   ebx
  109996:	10 00                	adc    BYTE PTR [eax],al
  109998:	48                   	dec    eax
  109999:	00 00                	add    BYTE PTR [eax],al
  10999b:	00 02                	add    BYTE PTR [edx],al
  10999d:	00 01                	add    BYTE PTR [ecx],al
  10999f:	00 a8 01 00 00 42    	add    BYTE PTR [eax+0x42000001],ch
  1099a5:	54                   	push   esp
  1099a6:	10 00                	adc    BYTE PTR [eax],al
  1099a8:	9f                   	lahf
  1099a9:	00 00                	add    BYTE PTR [eax],al
  1099ab:	00 02                	add    BYTE PTR [edx],al
  1099ad:	00 01                	add    BYTE PTR [ecx],al
  1099af:	00 ca                	add    dl,cl
  1099b1:	05 00 00 a6 4c       	add    eax,0x4ca60000
  1099b6:	10 00                	adc    BYTE PTR [eax],al
  1099b8:	27                   	daa
  1099b9:	00 00                	add    BYTE PTR [eax],al
  1099bb:	00 12                	add    BYTE PTR [edx],dl
  1099bd:	00 01                	add    BYTE PTR [ecx],al
  1099bf:	00 d5                	add    ch,dl
  1099c1:	05 00 00 0d 50       	add    eax,0x500d0000
  1099c6:	10 00                	adc    BYTE PTR [eax],al
  1099c8:	25 00 00 00 12       	and    eax,0x12000000
  1099cd:	00 01                	add    BYTE PTR [ecx],al
  1099cf:	00 e8                	add    al,ch
  1099d1:	05 00 00 a4 35       	add    eax,0x35a40000
  1099d6:	10 00                	adc    BYTE PTR [eax],al
  1099d8:	00 00                	add    BYTE PTR [eax],al
  1099da:	00 00                	add    BYTE PTR [eax],al
  1099dc:	10 00                	adc    BYTE PTR [eax],al
  1099de:	01 00                	add    DWORD PTR [eax],eax
  1099e0:	fa                   	cli
  1099e1:	05 00 00 c5 46       	add    eax,0x46c50000
  1099e6:	10 00                	adc    BYTE PTR [eax],al
  1099e8:	7b 00                	jnp    0x1099ea
  1099ea:	00 00                	add    BYTE PTR [eax],al
  1099ec:	12 00                	adc    al,BYTE PTR [eax]
  1099ee:	01 00                	add    DWORD PTR [eax],eax
  1099f0:	0f 06                	clts
  1099f2:	00 00                	add    BYTE PTR [eax],al
  1099f4:	a9 57 10 00 34       	test   eax,0x34001057
  1099f9:	00 00                	add    BYTE PTR [eax],al
  1099fb:	00 12                	add    BYTE PTR [edx],dl
  1099fd:	00 01                	add    BYTE PTR [ecx],al
  1099ff:	00 20                	add    BYTE PTR [eax],ah
  109a01:	06                   	push   es
  109a02:	00 00                	add    BYTE PTR [eax],al
  109a04:	ed                   	in     eax,dx
  109a05:	50                   	push   eax
  109a06:	10 00                	adc    BYTE PTR [eax],al
  109a08:	0a 00                	or     al,BYTE PTR [eax]
  109a0a:	00 00                	add    BYTE PTR [eax],al
  109a0c:	12 00                	adc    al,BYTE PTR [eax]
  109a0e:	01 00                	add    DWORD PTR [eax],eax
  109a10:	2e 06                	cs push es
  109a12:	00 00                	add    BYTE PTR [eax],al
  109a14:	f0 03 10             	lock add edx,DWORD PTR [eax]
  109a17:	00 2c 00             	add    BYTE PTR [eax+eax*1],ch
  109a1a:	00 00                	add    BYTE PTR [eax],al
  109a1c:	12 00                	adc    al,BYTE PTR [eax]
  109a1e:	01 00                	add    DWORD PTR [eax],eax
  109a20:	3c 06                	cmp    al,0x6
  109a22:	00 00                	add    BYTE PTR [eax],al
  109a24:	40                   	inc    eax
  109a25:	90                   	nop
  109a26:	11 00                	adc    DWORD PTR [eax],eax
  109a28:	04 00                	add    al,0x0
  109a2a:	00 00                	add    BYTE PTR [eax],al
  109a2c:	11 00                	adc    DWORD PTR [eax],eax
  109a2e:	04 00                	add    al,0x0
  109a30:	44                   	inc    esp
  109a31:	06                   	push   es
  109a32:	00 00                	add    BYTE PTR [eax],al
  109a34:	50                   	push   eax
  109a35:	35 10 00 00 00       	xor    eax,0x10
  109a3a:	00 00                	add    BYTE PTR [eax],al
  109a3c:	10 00                	adc    BYTE PTR [eax],al
  109a3e:	01 00                	add    DWORD PTR [eax],eax
  109a40:	55                   	push   ebp
  109a41:	06                   	push   es
  109a42:	00 00                	add    BYTE PTR [eax],al
  109a44:	94                   	xchg   esp,eax
  109a45:	07                   	pop    es
  109a46:	10 00                	adc    BYTE PTR [eax],al
  109a48:	11 00                	adc    DWORD PTR [eax],eax
  109a4a:	00 00                	add    BYTE PTR [eax],al
  109a4c:	12 00                	adc    al,BYTE PTR [eax]
  109a4e:	01 00                	add    DWORD PTR [eax],eax
  109a50:	5e                   	pop    esi
  109a51:	06                   	push   es
  109a52:	00 00                	add    BYTE PTR [eax],al
  109a54:	6c                   	ins    BYTE PTR es:[edi],dx
  109a55:	06                   	push   es
  109a56:	10 00                	adc    BYTE PTR [eax],al
  109a58:	cd 00                	int    0x0
  109a5a:	00 00                	add    BYTE PTR [eax],al
  109a5c:	12 00                	adc    al,BYTE PTR [eax]
  109a5e:	01 00                	add    DWORD PTR [eax],eax
  109a60:	69 06 00 00 32 50    	imul   eax,DWORD PTR [esi],0x50320000
  109a66:	10 00                	adc    BYTE PTR [eax],al
  109a68:	37                   	aaa
  109a69:	00 00                	add    BYTE PTR [eax],al
  109a6b:	00 12                	add    BYTE PTR [edx],dl
  109a6d:	00 01                	add    BYTE PTR [ecx],al
  109a6f:	00 83 06 00 00 a1    	add    BYTE PTR [ebx-0x5efffffa],al
  109a75:	3f                   	aas
  109a76:	10 00                	adc    BYTE PTR [eax],al
  109a78:	39 04 00             	cmp    DWORD PTR [eax+eax*1],eax
  109a7b:	00 12                	add    BYTE PTR [edx],dl
  109a7d:	00 01                	add    BYTE PTR [ecx],al
  109a7f:	00 96 06 00 00 58    	add    BYTE PTR [esi+0x58000006],dl
  109a85:	0d 10 00 a7 00       	or     eax,0xa70010
  109a8a:	00 00                	add    BYTE PTR [eax],al
  109a8c:	12 00                	adc    al,BYTE PTR [eax]
  109a8e:	01 00                	add    DWORD PTR [eax],eax
  109a90:	a0 06 00 00 61       	mov    al,ds:0x61000006
  109a95:	4d                   	dec    ebp
  109a96:	10 00                	adc    BYTE PTR [eax],al
  109a98:	a8 00                	test   al,0x0
  109a9a:	00 00                	add    BYTE PTR [eax],al
  109a9c:	12 00                	adc    al,BYTE PTR [eax]
  109a9e:	01 00                	add    DWORD PTR [eax],eax
  109aa0:	b0 06                	mov    al,0x6
  109aa2:	00 00                	add    BYTE PTR [eax],al
  109aa4:	64 1a 10             	sbb    dl,BYTE PTR fs:[eax]
  109aa7:	00 40 01             	add    BYTE PTR [eax+0x1],al
  109aaa:	00 00                	add    BYTE PTR [eax],al
  109aac:	12 00                	adc    al,BYTE PTR [eax]
  109aae:	01 00                	add    DWORD PTR [eax],eax
  109ab0:	be 06 00 00 f8       	mov    esi,0xf8000006
  109ab5:	18 10                	sbb    BYTE PTR [eax],dl
  109ab7:	00 8a 00 00 00 12    	add    BYTE PTR [edx+0x12000000],cl
  109abd:	00 01                	add    BYTE PTR [ecx],al
  109abf:	00 cb                	add    bl,cl
  109ac1:	06                   	push   es
  109ac2:	00 00                	add    BYTE PTR [eax],al
  109ac4:	82 19 10             	sbb    BYTE PTR [ecx],0x10
  109ac7:	00 16                	add    BYTE PTR [esi],dl
  109ac9:	00 00                	add    BYTE PTR [eax],al
  109acb:	00 12                	add    BYTE PTR [edx],dl
  109acd:	00 01                	add    BYTE PTR [ecx],al
  109acf:	00 da                	add    dl,bl
  109ad1:	06                   	push   es
  109ad2:	00 00                	add    BYTE PTR [eax],al
  109ad4:	89 57 10             	mov    DWORD PTR [edi+0x10],edx
  109ad7:	00 10                	add    BYTE PTR [eax],dl
  109ad9:	00 00                	add    BYTE PTR [eax],al
  109adb:	00 12                	add    BYTE PTR [edx],dl
  109add:	00 01                	add    BYTE PTR [ecx],al
  109adf:	00 eb                	add    bl,ch
  109ae1:	06                   	push   es
  109ae2:	00 00                	add    BYTE PTR [eax],al
  109ae4:	84 35 10 00 00 00    	test   BYTE PTR ds:0x10,dh
  109aea:	00 00                	add    BYTE PTR [eax],al
  109aec:	10 00                	adc    BYTE PTR [eax],al
  109aee:	01 00                	add    DWORD PTR [eax],eax
  109af0:	67 07                	addr16 pop es
  109af2:	00 00                	add    BYTE PTR [eax],al
  109af4:	7f 22                	jg     0x109b18
  109af6:	10 00                	adc    BYTE PTR [eax],al
  109af8:	04 02                	add    al,0x2
  109afa:	00 00                	add    BYTE PTR [eax],al
  109afc:	12 00                	adc    al,BYTE PTR [eax]
  109afe:	01 00                	add    DWORD PTR [eax],eax
  109b00:	fd                   	std
  109b01:	06                   	push   es
  109b02:	00 00                	add    BYTE PTR [eax],al
  109b04:	38 35 10 00 00 00    	cmp    BYTE PTR ds:0x10,dh
  109b0a:	00 00                	add    BYTE PTR [eax],al
  109b0c:	10 00                	adc    BYTE PTR [eax],al
  109b0e:	01 00                	add    DWORD PTR [eax],eax
  109b10:	0e                   	push   cs
  109b11:	07                   	pop    es
  109b12:	00 00                	add    BYTE PTR [eax],al
  109b14:	01 17                	add    DWORD PTR [edi],edx
  109b16:	10 00                	adc    BYTE PTR [eax],al
  109b18:	69 00 00 00 12 00    	imul   eax,DWORD PTR [eax],0x120000
  109b1e:	01 00                	add    DWORD PTR [eax],eax
  109b20:	1b 07                	sbb    eax,DWORD PTR [edi]
  109b22:	00 00                	add    BYTE PTR [eax],al
  109b24:	f2 31 10             	repnz xor DWORD PTR [eax],edx
  109b27:	00 2f                	add    BYTE PTR [edi],ch
  109b29:	00 00                	add    BYTE PTR [eax],al
  109b2b:	00 12                	add    BYTE PTR [edx],dl
  109b2d:	00 01                	add    BYTE PTR [ecx],al
  109b2f:	00 24 07             	add    BYTE PTR [edi+eax*1],ah
  109b32:	00 00                	add    BYTE PTR [eax],al
  109b34:	98                   	cwde
  109b35:	19 10                	sbb    DWORD PTR [eax],edx
  109b37:	00 28                	add    BYTE PTR [eax],ch
  109b39:	00 00                	add    BYTE PTR [eax],al
  109b3b:	00 12                	add    BYTE PTR [edx],dl
  109b3d:	00 01                	add    BYTE PTR [ecx],al
  109b3f:	00 33                	add    BYTE PTR [ebx],dh
  109b41:	07                   	pop    es
  109b42:	00 00                	add    BYTE PTR [eax],al
  109b44:	b0 35                	mov    al,0x35
  109b46:	10 00                	adc    BYTE PTR [eax],al
  109b48:	00 00                	add    BYTE PTR [eax],al
  109b4a:	00 00                	add    BYTE PTR [eax],al
  109b4c:	10 00                	adc    BYTE PTR [eax],al
  109b4e:	01 00                	add    DWORD PTR [eax],eax
  109b50:	45                   	inc    ebp
  109b51:	07                   	pop    es
  109b52:	00 00                	add    BYTE PTR [eax],al
  109b54:	82 4e 10 00          	or     BYTE PTR [esi+0x10],0x0
  109b58:	b7 00                	mov    bh,0x0
  109b5a:	00 00                	add    BYTE PTR [eax],al
  109b5c:	12 00                	adc    al,BYTE PTR [eax]
  109b5e:	01 00                	add    DWORD PTR [eax],eax
  109b60:	5b                   	pop    ebx
  109b61:	07                   	pop    es
  109b62:	00 00                	add    BYTE PTR [eax],al
  109b64:	ef                   	out    dx,eax
  109b65:	34 10                	xor    al,0x10
  109b67:	00 21                	add    BYTE PTR [ecx],ah
  109b69:	00 00                	add    BYTE PTR [eax],al
  109b6b:	00 12                	add    BYTE PTR [edx],dl
  109b6d:	00 01                	add    BYTE PTR [ecx],al
  109b6f:	00 75 07             	add    BYTE PTR [ebp+0x7],dh
  109b72:	00 00                	add    BYTE PTR [eax],al
  109b74:	ff 4b 10             	dec    DWORD PTR [ebx+0x10]
  109b77:	00 13                	add    BYTE PTR [ebx],dl
  109b79:	00 00                	add    BYTE PTR [eax],al
  109b7b:	00 12                	add    BYTE PTR [edx],dl
  109b7d:	00 01                	add    BYTE PTR [ecx],al
  109b7f:	00 84 07 00 00 48 90 	add    BYTE PTR [edi+eax*1-0x6fb80000],al
  109b86:	11 00                	adc    DWORD PTR [eax],eax
  109b88:	04 00                	add    al,0x0
  109b8a:	00 00                	add    BYTE PTR [eax],al
  109b8c:	11 00                	adc    DWORD PTR [eax],eax
  109b8e:	04 00                	add    al,0x0
  109b90:	8e 07                	mov    es,WORD PTR [edi]
  109b92:	00 00                	add    BYTE PTR [eax],al
  109b94:	40                   	inc    eax
  109b95:	47                   	inc    edi
  109b96:	10 00                	adc    BYTE PTR [eax],al
  109b98:	5e                   	pop    esi
  109b99:	00 00                	add    BYTE PTR [eax],al
  109b9b:	00 12                	add    BYTE PTR [edx],dl
  109b9d:	00 01                	add    BYTE PTR [ecx],al
  109b9f:	00 9d 07 00 00 e1    	add    BYTE PTR [ebp-0x1efffff9],bl
  109ba5:	54                   	push   esp
  109ba6:	10 00                	adc    BYTE PTR [eax],al
  109ba8:	4c                   	dec    esp
  109ba9:	02 00                	add    al,BYTE PTR [eax]
  109bab:	00 12                	add    BYTE PTR [edx],dl
  109bad:	00 01                	add    BYTE PTR [ecx],al
  109baf:	00 a8 07 00 00 f4    	add    BYTE PTR [eax-0xbfffff9],ch
  109bb5:	15 10 00 b2 00       	adc    eax,0xb20010
  109bba:	00 00                	add    BYTE PTR [eax],al
  109bbc:	12 00                	adc    al,BYTE PTR [eax]
  109bbe:	01 00                	add    DWORD PTR [eax],eax
  109bc0:	b1 07                	mov    cl,0x7
  109bc2:	00 00                	add    BYTE PTR [eax],al
  109bc4:	3a 29                	cmp    ch,BYTE PTR [ecx]
  109bc6:	10 00                	adc    BYTE PTR [eax],al
  109bc8:	60                   	pusha
  109bc9:	00 00                	add    BYTE PTR [eax],al
  109bcb:	00 12                	add    BYTE PTR [edx],dl
  109bcd:	00 01                	add    BYTE PTR [ecx],al
  109bcf:	00 59 0c             	add    BYTE PTR [ecx+0xc],bl
  109bd2:	00 00                	add    BYTE PTR [eax],al
  109bd4:	4c                   	dec    esp
  109bd5:	90                   	nop
  109bd6:	11 00                	adc    DWORD PTR [eax],eax
  109bd8:	04 00                	add    al,0x0
  109bda:	00 00                	add    BYTE PTR [eax],al
  109bdc:	11 00                	adc    DWORD PTR [eax],eax
  109bde:	04 00                	add    al,0x0
  109be0:	c7 07 00 00 4e 4e    	mov    DWORD PTR [edi],0x4e4e0000
  109be6:	10 00                	adc    BYTE PTR [eax],al
  109be8:	34 00                	xor    al,0x0
  109bea:	00 00                	add    BYTE PTR [eax],al
  109bec:	12 00                	adc    al,BYTE PTR [eax]
  109bee:	01 00                	add    DWORD PTR [eax],eax
  109bf0:	dc 07                	fadd   QWORD PTR [edi]
  109bf2:	00 00                	add    BYTE PTR [eax],al
  109bf4:	b4 3e                	mov    ah,0x3e
  109bf6:	10 00                	adc    BYTE PTR [eax],al
  109bf8:	10 00                	adc    BYTE PTR [eax],al
  109bfa:	00 00                	add    BYTE PTR [eax],al
  109bfc:	12 00                	adc    al,BYTE PTR [eax]
  109bfe:	01 00                	add    DWORD PTR [eax],eax
  109c00:	e9 07 00 00 85       	jmp    0x85109c0c
  109c05:	0a 10                	or     dl,BYTE PTR [eax]
  109c07:	00 26                	add    BYTE PTR [esi],ah
  109c09:	02 00                	add    al,BYTE PTR [eax]
  109c0b:	00 12                	add    BYTE PTR [edx],dl
  109c0d:	00 01                	add    BYTE PTR [ecx],al
  109c0f:	00 fb                	add    bl,bh
  109c11:	07                   	pop    es
  109c12:	00 00                	add    BYTE PTR [eax],al
  109c14:	09 4e 10             	or     DWORD PTR [esi+0x10],ecx
  109c17:	00 06                	add    BYTE PTR [esi],al
  109c19:	00 00                	add    BYTE PTR [eax],al
  109c1b:	00 12                	add    BYTE PTR [edx],dl
  109c1d:	00 01                	add    BYTE PTR [ecx],al
  109c1f:	00 01                	add    BYTE PTR [ecx],al
  109c21:	08 00                	or     BYTE PTR [eax],al
  109c23:	00 d6                	add    dh,dl
  109c25:	13 10                	adc    edx,DWORD PTR [eax]
  109c27:	00 3b                	add    BYTE PTR [ebx],bh
  109c29:	00 00                	add    BYTE PTR [eax],al
  109c2b:	00 12                	add    BYTE PTR [edx],dl
  109c2d:	00 01                	add    BYTE PTR [ecx],al
  109c2f:	00 14 08             	add    BYTE PTR [eax+ecx*1],dl
  109c32:	00 00                	add    BYTE PTR [eax],al
  109c34:	8c 3e                	mov    WORD PTR [esi],?
  109c36:	10 00                	adc    BYTE PTR [eax],al
  109c38:	28 00                	sub    BYTE PTR [eax],al
  109c3a:	00 00                	add    BYTE PTR [eax],al
  109c3c:	12 00                	adc    al,BYTE PTR [eax]
  109c3e:	01 00                	add    DWORD PTR [eax],eax
  109c40:	2c 08                	sub    al,0x8
  109c42:	00 00                	add    BYTE PTR [eax],al
  109c44:	2f                   	das
  109c45:	30 10                	xor    BYTE PTR [eax],dl
  109c47:	00 0a                	add    BYTE PTR [edx],cl
  109c49:	00 00                	add    BYTE PTR [eax],al
  109c4b:	00 12                	add    BYTE PTR [edx],dl
  109c4d:	00 01                	add    BYTE PTR [ecx],al
  109c4f:	00 42 08             	add    BYTE PTR [edx+0x8],al
  109c52:	00 00                	add    BYTE PTR [eax],al
  109c54:	08 0f                	or     BYTE PTR [edi],cl
  109c56:	10 00                	adc    BYTE PTR [eax],al
  109c58:	0a 00                	or     al,BYTE PTR [eax]
  109c5a:	00 00                	add    BYTE PTR [eax],al
  109c5c:	12 00                	adc    al,BYTE PTR [eax]
  109c5e:	01 00                	add    DWORD PTR [eax],eax
  109c60:	5b                   	pop    ebx
  109c61:	08 00                	or     BYTE PTR [eax],al
  109c63:	00 80 35 10 00 00    	add    BYTE PTR [eax+0x1035],al
  109c69:	00 00                	add    BYTE PTR [eax],al
  109c6b:	00 10                	add    BYTE PTR [eax],dl
  109c6d:	00 01                	add    BYTE PTR [ecx],al
  109c6f:	00 6d 08             	add    BYTE PTR [ebp+0x8],ch
  109c72:	00 00                	add    BYTE PTR [eax],al
  109c74:	b3 08                	mov    bl,0x8
  109c76:	10 00                	adc    BYTE PTR [eax],al
  109c78:	96                   	xchg   esi,eax
  109c79:	01 00                	add    DWORD PTR [eax],eax
  109c7b:	00 12                	add    BYTE PTR [edx],dl
  109c7d:	00 01                	add    BYTE PTR [ecx],al
  109c7f:	00 7a 08             	add    BYTE PTR [edx+0x8],bh
  109c82:	00 00                	add    BYTE PTR [eax],al
  109c84:	a1 2f 10 00 84       	mov    eax,ds:0x8400102f
  109c89:	00 00                	add    BYTE PTR [eax],al
  109c8b:	00 12                	add    BYTE PTR [edx],dl
  109c8d:	00 01                	add    BYTE PTR [ecx],al
  109c8f:	00 83 08 00 00 bd    	add    BYTE PTR [ebx-0x42fffff8],al
  109c95:	27                   	daa
  109c96:	10 00                	adc    BYTE PTR [eax],al
  109c98:	0a 00                	or     al,BYTE PTR [eax]
  109c9a:	00 00                	add    BYTE PTR [eax],al
  109c9c:	12 00                	adc    al,BYTE PTR [eax]
  109c9e:	01 00                	add    DWORD PTR [eax],eax
  109ca0:	8f 08 00 00          	(bad)
  109ca4:	60                   	pusha
  109ca5:	35 10 00 00 00       	xor    eax,0x10
  109caa:	00 00                	add    BYTE PTR [eax],al
  109cac:	10 00                	adc    BYTE PTR [eax],al
  109cae:	01 00                	add    DWORD PTR [eax],eax
  109cb0:	a0 08 00 00 ec       	mov    al,ds:0xec000008
  109cb5:	35 10 00 00 00       	xor    eax,0x10
  109cba:	00 00                	add    BYTE PTR [eax],al
  109cbc:	10 00                	adc    BYTE PTR [eax],al
  109cbe:	01 00                	add    DWORD PTR [eax],eax
  109cc0:	ab                   	stos   DWORD PTR es:[edi],eax
  109cc1:	08 00                	or     BYTE PTR [eax],al
  109cc3:	00 bc 35 10 00 00 00 	add    BYTE PTR [ebp+esi*1+0x10],bh
  109cca:	00 00                	add    BYTE PTR [eax],al
  109ccc:	10 00                	adc    BYTE PTR [eax],al
  109cce:	01 00                	add    DWORD PTR [eax],eax
  109cd0:	b7 08                	mov    bh,0x8
  109cd2:	00 00                	add    BYTE PTR [eax],al
  109cd4:	03 2b                	add    ebp,DWORD PTR [ebx]
  109cd6:	10 00                	adc    BYTE PTR [eax],al
  109cd8:	64 00 00             	add    BYTE PTR fs:[eax],al
  109cdb:	00 12                	add    BYTE PTR [edx],dl
  109cdd:	00 01                	add    BYTE PTR [ecx],al
  109cdf:	00 ce                	add    dh,cl
  109ce1:	08 00                	or     BYTE PTR [eax],al
  109ce3:	00 04 90             	add    BYTE PTR [eax+edx*4],al
  109ce6:	11 00                	adc    DWORD PTR [eax],eax
  109ce8:	04 00                	add    al,0x0
  109cea:	00 00                	add    BYTE PTR [eax],al
  109cec:	11 00                	adc    DWORD PTR [eax],eax
  109cee:	04 00                	add    al,0x0
  109cf0:	e1 08                	loope  0x109cfa
  109cf2:	00 00                	add    BYTE PTR [eax],al
  109cf4:	e9 47 10 00 94       	jmp    0x9410ad40
  109cf9:	00 00                	add    BYTE PTR [eax],al
  109cfb:	00 12                	add    BYTE PTR [edx],dl
  109cfd:	00 01                	add    BYTE PTR [ecx],al
  109cff:	00 f1                	add    cl,dh
  109d01:	08 00                	or     BYTE PTR [eax],al
  109d03:	00 18                	add    BYTE PTR [eax],bl
  109d05:	31 10                	xor    DWORD PTR [eax],edx
  109d07:	00 da                	add    dl,bl
  109d09:	00 00                	add    BYTE PTR [eax],al
  109d0b:	00 12                	add    BYTE PTR [edx],dl
  109d0d:	00 01                	add    BYTE PTR [ecx],al
  109d0f:	00 fa                	add    dl,bh
  109d11:	08 00                	or     BYTE PTR [eax],al
  109d13:	00 12                	add    BYTE PTR [edx],dl
  109d15:	4c                   	dec    esp
  109d16:	10 00                	adc    BYTE PTR [eax],al
  109d18:	17                   	pop    ss
  109d19:	00 00                	add    BYTE PTR [eax],al
  109d1b:	00 12                	add    BYTE PTR [edx],dl
  109d1d:	00 01                	add    BYTE PTR [ecx],al
  109d1f:	00 08                	add    BYTE PTR [eax],cl
  109d21:	09 00                	or     DWORD PTR [eax],eax
  109d23:	00 ef                	add    bh,ch
  109d25:	49                   	dec    ecx
  109d26:	10 00                	adc    BYTE PTR [eax],al
  109d28:	4b                   	dec    ebx
  109d29:	00 00                	add    BYTE PTR [eax],al
  109d2b:	00 12                	add    BYTE PTR [edx],dl
  109d2d:	00 01                	add    BYTE PTR [ecx],al
  109d2f:	00 1c 09             	add    BYTE PTR [ecx+ecx*1],bl
  109d32:	00 00                	add    BYTE PTR [eax],al
  109d34:	72 0e                	jb     0x109d44
  109d36:	10 00                	adc    BYTE PTR [eax],al
  109d38:	96                   	xchg   esi,eax
  109d39:	00 00                	add    BYTE PTR [eax],al
  109d3b:	00 12                	add    BYTE PTR [edx],dl
  109d3d:	00 01                	add    BYTE PTR [ecx],al
  109d3f:	00 25 09 00 00 9a    	add    BYTE PTR ds:0x9a000009,ah
  109d45:	29 10                	sub    DWORD PTR [eax],edx
  109d47:	00 b4 00 00 00 12 00 	add    BYTE PTR [eax+eax*1+0x120000],dh
  109d4e:	01 00                	add    DWORD PTR [eax],eax
  109d50:	3b 09                	cmp    ecx,DWORD PTR [ecx]
  109d52:	00 00                	add    BYTE PTR [eax],al
  109d54:	2f                   	das
  109d55:	32 10                	xor    dl,BYTE PTR [eax]
  109d57:	00 61 00             	add    BYTE PTR [ecx+0x0],ah
  109d5a:	00 00                	add    BYTE PTR [eax],al
  109d5c:	12 00                	adc    al,BYTE PTR [eax]
  109d5e:	01 00                	add    DWORD PTR [eax],eax
  109d60:	49                   	dec    ecx
  109d61:	09 00                	or     DWORD PTR [eax],eax
  109d63:	00 21                	add    BYTE PTR [ecx],ah
  109d65:	32 10                	xor    dl,BYTE PTR [eax]
  109d67:	00 0e                	add    BYTE PTR [esi],cl
  109d69:	00 00                	add    BYTE PTR [eax],al
  109d6b:	00 12                	add    BYTE PTR [edx],dl
  109d6d:	00 01                	add    BYTE PTR [ecx],al
  109d6f:	00 5e 09             	add    BYTE PTR [esi+0x9],bl
  109d72:	00 00                	add    BYTE PTR [eax],al
  109d74:	28 80 10 00 04 00    	sub    BYTE PTR [eax+0x40010],al
  109d7a:	00 00                	add    BYTE PTR [eax],al
  109d7c:	11 00                	adc    DWORD PTR [eax],eax
  109d7e:	03 00                	add    eax,DWORD PTR [eax]
  109d80:	6f                   	outs   dx,DWORD PTR ds:[esi]
  109d81:	09 00                	or     DWORD PTR [eax],eax
  109d83:	00 0f                	add    BYTE PTR [edi],cl
  109d85:	4e                   	dec    esi
  109d86:	10 00                	adc    BYTE PTR [eax],al
  109d88:	3f                   	aas
  109d89:	00 00                	add    BYTE PTR [eax],al
  109d8b:	00 12                	add    BYTE PTR [edx],dl
  109d8d:	00 01                	add    BYTE PTR [ecx],al
  109d8f:	00 7b 09             	add    BYTE PTR [ebx+0x9],bh
  109d92:	00 00                	add    BYTE PTR [eax],al
  109d94:	68 99 11 00 04       	push   0x4001199
  109d99:	00 00                	add    BYTE PTR [eax],al
  109d9b:	00 11                	add    BYTE PTR [ecx],dl
  109d9d:	00 04 00             	add    BYTE PTR [eax+eax*1],al
  109da0:	8c 09                	mov    WORD PTR [ecx],cs
  109da2:	00 00                	add    BYTE PTR [eax],al
  109da4:	39 0f                	cmp    DWORD PTR [edi],ecx
  109da6:	10 00                	adc    BYTE PTR [eax],al
  109da8:	56                   	push   esi
  109da9:	00 00                	add    BYTE PTR [eax],al
  109dab:	00 12                	add    BYTE PTR [edx],dl
  109dad:	00 01                	add    BYTE PTR [ecx],al
  109daf:	00 99 09 00 00 a6    	add    BYTE PTR [ecx-0x59fffff7],bl
  109db5:	16                   	push   ss
  109db6:	10 00                	adc    BYTE PTR [eax],al
  109db8:	5b                   	pop    ebx
  109db9:	00 00                	add    BYTE PTR [eax],al
  109dbb:	00 12                	add    BYTE PTR [edx],dl
  109dbd:	00 01                	add    BYTE PTR [ecx],al
  109dbf:	00 a3 09 00 00 a3    	add    BYTE PTR [ebx-0x5cfffff7],ah
  109dc5:	50                   	push   eax
  109dc6:	10 00                	adc    BYTE PTR [eax],al
  109dc8:	4a                   	dec    edx
  109dc9:	00 00                	add    BYTE PTR [eax],al
  109dcb:	00 12                	add    BYTE PTR [edx],dl
  109dcd:	00 01                	add    BYTE PTR [ecx],al
  109dcf:	00 ac 09 00 00 83 24 	add    BYTE PTR [ecx+ecx*1+0x24830000],ch
  109dd6:	10 00                	adc    BYTE PTR [eax],al
  109dd8:	30 03                	xor    BYTE PTR [ebx],al
  109dda:	00 00                	add    BYTE PTR [eax],al
  109ddc:	12 00                	adc    al,BYTE PTR [eax]
  109dde:	01 00                	add    DWORD PTR [eax],eax
  109de0:	bf 09 00 00 d3       	mov    edi,0xd3000009
  109de5:	07                   	pop    es
  109de6:	10 00                	adc    BYTE PTR [eax],al
  109de8:	e0 00                	loopne 0x109dea
  109dea:	00 00                	add    BYTE PTR [eax],al
  109dec:	12 00                	adc    al,BYTE PTR [eax]
  109dee:	01 00                	add    DWORD PTR [eax],eax
  109df0:	cc                   	int3
  109df1:	09 00                	or     DWORD PTR [eax],eax
  109df3:	00 12                	add    BYTE PTR [edx],dl
  109df5:	0f 10 00             	movups xmm0,XMMWORD PTR [eax]
  109df8:	13 00                	adc    eax,DWORD PTR [eax]
  109dfa:	00 00                	add    BYTE PTR [eax],al
  109dfc:	12 00                	adc    al,BYTE PTR [eax]
  109dfe:	01 00                	add    DWORD PTR [eax],eax
  109e00:	e5 09                	in     eax,0x9
  109e02:	00 00                	add    BYTE PTR [eax],al
  109e04:	18 52 10             	sbb    BYTE PTR [edx+0x10],dl
  109e07:	00 2d 00 00 00 12    	add    BYTE PTR ds:0x12000000,ch
  109e0d:	00 01                	add    BYTE PTR [ecx],al
  109e0f:	00 f7                	add    bh,dh
  109e11:	09 00                	or     DWORD PTR [eax],eax
  109e13:	00 29                	add    BYTE PTR [ecx],ch
  109e15:	4c                   	dec    esp
  109e16:	10 00                	adc    BYTE PTR [eax],al
  109e18:	7d 00                	jge    0x109e1a
  109e1a:	00 00                	add    BYTE PTR [eax],al
  109e1c:	12 00                	adc    al,BYTE PTR [eax]
  109e1e:	01 00                	add    DWORD PTR [eax],eax
  109e20:	0e                   	push   cs
  109e21:	0a 00                	or     al,BYTE PTR [eax]
  109e23:	00 09                	add    BYTE PTR [ecx],cl
  109e25:	18 10                	sbb    BYTE PTR [eax],dl
  109e27:	00 ef                	add    bh,ch
  109e29:	00 00                	add    BYTE PTR [eax],al
  109e2b:	00 12                	add    BYTE PTR [edx],dl
  109e2d:	00 01                	add    BYTE PTR [ecx],al
  109e2f:	00 18                	add    BYTE PTR [eax],bl
  109e31:	0a 00                	or     al,BYTE PTR [eax]
  109e33:	00 90 32 10 00 47    	add    BYTE PTR [eax+0x47001032],dl
  109e39:	00 00                	add    BYTE PTR [eax],al
  109e3b:	00 12                	add    BYTE PTR [edx],dl
  109e3d:	00 01                	add    BYTE PTR [ecx],al
  109e3f:	00 21                	add    BYTE PTR [ecx],ah
  109e41:	0a 00                	or     al,BYTE PTR [eax]
  109e43:	00 e8                	add    al,ch
  109e45:	15 10 00 0c 00       	adc    eax,0xc0010
  109e4a:	00 00                	add    BYTE PTR [eax],al
  109e4c:	12 00                	adc    al,BYTE PTR [eax]
  109e4e:	01 00                	add    DWORD PTR [eax],eax
  109e50:	30 0a                	xor    BYTE PTR [edx],cl
  109e52:	00 00                	add    BYTE PTR [eax],al
  109e54:	b5 00                	mov    ch,0x0
  109e56:	10 00                	adc    BYTE PTR [eax],al
  109e58:	e5 02                	in     eax,0x2
  109e5a:	00 00                	add    BYTE PTR [eax],al
  109e5c:	12 00                	adc    al,BYTE PTR [eax]
  109e5e:	01 00                	add    DWORD PTR [eax],eax
  109e60:	3c 0a                	cmp    al,0xa
  109e62:	00 00                	add    BYTE PTR [eax],al
  109e64:	e8 32 10 00 07       	call   0x710ae9b
  109e69:	02 00                	add    al,BYTE PTR [eax]
  109e6b:	00 12                	add    BYTE PTR [edx],dl
  109e6d:	00 01                	add    BYTE PTR [ecx],al
  109e6f:	00 5b 0a             	add    BYTE PTR [ebx+0xa],bl
  109e72:	00 00                	add    BYTE PTR [eax],al
  109e74:	48                   	dec    eax
  109e75:	35 10 00 00 00       	xor    eax,0x10
  109e7a:	00 00                	add    BYTE PTR [eax],al
  109e7c:	10 00                	adc    BYTE PTR [eax],al
  109e7e:	01 00                	add    DWORD PTR [eax],eax
  109e80:	6c                   	ins    BYTE PTR es:[edi],dx
  109e81:	0a 00                	or     al,BYTE PTR [eax]
  109e83:	00 91 48 10 00 0a    	add    BYTE PTR [ecx+0xa001048],dl
  109e89:	00 00                	add    BYTE PTR [eax],al
  109e8b:	00 12                	add    BYTE PTR [edx],dl
  109e8d:	00 01                	add    BYTE PTR [ecx],al
  109e8f:	00 80 0a 00 00 9c    	add    BYTE PTR [eax-0x63fffff6],al
  109e95:	35 10 00 00 00       	xor    eax,0x10
  109e9a:	00 00                	add    BYTE PTR [eax],al
  109e9c:	10 00                	adc    BYTE PTR [eax],al
  109e9e:	01 00                	add    DWORD PTR [eax],eax
  109ea0:	92                   	xchg   edx,eax
  109ea1:	0a 00                	or     al,BYTE PTR [eax]
  109ea3:	00 1d 51 10 00 37    	add    BYTE PTR ds:0x37001051,bl
  109ea9:	00 00                	add    BYTE PTR [eax],al
  109eab:	00 12                	add    BYTE PTR [edx],dl
  109ead:	00 01                	add    BYTE PTR [ecx],al
  109eaf:	00 a1 0a 00 00 39    	add    BYTE PTR [ecx+0x3900000a],ah
  109eb5:	4f                   	dec    edi
  109eb6:	10 00                	adc    BYTE PTR [eax],al
  109eb8:	d4 00                	aam    0x0
  109eba:	00 00                	add    BYTE PTR [eax],al
  109ebc:	12 00                	adc    al,BYTE PTR [eax]
  109ebe:	01 00                	add    DWORD PTR [eax],eax
  109ec0:	ac                   	lods   al,BYTE PTR ds:[esi]
  109ec1:	04 00                	add    al,0x0
  109ec3:	00 30                	add    BYTE PTR [eax],dh
  109ec5:	00 10                	add    BYTE PTR [eax],dl
  109ec7:	00 85 00 00 00 12    	add    BYTE PTR [ebp+0x12000000],al
  109ecd:	00 01                	add    BYTE PTR [ecx],al
  109ecf:	00 b0 0a 00 00 ec    	add    BYTE PTR [eax-0x13fffff6],dh
  109ed5:	9b                   	fwait
  109ed6:	11 00                	adc    DWORD PTR [eax],eax
  109ed8:	00 00                	add    BYTE PTR [eax],al
  109eda:	00 00                	add    BYTE PTR [eax],al
  109edc:	10 00                	adc    BYTE PTR [eax],al
  109ede:	04 00                	add    al,0x0
  109ee0:	bb 0a 00 00 fa       	mov    ebx,0xfa00000a
  109ee5:	30 10                	xor    BYTE PTR [eax],dl
  109ee7:	00 1e                	add    BYTE PTR [esi],bl
  109ee9:	00 00                	add    BYTE PTR [eax],al
  109eeb:	00 12                	add    BYTE PTR [edx],dl
  109eed:	00 01                	add    BYTE PTR [ecx],al
  109eef:	00 cd                	add    ch,cl
  109ef1:	0a 00                	or     al,BYTE PTR [eax]
  109ef3:	00 99 57 10 00 10    	add    BYTE PTR [ecx+0x10001057],bl
  109ef9:	00 00                	add    BYTE PTR [eax],al
  109efb:	00 12                	add    BYTE PTR [edx],dl
  109efd:	00 01                	add    BYTE PTR [ecx],al
  109eff:	00 de                	add    dh,bl
  109f01:	0a 00                	or     al,BYTE PTR [eax]
  109f03:	00 80 99 11 00 04    	add    BYTE PTR [eax+0x4001199],al
  109f09:	00 00                	add    BYTE PTR [eax],al
  109f0b:	00 11                	add    BYTE PTR [ecx],dl
  109f0d:	00 04 00             	add    BYTE PTR [eax+eax*1],al
  109f10:	f4                   	hlt
  109f11:	0a 00                	or     al,BYTE PTR [eax]
  109f13:	00 f9                	add    cl,bh
  109f15:	48                   	dec    eax
  109f16:	10 00                	adc    BYTE PTR [eax],al
  109f18:	f6 00 00             	test   BYTE PTR [eax],0x0
  109f1b:	00 12                	add    BYTE PTR [edx],dl
  109f1d:	00 01                	add    BYTE PTR [ecx],al
  109f1f:	00 04 0b             	add    BYTE PTR [ebx+ecx*1],al
  109f22:	00 00                	add    BYTE PTR [eax],al
  109f24:	ab                   	stos   DWORD PTR es:[edi],eax
  109f25:	0c 10                	or     al,0x10
  109f27:	00 50 00             	add    BYTE PTR [eax+0x0],dl
  109f2a:	00 00                	add    BYTE PTR [eax],al
  109f2c:	12 00                	adc    al,BYTE PTR [eax]
  109f2e:	01 00                	add    DWORD PTR [eax],eax
  109f30:	0e                   	push   cs
  109f31:	0b 00                	or     eax,DWORD PTR [eax]
  109f33:	00 43 12             	add    BYTE PTR [ebx+0x12],al
  109f36:	10 00                	adc    BYTE PTR [eax],al
  109f38:	1f                   	pop    ds
  109f39:	01 00                	add    DWORD PTR [eax],eax
  109f3b:	00 12                	add    BYTE PTR [edx],dl
  109f3d:	00 01                	add    BYTE PTR [ecx],al
  109f3f:	00 26                	add    BYTE PTR [esi],ah
  109f41:	0b 00                	or     eax,DWORD PTR [eax]
  109f43:	00 e0                	add    al,ah
  109f45:	35 10 00 00 00       	xor    eax,0x10
  109f4a:	00 00                	add    BYTE PTR [eax],al
  109f4c:	10 00                	adc    BYTE PTR [eax],al
  109f4e:	01 00                	add    DWORD PTR [eax],eax
  109f50:	30 0b                	xor    BYTE PTR [ebx],cl
  109f52:	00 00                	add    BYTE PTR [eax],al
  109f54:	3f                   	aas
  109f55:	14 10                	adc    al,0x10
  109f57:	00 32                	add    BYTE PTR [edx],dh
  109f59:	00 00                	add    BYTE PTR [eax],al
  109f5b:	00 12                	add    BYTE PTR [edx],dl
  109f5d:	00 01                	add    BYTE PTR [ecx],al
  109f5f:	00 41 0b             	add    BYTE PTR [ecx+0xb],al
  109f62:	00 00                	add    BYTE PTR [eax],al
  109f64:	30 35 10 00 00 00    	xor    BYTE PTR ds:0x10,dh
  109f6a:	00 00                	add    BYTE PTR [eax],al
  109f6c:	10 00                	adc    BYTE PTR [eax],al
  109f6e:	01 00                	add    DWORD PTR [eax],eax
  109f70:	52                   	push   edx
  109f71:	0b 00                	or     eax,DWORD PTR [eax]
  109f73:	00 7c 35 10          	add    BYTE PTR [ebp+esi*1+0x10],bh
  109f77:	00 00                	add    BYTE PTR [eax],al
  109f79:	00 00                	add    BYTE PTR [eax],al
  109f7b:	00 10                	add    BYTE PTR [eax],dl
  109f7d:	00 01                	add    BYTE PTR [ecx],al
  109f7f:	00 64 0b 00          	add    BYTE PTR [ebx+ecx*1+0x0],ah
  109f83:	00 6c 35 10          	add    BYTE PTR [ebp+esi*1+0x10],ch
  109f87:	00 00                	add    BYTE PTR [eax],al
  109f89:	00 00                	add    BYTE PTR [eax],al
  109f8b:	00 10                	add    BYTE PTR [eax],dl
  109f8d:	00 01                	add    BYTE PTR [ecx],al
  109f8f:	00 75 0b             	add    BYTE PTR [ebp+0xb],dh
  109f92:	00 00                	add    BYTE PTR [eax],al
  109f94:	25 30 10 00 0a       	and    eax,0xa001030
  109f99:	00 00                	add    BYTE PTR [eax],al
  109f9b:	00 12                	add    BYTE PTR [edx],dl
  109f9d:	00 01                	add    BYTE PTR [ecx],al
  109f9f:	00 88 0b 00 00 2d    	add    BYTE PTR [eax+0x2d00000b],cl
  109fa5:	57                   	push   edi
  109fa6:	10 00                	adc    BYTE PTR [eax],al
  109fa8:	5c                   	pop    esp
  109fa9:	00 00                	add    BYTE PTR [eax],al
  109fab:	00 12                	add    BYTE PTR [edx],dl
  109fad:	00 01                	add    BYTE PTR [ecx],al
  109faf:	00 94 0b 00 00 cc 28 	add    BYTE PTR [ebx+ecx*1+0x28cc0000],dl
  109fb6:	10 00                	adc    BYTE PTR [eax],al
  109fb8:	6e                   	outs   dx,BYTE PTR ds:[esi]
  109fb9:	00 00                	add    BYTE PTR [eax],al
  109fbb:	00 12                	add    BYTE PTR [edx],dl
  109fbd:	00 01                	add    BYTE PTR [ecx],al
  109fbf:	00 a9 0b 00 00 4e    	add    BYTE PTR [ecx+0x4e00000b],ch
  109fc5:	2a 10                	sub    dl,BYTE PTR [eax]
  109fc7:	00 b5 00 00 00 12    	add    BYTE PTR [ebp+0x12000000],dh
  109fcd:	00 01                	add    BYTE PTR [ecx],al
  109fcf:	00 bf 0b 00 00 54    	add    BYTE PTR [edi+0x5400000b],bh
  109fd5:	51                   	push   ecx
  109fd6:	10 00                	adc    BYTE PTR [eax],al
  109fd8:	0a 00                	or     al,BYTE PTR [eax]
  109fda:	00 00                	add    BYTE PTR [eax],al
  109fdc:	12 00                	adc    al,BYTE PTR [eax]
  109fde:	01 00                	add    DWORD PTR [eax],eax
  109fe0:	d9 0b                	(bad)  [ebx]
  109fe2:	00 00                	add    BYTE PTR [eax],al
  109fe4:	ec                   	in     al,dx
  109fe5:	0f 10 00             	movups xmm0,XMMWORD PTR [eax]
  109fe8:	51                   	push   ecx
  109fe9:	00 00                	add    BYTE PTR [eax],al
  109feb:	00 12                	add    BYTE PTR [edx],dl
  109fed:	00 01                	add    BYTE PTR [ecx],al
  109fef:	00 e7                	add    bh,ah
  109ff1:	0b 00                	or     eax,DWORD PTR [eax]
  109ff3:	00 58 35             	add    BYTE PTR [eax+0x35],bl
  109ff6:	10 00                	adc    BYTE PTR [eax],al
  109ff8:	00 00                	add    BYTE PTR [eax],al
  109ffa:	00 00                	add    BYTE PTR [eax],al
  109ffc:	10 00                	adc    BYTE PTR [eax],al
  109ffe:	01 00                	add    DWORD PTR [eax],eax
  10a000:	f8                   	clc
  10a001:	0b 00                	or     eax,DWORD PTR [eax]
  10a003:	00 a5 07 10 00 2e    	add    BYTE PTR [ebp+0x2e001007],ah
  10a009:	00 00                	add    BYTE PTR [eax],al
  10a00b:	00 12                	add    BYTE PTR [edx],dl
  10a00d:	00 01                	add    BYTE PTR [ecx],al
  10a00f:	00 07                	add    BYTE PTR [edi],al
  10a011:	0c 00                	or     al,0x0
  10a013:	00 9e 47 10 00 4b    	add    BYTE PTR [esi+0x4b001047],bl
  10a019:	00 00                	add    BYTE PTR [eax],al
  10a01b:	00 12                	add    BYTE PTR [edx],dl
  10a01d:	00 01                	add    BYTE PTR [ecx],al
  10a01f:	00 15 0c 00 00 d7    	add    BYTE PTR ds:0xd700000c,dl
  10a025:	32 10                	xor    dl,BYTE PTR [eax]
  10a027:	00 11                	add    BYTE PTR [ecx],dl
  10a029:	00 00                	add    BYTE PTR [eax],al
  10a02b:	00 12                	add    BYTE PTR [edx],dl
  10a02d:	00 01                	add    BYTE PTR [ecx],al
  10a02f:	00 1e                	add    BYTE PTR [esi],bl
  10a031:	0c 00                	or     al,0x0
  10a033:	00 c0                	add    al,al
  10a035:	19 10                	sbb    DWORD PTR [eax],edx
  10a037:	00 a4 00 00 00 12 00 	add    BYTE PTR [eax+eax*1+0x120000],ah
  10a03e:	01 00                	add    DWORD PTR [eax],eax
  10a040:	2c 0c                	sub    al,0xc
  10a042:	00 00                	add    BYTE PTR [eax],al
  10a044:	25 0f 10 00 0a       	and    eax,0xa00100f
  10a049:	00 00                	add    BYTE PTR [eax],al
  10a04b:	00 12                	add    BYTE PTR [edx],dl
  10a04d:	00 01                	add    BYTE PTR [ecx],al
  10a04f:	00 3a                	add    BYTE PTR [edx],bh
  10a051:	0c 00                	or     al,0x0
  10a053:	00 5e 28             	add    BYTE PTR [esi+0x28],bl
  10a056:	10 00                	adc    BYTE PTR [eax],al
  10a058:	6e                   	outs   dx,BYTE PTR ds:[esi]
  10a059:	00 00                	add    BYTE PTR [eax],al
  10a05b:	00 12                	add    BYTE PTR [edx],dl
  10a05d:	00 01                	add    BYTE PTR [ecx],al
  10a05f:	00 4f 0c             	add    BYTE PTR [edi+0xc],cl
  10a062:	00 00                	add    BYTE PTR [eax],al
  10a064:	c7                   	(bad)
  10a065:	27                   	daa
  10a066:	10 00                	adc    BYTE PTR [eax],al
  10a068:	0a 00                	or     al,BYTE PTR [eax]
  10a06a:	00 00                	add    BYTE PTR [eax],al
  10a06c:	12 00                	adc    al,BYTE PTR [eax]
  10a06e:	01 00                	add    DWORD PTR [eax],eax
  10a070:	63 0c 00             	arpl   WORD PTR [eax+eax*1],ecx
  10a073:	00 45 52             	add    BYTE PTR [ebp+0x52],al
  10a076:	10 00                	adc    BYTE PTR [eax],al
  10a078:	89 00                	mov    DWORD PTR [eax],eax
  10a07a:	00 00                	add    BYTE PTR [eax],al
  10a07c:	12 00                	adc    al,BYTE PTR [eax]
  10a07e:	01 00                	add    DWORD PTR [eax],eax
  10a080:	79 0c                	jns    0x10a08e
  10a082:	00 00                	add    BYTE PTR [eax],al
  10a084:	dc 15 10 00 0c 00    	fcom   QWORD PTR ds:0xc0010
  10a08a:	00 00                	add    BYTE PTR [eax],al
  10a08c:	12 00                	adc    al,BYTE PTR [eax]
  10a08e:	01 00                	add    DWORD PTR [eax],eax
  10a090:	87 0c 00             	xchg   DWORD PTR [eax+eax*1],ecx
  10a093:	00 d1                	add    cl,dl
  10a095:	27                   	daa
  10a096:	10 00                	adc    BYTE PTR [eax],al
  10a098:	0a 00                	or     al,BYTE PTR [eax]
  10a09a:	00 00                	add    BYTE PTR [eax],al
  10a09c:	12 00                	adc    al,BYTE PTR [eax]
  10a09e:	01 00                	add    DWORD PTR [eax],eax
  10a0a0:	99                   	cdq
  10a0a1:	0c 00                	or     al,0x0
  10a0a3:	00 39                	add    BYTE PTR [ecx],bh
  10a0a5:	30 10                	xor    BYTE PTR [eax],dl
  10a0a7:	00 3c 00             	add    BYTE PTR [eax+eax*1],bh
  10a0aa:	00 00                	add    BYTE PTR [eax],al
  10a0ac:	12 00                	adc    al,BYTE PTR [eax]
  10a0ae:	01 00                	add    DWORD PTR [eax],eax
  10a0b0:	af                   	scas   eax,DWORD PTR es:[edi]
  10a0b1:	0c 00                	or     al,0x0
  10a0b3:	00 90 35 10 00 00    	add    BYTE PTR [eax+0x1035],dl
  10a0b9:	00 00                	add    BYTE PTR [eax],al
  10a0bb:	00 10                	add    BYTE PTR [eax],dl
  10a0bd:	00 01                	add    BYTE PTR [ecx],al
  10a0bf:	00 c1                	add    cl,al
  10a0c1:	0c 00                	or     al,0x0
  10a0c3:	00 b3 27 10 00 0a    	add    BYTE PTR [ebx+0xa001027],dh
  10a0c9:	00 00                	add    BYTE PTR [eax],al
  10a0cb:	00 12                	add    BYTE PTR [edx],dl
  10a0cd:	00 01                	add    BYTE PTR [ecx],al
  10a0cf:	00 cd                	add    ch,cl
  10a0d1:	0c 00                	or     al,0x0
  10a0d3:	00 eb                	add    bl,ch
  10a0d5:	51                   	push   ecx
  10a0d6:	10 00                	adc    BYTE PTR [eax],al
  10a0d8:	2d 00 00 00 12       	sub    eax,0x12000000
  10a0dd:	00 01                	add    BYTE PTR [ecx],al
  10a0df:	00 de                	add    dh,bl
  10a0e1:	0c 00                	or     al,0x0
  10a0e3:	00 40 35             	add    BYTE PTR [eax+0x35],al
  10a0e6:	10 00                	adc    BYTE PTR [eax],al
  10a0e8:	00 00                	add    BYTE PTR [eax],al
  10a0ea:	00 00                	add    BYTE PTR [eax],al
  10a0ec:	10 00                	adc    BYTE PTR [eax],al
  10a0ee:	01 00                	add    DWORD PTR [eax],eax
  10a0f0:	ef                   	out    dx,eax
  10a0f1:	0c 00                	or     al,0x0
  10a0f3:	00 3d 45 10 00 88    	add    BYTE PTR ds:0x88001045,bh
  10a0f9:	01 00                	add    DWORD PTR [eax],eax
  10a0fb:	00 12                	add    BYTE PTR [edx],dl
  10a0fd:	00 01                	add    BYTE PTR [ecx],al
  10a0ff:	00 f8                	add    al,bh
  10a101:	0c 00                	or     al,0x0
  10a103:	00 71 14             	add    BYTE PTR [ecx+0x14],dh
  10a106:	10 00                	adc    BYTE PTR [eax],al
  10a108:	63 00                	arpl   WORD PTR [eax],eax
  10a10a:	00 00                	add    BYTE PTR [eax],al
  10a10c:	12 00                	adc    al,BYTE PTR [eax]
  10a10e:	01 00                	add    DWORD PTR [eax],eax
  10a110:	0b 0d 00 00 8f 0f    	or     ecx,DWORD PTR ds:0xf8f0000
  10a116:	10 00                	adc    BYTE PTR [eax],al
  10a118:	5d                   	pop    ebp
  10a119:	00 00                	add    BYTE PTR [eax],al
  10a11b:	00 12                	add    BYTE PTR [edx],dl
  10a11d:	00 01                	add    BYTE PTR [ecx],al
  10a11f:	00 15 0d 00 00 7d    	add    BYTE PTR ds:0x7d00000d,dl
  10a125:	48                   	dec    eax
  10a126:	10 00                	adc    BYTE PTR [eax],al
  10a128:	14 00                	adc    al,0x0
  10a12a:	00 00                	add    BYTE PTR [eax],al
  10a12c:	12 00                	adc    al,BYTE PTR [eax]
  10a12e:	01 00                	add    DWORD PTR [eax],eax
  10a130:	28 0d 00 00 3d 10    	sub    BYTE PTR ds:0x103d0000,cl
  10a136:	10 00                	adc    BYTE PTR [eax],al
  10a138:	aa                   	stos   BYTE PTR es:[edi],al
  10a139:	00 00                	add    BYTE PTR [eax],al
  10a13b:	00 12                	add    BYTE PTR [edx],dl
  10a13d:	00 01                	add    BYTE PTR [ecx],al
  10a13f:	00 34 0d 00 00 88 50 	add    BYTE PTR [ecx*1+0x50880000],dh
  10a146:	10 00                	adc    BYTE PTR [eax],al
  10a148:	1b 00                	sbb    eax,DWORD PTR [eax]
  10a14a:	00 00                	add    BYTE PTR [eax],al
  10a14c:	12 00                	adc    al,BYTE PTR [eax]
  10a14e:	01 00                	add    DWORD PTR [eax],eax
  10a150:	40                   	inc    eax
  10a151:	0d 00 00 78 35       	or     eax,0x35780000
  10a156:	10 00                	adc    BYTE PTR [eax],al
  10a158:	00 00                	add    BYTE PTR [eax],al
  10a15a:	00 00                	add    BYTE PTR [eax],al
  10a15c:	10 00                	adc    BYTE PTR [eax],al
  10a15e:	01 00                	add    DWORD PTR [eax],eax
  10a160:	52                   	push   edx
  10a161:	0d 00 00 00 80       	or     eax,0x80000000
  10a166:	10 00                	adc    BYTE PTR [eax],al
  10a168:	00 00                	add    BYTE PTR [eax],al
  10a16a:	00 00                	add    BYTE PTR [eax],al
  10a16c:	10 00                	adc    BYTE PTR [eax],al
  10a16e:	03 00                	add    eax,DWORD PTR [eax]
  10a170:	60                   	pusha
  10a171:	0d 00 00 f7 50       	or     eax,0x50f70000
  10a176:	10 00                	adc    BYTE PTR [eax],al
  10a178:	26 00 00             	add    BYTE PTR es:[eax],al
  10a17b:	00 12                	add    BYTE PTR [edx],dl
  10a17d:	00 01                	add    BYTE PTR [ecx],al
  10a17f:	00 69 0d             	add    BYTE PTR [ecx+0xd],ch
  10a182:	00 00                	add    BYTE PTR [eax],al
  10a184:	1d 4b 10 00 e2       	sbb    eax,0xe200104b
  10a189:	00 00                	add    BYTE PTR [eax],al
  10a18b:	00 12                	add    BYTE PTR [edx],dl
  10a18d:	00 01                	add    BYTE PTR [ecx],al
  10a18f:	00 75 0d             	add    BYTE PTR [ebp+0xd],dh
  10a192:	00 00                	add    BYTE PTR [eax],al
  10a194:	5e                   	pop    esi
  10a195:	51                   	push   ecx
  10a196:	10 00                	adc    BYTE PTR [eax],al
  10a198:	8d 00                	lea    eax,[eax]
  10a19a:	00 00                	add    BYTE PTR [eax],al
  10a19c:	12 00                	adc    al,BYTE PTR [eax]
  10a19e:	01 00                	add    DWORD PTR [eax],eax
  10a1a0:	84 0d 00 00 af 15    	test   BYTE PTR ds:0x15af0000,cl
  10a1a6:	10 00                	adc    BYTE PTR [eax],al
  10a1a8:	2d 00 00 00 12       	sub    eax,0x12000000
  10a1ad:	00 01                	add    BYTE PTR [ecx],al
  10a1af:	00 9d 0d 00 00 98    	add    BYTE PTR [ebp-0x67fffff3],bl
  10a1b5:	05 10 00 d4 00       	add    eax,0xd40010
  10a1ba:	00 00                	add    BYTE PTR [eax],al
  10a1bc:	12 00                	adc    al,BYTE PTR [eax]
  10a1be:	01 00                	add    DWORD PTR [eax],eax
  10a1c0:	a9 0d 00 00 43       	test   eax,0x4300000d
  10a1c5:	15 10 00 6c 00       	adc    eax,0x6c0010
  10a1ca:	00 00                	add    BYTE PTR [eax],al
  10a1cc:	12 00                	adc    al,BYTE PTR [eax]
  10a1ce:	01 00                	add    DWORD PTR [eax],eax
  10a1d0:	c2 0d 00             	ret    0xd
  10a1d3:	00 e7                	add    bh,ah
  10a1d5:	10 10                	adc    BYTE PTR [eax],dl
  10a1d7:	00 7b 00             	add    BYTE PTR [ebx+0x0],bh
  10a1da:	00 00                	add    BYTE PTR [eax],al
  10a1dc:	12 00                	adc    al,BYTE PTR [eax]
  10a1de:	01 00                	add    DWORD PTR [eax],eax
  10a1e0:	cf                   	iret
  10a1e1:	0d 00 00 fb 0c       	or     eax,0xcfb0000
  10a1e6:	10 00                	adc    BYTE PTR [eax],al
  10a1e8:	5d                   	pop    ebp
  10a1e9:	00 00                	add    BYTE PTR [eax],al
  10a1eb:	00 12                	add    BYTE PTR [edx],dl
  10a1ed:	00 01                	add    BYTE PTR [ecx],al
  10a1ef:	00 e0                	add    al,ah
  10a1f1:	0d 00 00 62 11       	or     eax,0x11620000
  10a1f6:	10 00                	adc    BYTE PTR [eax],al
  10a1f8:	e1 00                	loope  0x10a1fa
  10a1fa:	00 00                	add    BYTE PTR [eax],al
  10a1fc:	12 00                	adc    al,BYTE PTR [eax]
  10a1fe:	01 00                	add    DWORD PTR [eax],eax
  10a200:	ea 0d 00 00 ce 52 10 	jmp    0x1052:0xce00000d
  10a207:	00 00                	add    BYTE PTR [eax],al
  10a209:	00 00                	add    BYTE PTR [eax],al
  10a20b:	00 10                	add    BYTE PTR [eax],dl
  10a20d:	00 01                	add    BYTE PTR [ecx],al
  10a20f:	00 f9                	add    cl,bh
  10a211:	0d 00 00 cd 4c       	or     eax,0x4ccd0000
  10a216:	10 00                	adc    BYTE PTR [eax],al
  10a218:	94                   	xchg   esp,eax
  10a219:	00 00                	add    BYTE PTR [eax],al
  10a21b:	00 12                	add    BYTE PTR [edx],dl
  10a21d:	00 01                	add    BYTE PTR [ecx],al
  10a21f:	00 01                	add    BYTE PTR [ecx],al
  10a221:	0e                   	push   cs
  10a222:	00 00                	add    BYTE PTR [eax],al
  10a224:	44                   	inc    esp
  10a225:	90                   	nop
  10a226:	11 00                	adc    DWORD PTR [eax],eax
  10a228:	04 00                	add    al,0x0
  10a22a:	00 00                	add    BYTE PTR [eax],al
  10a22c:	11 00                	adc    DWORD PTR [eax],eax
  10a22e:	04 00                	add    al,0x0
  10a230:	09 0e                	or     DWORD PTR [esi],ecx
  10a232:	00 00                	add    BYTE PTR [eax],al
  10a234:	1f                   	pop    ds
  10a235:	1f                   	pop    ds
  10a236:	10 00                	adc    BYTE PTR [eax],al
  10a238:	60                   	pusha
  10a239:	03 00                	add    eax,DWORD PTR [eax]
  10a23b:	00 12                	add    BYTE PTR [edx],dl
  10a23d:	00 01                	add    BYTE PTR [ecx],al
  10a23f:	00 14 0e             	add    BYTE PTR [esi+ecx*1],dl
  10a242:	00 00                	add    BYTE PTR [eax],al
  10a244:	00 90 11 00 04 00    	add    BYTE PTR [eax+0x40011],dl
  10a24a:	00 00                	add    BYTE PTR [eax],al
  10a24c:	11 00                	adc    DWORD PTR [eax],eax
  10a24e:	04 00                	add    al,0x0
  10a250:	29 0e                	sub    DWORD PTR [esi],ecx
  10a252:	00 00                	add    BYTE PTR [eax],al
  10a254:	11 14 10             	adc    DWORD PTR [eax+edx*1],edx
  10a257:	00 2e                	add    BYTE PTR [esi],ch
  10a259:	00 00                	add    BYTE PTR [eax],al
  10a25b:	00 12                	add    BYTE PTR [edx],dl
  10a25d:	00 01                	add    BYTE PTR [ecx],al
  10a25f:	00 3b                	add    BYTE PTR [ebx],bh
  10a261:	0e                   	push   cs
  10a262:	00 00                	add    BYTE PTR [eax],al
  10a264:	3a 4a 10             	cmp    cl,BYTE PTR [edx+0x10]
  10a267:	00 44 00 00          	add    BYTE PTR [eax+eax*1+0x0],al
  10a26b:	00 12                	add    BYTE PTR [edx],dl
  10a26d:	00 01                	add    BYTE PTR [ecx],al
  10a26f:	00 49 0e             	add    BYTE PTR [ecx+0xe],cl
  10a272:	00 00                	add    BYTE PTR [eax],al
  10a274:	1c 04                	sbb    al,0x4
  10a276:	10 00                	adc    BYTE PTR [eax],al
  10a278:	92                   	xchg   edx,eax
  10a279:	00 00                	add    BYTE PTR [eax],al
  10a27b:	00 12                	add    BYTE PTR [edx],dl
  10a27d:	00 01                	add    BYTE PTR [ecx],al
  10a27f:	00 57 0e             	add    BYTE PTR [edi+0xe],dl
  10a282:	00 00                	add    BYTE PTR [eax],al
  10a284:	2f                   	das
  10a285:	0f 10 00             	movups xmm0,XMMWORD PTR [eax]
  10a288:	0a 00                	or     al,BYTE PTR [eax]
  10a28a:	00 00                	add    BYTE PTR [eax],al
  10a28c:	12 00                	adc    al,BYTE PTR [eax]
  10a28e:	01 00                	add    DWORD PTR [eax],eax
  10a290:	66 0e                	pushw  cs
  10a292:	00 00                	add    BYTE PTR [eax],al
  10a294:	75 30                	jne    0x10a2c6
  10a296:	10 00                	adc    BYTE PTR [eax],al
  10a298:	85 00                	test   DWORD PTR [eax],eax
  10a29a:	00 00                	add    BYTE PTR [eax],al
  10a29c:	12 00                	adc    al,BYTE PTR [eax]
  10a29e:	01 00                	add    DWORD PTR [eax],eax
  10a2a0:	74 0e                	je     0x10a2b0
  10a2a2:	00 00                	add    BYTE PTR [eax],al
  10a2a4:	39 07                	cmp    DWORD PTR [edi],eax
  10a2a6:	10 00                	adc    BYTE PTR [eax],al
  10a2a8:	5b                   	pop    ebx
  10a2a9:	00 00                	add    BYTE PTR [eax],al
  10a2ab:	00 12                	add    BYTE PTR [edx],dl
  10a2ad:	00 01                	add    BYTE PTR [ecx],al
  10a2af:	00 80 0e 00 00 ef    	add    BYTE PTR [eax-0x10fffff2],al
  10a2b5:	53                   	push   ebx
  10a2b6:	10 00                	adc    BYTE PTR [eax],al
  10a2b8:	0b 00                	or     eax,DWORD PTR [eax]
  10a2ba:	00 00                	add    BYTE PTR [eax],al
  10a2bc:	12 00                	adc    al,BYTE PTR [eax]
  10a2be:	01 00                	add    DWORD PTR [eax],eax
  10a2c0:	91                   	xchg   ecx,eax
  10a2c1:	0e                   	push   cs
  10a2c2:	00 00                	add    BYTE PTR [eax],al
  10a2c4:	a4                   	movs   BYTE PTR es:[edi],BYTE PTR ds:[esi]
  10a2c5:	1b 10                	sbb    edx,DWORD PTR [eax]
  10a2c7:	00 f8                	add    al,bh
  10a2c9:	01 00                	add    DWORD PTR [eax],eax
  10a2cb:	00 12                	add    BYTE PTR [edx],dl
  10a2cd:	00 01                	add    BYTE PTR [ecx],al
  10a2cf:	00 9e 0e 00 00 28    	add    BYTE PTR [esi+0x2800000e],bl
  10a2d5:	35 10 00 00 00       	xor    eax,0x10
  10a2da:	00 00                	add    BYTE PTR [eax],al
  10a2dc:	10 00                	adc    BYTE PTR [eax],al
  10a2de:	01 00                	add    DWORD PTR [eax],eax
  10a2e0:	af                   	scas   eax,DWORD PTR es:[edi]
  10a2e1:	0e                   	push   cs
  10a2e2:	00 00                	add    BYTE PTR [eax],al
  10a2e4:	ff 0d 10 00 37 00    	dec    DWORD PTR ds:0x370010
  10a2ea:	00 00                	add    BYTE PTR [eax],al
  10a2ec:	12 00                	adc    al,BYTE PTR [eax]
  10a2ee:	01 00                	add    DWORD PTR [eax],eax
  10a2f0:	bc 0e 00 00 68       	mov    esp,0x6800000e
  10a2f5:	35 10 00 00 00       	xor    eax,0x10
  10a2fa:	00 00                	add    BYTE PTR [eax],al
  10a2fc:	10 00                	adc    BYTE PTR [eax],al
  10a2fe:	01 00                	add    DWORD PTR [eax],eax
  10a300:	cd 0e                	int    0xe
  10a302:	00 00                	add    BYTE PTR [eax],al
  10a304:	ae                   	scas   al,BYTE PTR es:[edi]
  10a305:	04 10                	add    al,0x10
  10a307:	00 ea                	add    dl,ch
  10a309:	00 00                	add    BYTE PTR [eax],al
  10a30b:	00 12                	add    BYTE PTR [edx],dl
  10a30d:	00 01                	add    BYTE PTR [ecx],al
  10a30f:	00 d7                	add    bh,dl
  10a311:	0e                   	push   cs
  10a312:	00 00                	add    BYTE PTR [eax],al
  10a314:	74 35                	je     0x10a34b
  10a316:	10 00                	adc    BYTE PTR [eax],al
  10a318:	00 00                	add    BYTE PTR [eax],al
  10a31a:	00 00                	add    BYTE PTR [eax],al
  10a31c:	10 00                	adc    BYTE PTR [eax],al
  10a31e:	01 00                	add    DWORD PTR [eax],eax
  10a320:	e9 0e 00 00 88       	jmp    0x8810a333
  10a325:	35 10 00 00 00       	xor    eax,0x10
  10a32a:	00 00                	add    BYTE PTR [eax],al
  10a32c:	10 00                	adc    BYTE PTR [eax],al
  10a32e:	01 00                	add    DWORD PTR [eax],eax
  10a330:	fb                   	sti
  10a331:	0e                   	push   cs
  10a332:	00 00                	add    BYTE PTR [eax],al
  10a334:	9a 03 10 00 56 00 00 	call   0x0:0x56001003
  10a33b:	00 12                	add    BYTE PTR [edx],dl
  10a33d:	00 01                	add    BYTE PTR [ecx],al
  10a33f:	00 05 0f 00 00 8d    	add    BYTE PTR ds:0x8d00000f,al
  10a345:	3d 10 00 48 00       	cmp    eax,0x480010
  10a34a:	00 00                	add    BYTE PTR [eax],al
  10a34c:	12 00                	adc    al,BYTE PTR [eax]
  10a34e:	01 00                	add    DWORD PTR [eax],eax
  10a350:	00 62 6f             	add    BYTE PTR [edx+0x6f],ah
  10a353:	6f                   	outs   dx,DWORD PTR ds:[esi]
  10a354:	74 2e                	je     0x10a384
  10a356:	6f                   	outs   dx,DWORD PTR ds:[esi]
  10a357:	00 41 4c             	add    BYTE PTR [ecx+0x4c],al
  10a35a:	49                   	dec    ecx
  10a35b:	47                   	inc    edi
  10a35c:	4e                   	dec    esi
  10a35d:	00 4d 45             	add    BYTE PTR [ebp+0x45],cl
  10a360:	4d                   	dec    ebp
  10a361:	49                   	dec    ecx
  10a362:	4e                   	dec    esi
  10a363:	46                   	inc    esi
  10a364:	4f                   	dec    edi
  10a365:	00 56 49             	add    BYTE PTR [esi+0x49],dl
  10a368:	44                   	inc    esp
  10a369:	45                   	inc    ebp
  10a36a:	4f                   	dec    edi
  10a36b:	5f                   	pop    edi
  10a36c:	4d                   	dec    ebp
  10a36d:	4f                   	dec    edi
  10a36e:	44                   	inc    esp
  10a36f:	45                   	inc    ebp
  10a370:	00 46 4c             	add    BYTE PTR [esi+0x4c],al
  10a373:	41                   	inc    ecx
  10a374:	47                   	inc    edi
  10a375:	53                   	push   ebx
  10a376:	00 4d 41             	add    BYTE PTR [ebp+0x41],cl
  10a379:	47                   	inc    edi
  10a37a:	49                   	dec    ecx
  10a37b:	43                   	inc    ebx
  10a37c:	00 43 48             	add    BYTE PTR [ebx+0x48],al
  10a37f:	45                   	inc    ebp
  10a380:	43                   	inc    ebx
  10a381:	4b                   	dec    ebx
  10a382:	53                   	push   ebx
  10a383:	55                   	push   ebp
  10a384:	4d                   	dec    ebp
  10a385:	00 73 74             	add    BYTE PTR [ebx+0x74],dh
  10a388:	61                   	popa
  10a389:	63 6b 5f             	arpl   WORD PTR [ebx+0x5f],ebp
  10a38c:	62 6f 74             	bound  ebp,QWORD PTR [edi+0x74]
  10a38f:	74 6f                	je     0x10a400
  10a391:	6d                   	ins    DWORD PTR es:[edi],dx
  10a392:	00 73 6b             	add    BYTE PTR [ebx+0x6b],dh
  10a395:	69 70 5f 76 62 65 5f 	imul   esi,DWORD PTR [eax+0x5f],0x5f656276
  10a39c:	73 65                	jae    0x10a403
  10a39e:	74 75                	je     0x10a415
  10a3a0:	70 00                	jo     0x10a3a2
  10a3a2:	6c                   	ins    BYTE PTR es:[edi],dx
  10a3a3:	6f                   	outs   dx,DWORD PTR ds:[esi]
  10a3a4:	61                   	popa
  10a3a5:	64 5f                	fs pop edi
  10a3a7:	73 79                	jae    0x10a422
  10a3a9:	73 6d                	jae    0x10a418
  10a3ab:	61                   	popa
  10a3ac:	6e                   	outs   dx,BYTE PTR ds:[esi]
  10a3ad:	5f                   	pop    edi
  10a3ae:	6d                   	ins    DWORD PTR es:[edi],dx
  10a3af:	6f                   	outs   dx,DWORD PTR ds:[esi]
  10a3b0:	64 75 6c             	fs jne 0x10a41f
  10a3b3:	65 00 6c 6f 61       	add    BYTE PTR gs:[edi+ebp*2+0x61],ch
  10a3b8:	64 5f                	fs pop edi
  10a3ba:	73 79                	jae    0x10a435
  10a3bc:	73 6d                	jae    0x10a42b
  10a3be:	61                   	popa
  10a3bf:	6e                   	outs   dx,BYTE PTR ds:[esi]
  10a3c0:	5f                   	pop    edi
  10a3c1:	64 6f                	outs   dx,DWORD PTR fs:[esi]
  10a3c3:	6e                   	outs   dx,BYTE PTR ds:[esi]
  10a3c4:	65 00 6b 65          	add    BYTE PTR gs:[ebx+0x65],ch
  10a3c8:	72 6e                	jb     0x10a438
  10a3ca:	65 6c                	gs ins BYTE PTR es:[edi],dx
  10a3cc:	2e 63 00             	arpl   WORD PTR cs:[eax],eax
  10a3cf:	76 67                	jbe    0x10a438
  10a3d1:	61                   	popa
  10a3d2:	2e 63 00             	arpl   WORD PTR cs:[eax],eax
  10a3d5:	76 67                	jbe    0x10a43e
  10a3d7:	61                   	popa
  10a3d8:	00 76 67             	add    BYTE PTR [esi+0x67],dh
  10a3db:	61                   	popa
  10a3dc:	5f                   	pop    edi
  10a3dd:	78 00                	js     0x10a3df
  10a3df:	76 67                	jbe    0x10a448
  10a3e1:	61                   	popa
  10a3e2:	5f                   	pop    edi
  10a3e3:	79 00                	jns    0x10a3e5
  10a3e5:	76 67                	jbe    0x10a44e
  10a3e7:	61                   	popa
  10a3e8:	5f                   	pop    edi
  10a3e9:	63 75 72             	arpl   WORD PTR [ebp+0x72],esi
  10a3ec:	72 65                	jb     0x10a453
  10a3ee:	6e                   	outs   dx,BYTE PTR ds:[esi]
  10a3ef:	74 5f                	je     0x10a450
  10a3f1:	61                   	popa
  10a3f2:	74 74                	je     0x10a468
  10a3f4:	72 00                	jb     0x10a3f6
  10a3f6:	67 72 61             	addr16 jb 0x10a45a
  10a3f9:	70 68                	jo     0x10a463
  10a3fb:	69 63 73 2e 63 00 76 	imul   esp,DWORD PTR [ebx+0x73],0x7600632e
  10a402:	69 64 65 6f 5f 6d 65 	imul   esp,DWORD PTR [ebp+eiz*2+0x6f],0x6d656d5f
  10a409:	6d 
  10a40a:	00 6f 75             	add    BYTE PTR [edi+0x75],ch
  10a40d:	74 62                	je     0x10a471
  10a40f:	00 69 6e             	add    BYTE PTR [ecx+0x6e],ch
  10a412:	62 00                	bound  eax,QWORD PTR [eax]
  10a414:	76 62                	jbe    0x10a478
  10a416:	65 2e 63 00          	gs arpl WORD PTR cs:[eax],eax
  10a41a:	66 72 61             	data16 jb 0x10a47e
  10a41d:	6d                   	ins    DWORD PTR es:[edi],dx
  10a41e:	65 62 75 66          	bound  esi,QWORD PTR gs:[ebp+0x66]
  10a422:	66 65 72 00          	data16 gs jb 0x10a426
  10a426:	73 63                	jae    0x10a48b
  10a428:	72 65                	jb     0x10a48f
  10a42a:	65 6e                	outs   dx,BYTE PTR gs:[esi]
  10a42c:	5f                   	pop    edi
  10a42d:	77 69                	ja     0x10a498
  10a42f:	64 74 68             	fs je  0x10a49a
  10a432:	00 73 63             	add    BYTE PTR [ebx+0x63],dh
  10a435:	72 65                	jb     0x10a49c
  10a437:	65 6e                	outs   dx,BYTE PTR gs:[esi]
  10a439:	5f                   	pop    edi
  10a43a:	68 65 69 67 68       	push   0x68676965
  10a43f:	74 00                	je     0x10a441
  10a441:	73 63                	jae    0x10a4a6
  10a443:	72 65                	jb     0x10a4aa
  10a445:	65 6e                	outs   dx,BYTE PTR gs:[esi]
  10a447:	5f                   	pop    edi
  10a448:	70 69                	jo     0x10a4b3
  10a44a:	74 63                	je     0x10a4af
  10a44c:	68 00 62 69 74       	push   0x74696200
  10a451:	73 5f                	jae    0x10a4b2
  10a453:	70 65                	jo     0x10a4ba
  10a455:	72 5f                	jb     0x10a4b6
  10a457:	70 69                	jo     0x10a4c2
  10a459:	78 65                	js     0x10a4c0
  10a45b:	6c                   	ins    BYTE PTR es:[edi],dx
  10a45c:	00 63 75             	add    BYTE PTR [ebx+0x75],ah
  10a45f:	72 73                	jb     0x10a4d4
  10a461:	6f                   	outs   dx,DWORD PTR ds:[esi]
  10a462:	72 5f                	jb     0x10a4c3
  10a464:	78 00                	js     0x10a466
  10a466:	63 75 72             	arpl   WORD PTR [ebp+0x72],esi
  10a469:	73 6f                	jae    0x10a4da
  10a46b:	72 5f                	jb     0x10a4cc
  10a46d:	79 00                	jns    0x10a46f
  10a46f:	66 6f                	outs   dx,WORD PTR ds:[esi]
  10a471:	6e                   	outs   dx,BYTE PTR ds:[esi]
  10a472:	74 5f                	je     0x10a4d3
  10a474:	38 78 31             	cmp    BYTE PTR [eax+0x31],bh
  10a477:	36 00 62 67          	add    BYTE PTR ss:[edx+0x67],ah
  10a47b:	61                   	popa
  10a47c:	2e 63 00             	arpl   WORD PTR cs:[eax],eax
  10a47f:	73 63                	jae    0x10a4e4
  10a481:	72 65                	jb     0x10a4e8
  10a483:	65 6e                	outs   dx,BYTE PTR gs:[esi]
  10a485:	5f                   	pop    edi
  10a486:	62 70 70             	bound  esi,QWORD PTR [eax+0x70]
  10a489:	00 6f 75             	add    BYTE PTR [edi+0x75],ch
  10a48c:	74 77                	je     0x10a505
  10a48e:	00 69 6e             	add    BYTE PTR [ecx+0x6e],ch
  10a491:	77 00                	ja     0x10a493
  10a493:	6f                   	outs   dx,DWORD PTR ds:[esi]
  10a494:	75 74                	jne    0x10a50a
  10a496:	6c                   	ins    BYTE PTR es:[edi],dx
  10a497:	00 69 6e             	add    BYTE PTR [ecx+0x6e],ch
  10a49a:	6c                   	ins    BYTE PTR es:[edi],dx
  10a49b:	00 70 63             	add    BYTE PTR [eax+0x63],dh
  10a49e:	69 5f 72 65 61 64 5f 	imul   ebx,DWORD PTR [edi+0x72],0x5f646165
  10a4a5:	63 6f 6e             	arpl   WORD PTR [edi+0x6e],ebp
  10a4a8:	66 69 67 00 62 67    	imul   sp,WORD PTR [edi+0x0],0x6762
  10a4ae:	61                   	popa
  10a4af:	5f                   	pop    edi
  10a4b0:	70 75                	jo     0x10a527
  10a4b2:	74 63                	je     0x10a517
  10a4b4:	68 61 72 00 6d       	push   0x6d007261
  10a4b9:	6f                   	outs   dx,DWORD PTR ds:[esi]
  10a4ba:	75 73                	jne    0x10a52f
  10a4bc:	65 2e 63 00          	gs arpl WORD PTR cs:[eax],eax
  10a4c0:	70 61                	jo     0x10a523
  10a4c2:	63 6b 65             	arpl   WORD PTR [ebx+0x65],ebp
  10a4c5:	74 00                	je     0x10a4c7
  10a4c7:	70 61                	jo     0x10a52a
  10a4c9:	63 6b 65             	arpl   WORD PTR [ebx+0x65],ebp
  10a4cc:	74 5f                	je     0x10a52d
  10a4ce:	62 79 74             	bound  edi,QWORD PTR [ecx+0x74]
  10a4d1:	65 00 6d 6f          	add    BYTE PTR gs:[ebp+0x6f],ch
  10a4d5:	75 73                	jne    0x10a54a
  10a4d7:	65 5f                	gs pop edi
  10a4d9:	72 65                	jb     0x10a540
  10a4db:	61                   	popa
  10a4dc:	64 79 00             	fs jns 0x10a4df
  10a4df:	73 65                	jae    0x10a546
  10a4e1:	72 69                	jb     0x10a54c
  10a4e3:	61                   	popa
  10a4e4:	6c                   	ins    BYTE PTR es:[edi],dx
  10a4e5:	5f                   	pop    edi
  10a4e6:	70 75                	jo     0x10a55d
  10a4e8:	74 63                	je     0x10a54d
  10a4ea:	00 73 65             	add    BYTE PTR [ebx+0x65],dh
  10a4ed:	72 69                	jb     0x10a558
  10a4ef:	61                   	popa
  10a4f0:	6c                   	ins    BYTE PTR es:[edi],dx
  10a4f1:	5f                   	pop    edi
  10a4f2:	70 72                	jo     0x10a566
  10a4f4:	69 6e 74 00 73 65 72 	imul   ebp,DWORD PTR [esi+0x74],0x72657300
  10a4fb:	69 61 6c 5f 68 65 78 	imul   esp,DWORD PTR [ecx+0x6c],0x7865685f
  10a502:	00 77 61             	add    BYTE PTR [edi+0x61],dh
  10a505:	69 74 5f 69 6e 70 75 	imul   esi,DWORD PTR [edi+ebx*2+0x69],0x7475706e
  10a50c:	74 
  10a50d:	5f                   	pop    edi
  10a50e:	62 75 66             	bound  esi,QWORD PTR [ebp+0x66]
  10a511:	66 65 72 5f          	data16 gs jb 0x10a574
  10a515:	63 6c 65 61          	arpl   WORD PTR [ebp+eiz*2+0x61],ebp
  10a519:	72 00                	jb     0x10a51b
  10a51b:	77 61                	ja     0x10a57e
  10a51d:	69 74 5f 6f 75 74 70 	imul   esi,DWORD PTR [edi+ebx*2+0x6f],0x75707475
  10a524:	75 
  10a525:	74 5f                	je     0x10a586
  10a527:	62 75 66             	bound  esi,QWORD PTR [ebp+0x66]
  10a52a:	66 65 72 5f          	data16 gs jb 0x10a58d
  10a52e:	66 75 6c             	data16 jne 0x10a59d
  10a531:	6c                   	ins    BYTE PTR es:[edi],dx
  10a532:	00 70 63             	add    BYTE PTR [eax+0x63],dh
  10a535:	69 2e 63 00 70 63    	imul   ebp,DWORD PTR [esi],0x63700063
  10a53b:	69 5f 63 6f 6e 66 69 	imul   ebx,DWORD PTR [edi+0x63],0x69666e6f
  10a542:	67 5f                	addr16 pop edi
  10a544:	61                   	popa
  10a545:	64 64 72 65          	fs fs jb 0x10a5ae
  10a549:	73 73                	jae    0x10a5be
  10a54b:	00 75 73             	add    BYTE PTR [ebp+0x73],dh
  10a54e:	62 2e                	bound  ebp,QWORD PTR [esi]
  10a550:	63 00                	arpl   WORD PTR [eax],eax
  10a552:	67 5f                	addr16 pop edi
  10a554:	75 68                	jne    0x10a5be
  10a556:	63 69 5f             	arpl   WORD PTR [ecx+0x5f],ebp
  10a559:	63 74 72 6c          	arpl   WORD PTR [edx+esi*2+0x6c],esi
  10a55d:	00 67 5f             	add    BYTE PTR [edi+0x5f],ah
  10a560:	74 61                	je     0x10a5c3
  10a562:	62 6c 65 74          	bound  ebp,QWORD PTR [ebp+eiz*2+0x74]
  10a566:	5f                   	pop    edi
  10a567:	64 65 76 69          	fs gs jbe 0x10a5d4
  10a56b:	63 65 00             	arpl   WORD PTR [ebp+0x0],esp
  10a56e:	67 5f                	addr16 pop edi
  10a570:	74 61                	je     0x10a5d3
  10a572:	62 6c 65 74          	bound  ebp,QWORD PTR [ebp+eiz*2+0x74]
  10a576:	5f                   	pop    edi
  10a577:	66 6f                	outs   dx,WORD PTR ds:[esi]
  10a579:	75 6e                	jne    0x10a5e9
  10a57b:	64 00 67 5f          	add    BYTE PTR fs:[edi+0x5f],ah
  10a57f:	74 61                	je     0x10a5e2
  10a581:	62 6c 65 74          	bound  ebp,QWORD PTR [ebp+eiz*2+0x74]
  10a585:	5f                   	pop    edi
  10a586:	65 6e                	outs   dx,BYTE PTR gs:[esi]
  10a588:	64 70 6f             	fs jo  0x10a5fa
  10a58b:	69 6e 74 00 67 5f 6c 	imul   ebp,DWORD PTR [esi+0x74],0x6c5f6700
  10a592:	61                   	popa
  10a593:	73 74                	jae    0x10a609
  10a595:	5f                   	pop    edi
  10a596:	78 00                	js     0x10a598
  10a598:	67 5f                	addr16 pop edi
  10a59a:	6c                   	ins    BYTE PTR es:[edi],dx
  10a59b:	61                   	popa
  10a59c:	73 74                	jae    0x10a612
  10a59e:	5f                   	pop    edi
  10a59f:	79 00                	jns    0x10a5a1
  10a5a1:	67 5f                	addr16 pop edi
  10a5a3:	6c                   	ins    BYTE PTR es:[edi],dx
  10a5a4:	61                   	popa
  10a5a5:	73 74                	jae    0x10a61b
  10a5a7:	5f                   	pop    edi
  10a5a8:	62 75 74             	bound  esi,QWORD PTR [ebp+0x74]
  10a5ab:	74 6f                	je     0x10a61c
  10a5ad:	6e                   	outs   dx,BYTE PTR ds:[esi]
  10a5ae:	73 00                	jae    0x10a5b0
  10a5b0:	66 69 6e 64 5f 75    	imul   bp,WORD PTR [esi+0x64],0x755f
  10a5b6:	68 63 69 5f 63       	push   0x635f6963
  10a5bb:	6f                   	outs   dx,DWORD PTR ds:[esi]
  10a5bc:	6e                   	outs   dx,BYTE PTR ds:[esi]
  10a5bd:	74 72                	je     0x10a631
  10a5bf:	6f                   	outs   dx,DWORD PTR ds:[esi]
  10a5c0:	6c                   	ins    BYTE PTR es:[edi],dx
  10a5c1:	6c                   	ins    BYTE PTR es:[edi],dx
  10a5c2:	65 72 00             	gs jb  0x10a5c5
  10a5c5:	75 68                	jne    0x10a62f
  10a5c7:	63 69 5f             	arpl   WORD PTR [ecx+0x5f],ebp
  10a5ca:	72 65                	jb     0x10a631
  10a5cc:	73 65                	jae    0x10a633
  10a5ce:	74 5f                	je     0x10a62f
  10a5d0:	63 6f 6e             	arpl   WORD PTR [edi+0x6e],ebp
  10a5d3:	74 72                	je     0x10a647
  10a5d5:	6f                   	outs   dx,DWORD PTR ds:[esi]
  10a5d6:	6c                   	ins    BYTE PTR es:[edi],dx
  10a5d7:	6c                   	ins    BYTE PTR es:[edi],dx
  10a5d8:	65 72 00             	gs jb  0x10a5db
  10a5db:	75 68                	jne    0x10a645
  10a5dd:	63 69 5f             	arpl   WORD PTR [ecx+0x5f],ebp
  10a5e0:	73 63                	jae    0x10a645
  10a5e2:	61                   	popa
  10a5e3:	6e                   	outs   dx,BYTE PTR ds:[esi]
  10a5e4:	5f                   	pop    edi
  10a5e5:	70 6f                	jo     0x10a656
  10a5e7:	72 74                	jb     0x10a65d
  10a5e9:	73 00                	jae    0x10a5eb
  10a5eb:	67 64 74 2e          	addr16 fs je 0x10a61d
  10a5ef:	63 00                	arpl   WORD PTR [eax],eax
  10a5f1:	67 64 74 00          	addr16 fs je 0x10a5f5
  10a5f5:	67 64 74 5f          	addr16 fs je 0x10a658
  10a5f9:	70 6f                	jo     0x10a66a
  10a5fb:	69 6e 74 65 72 00 74 	imul   ebp,DWORD PTR [esi+0x74],0x74007265
  10a602:	73 73                	jae    0x10a677
  10a604:	00 72 65             	add    BYTE PTR [edx+0x65],dh
  10a607:	6c                   	ins    BYTE PTR es:[edi],dx
  10a608:	6f                   	outs   dx,DWORD PTR ds:[esi]
  10a609:	61                   	popa
  10a60a:	64 5f                	fs pop edi
  10a60c:	63 73 00             	arpl   WORD PTR [ebx+0x0],esi
  10a60f:	69 64 74 2e 63 00 69 	imul   esp,DWORD PTR [esp+esi*2+0x2e],0x64690063
  10a616:	64 
  10a617:	74 00                	je     0x10a619
  10a619:	69 64 74 5f 70 6f 69 	imul   esp,DWORD PTR [esp+esi*2+0x5f],0x6e696f70
  10a620:	6e 
  10a621:	74 65                	je     0x10a688
  10a623:	72 00                	jb     0x10a625
  10a625:	69 6e 74 65 72 72 75 	imul   ebp,DWORD PTR [esi+0x74],0x75727265
  10a62c:	70 74                	jo     0x10a6a2
  10a62e:	5f                   	pop    edi
  10a62f:	73 74                	jae    0x10a6a5
  10a631:	75 62                	jne    0x10a695
  10a633:	73 2e                	jae    0x10a663
  10a635:	6f                   	outs   dx,DWORD PTR ds:[esi]
  10a636:	00 65 78             	add    BYTE PTR [ebp+0x78],ah
  10a639:	63 65 70             	arpl   WORD PTR [ebp+0x70],esp
  10a63c:	74 69                	je     0x10a6a7
  10a63e:	6f                   	outs   dx,DWORD PTR ds:[esi]
  10a63f:	6e                   	outs   dx,BYTE PTR ds:[esi]
  10a640:	5f                   	pop    edi
  10a641:	63 6f 6d             	arpl   WORD PTR [edi+0x6d],ebp
  10a644:	6d                   	ins    DWORD PTR es:[edi],dx
  10a645:	6f                   	outs   dx,DWORD PTR ds:[esi]
  10a646:	6e                   	outs   dx,BYTE PTR ds:[esi]
  10a647:	00 65 78             	add    BYTE PTR [ebp+0x78],ah
  10a64a:	63 65 70             	arpl   WORD PTR [ebp+0x70],esp
  10a64d:	74 69                	je     0x10a6b8
  10a64f:	6f                   	outs   dx,DWORD PTR ds:[esi]
  10a650:	6e                   	outs   dx,BYTE PTR ds:[esi]
  10a651:	5f                   	pop    edi
  10a652:	68 61 6e 64 6c       	push   0x6c646e61
  10a657:	65 72 2e             	gs jb  0x10a688
  10a65a:	63 00                	arpl   WORD PTR [eax],eax
  10a65c:	70 72                	jo     0x10a6d0
  10a65e:	69 6e 74 5f 68 65 78 	imul   ebp,DWORD PTR [esi+0x74],0x7865685f
  10a665:	00 70 72             	add    BYTE PTR [eax+0x72],dh
  10a668:	69 6e 74 5f 68 65 78 	imul   ebp,DWORD PTR [esi+0x74],0x7865685f
  10a66f:	5f                   	pop    edi
  10a670:	61                   	popa
  10a671:	74 00                	je     0x10a673
  10a673:	67 65 74 5f          	addr16 gs je 0x10a6d6
  10a677:	65 78 63             	gs js  0x10a6dd
  10a67a:	65 70 74             	gs jo  0x10a6f1
  10a67d:	69 6f 6e 5f 6e 61 6d 	imul   ebp,DWORD PTR [edi+0x6e],0x6d616e5f
  10a684:	65 00 67 65          	add    BYTE PTR gs:[edi+0x65],ah
  10a688:	74 5f                	je     0x10a6e9
  10a68a:	65 78 63             	gs js  0x10a6f0
  10a68d:	65 70 74             	gs jo  0x10a704
  10a690:	69 6f 6e 5f 64 65 73 	imul   ebp,DWORD PTR [edi+0x6e],0x7365645f
  10a697:	63 72 69             	arpl   WORD PTR [edx+0x69],esi
  10a69a:	70 74                	jo     0x10a710
  10a69c:	69 6f 6e 00 68 61 6e 	imul   ebp,DWORD PTR [edi+0x6e],0x6e616800
  10a6a3:	64 6c                	fs ins BYTE PTR es:[edi],dx
  10a6a5:	65 5f                	gs pop edi
  10a6a7:	75 73                	jne    0x10a71c
  10a6a9:	65 72 5f             	gs jb  0x10a70b
  10a6ac:	65 78 63             	gs js  0x10a712
  10a6af:	65 70 74             	gs jo  0x10a726
  10a6b2:	69 6f 6e 00 68 61 6e 	imul   ebp,DWORD PTR [edi+0x6e],0x6e616800
  10a6b9:	64 6c                	fs ins BYTE PTR es:[edi],dx
  10a6bb:	65 5f                	gs pop edi
  10a6bd:	6b 65 72 6e          	imul   esp,DWORD PTR [ebp+0x72],0x6e
  10a6c1:	65 6c                	gs ins BYTE PTR es:[edi],dx
  10a6c3:	5f                   	pop    edi
  10a6c4:	65 78 63             	gs js  0x10a72a
  10a6c7:	65 70 74             	gs jo  0x10a73e
  10a6ca:	69 6f 6e 00 72 69 6e 	imul   ebp,DWORD PTR [edi+0x6e],0x6e697200
  10a6d1:	67 33 2e 63 00       	xor    ebp,DWORD PTR ds:0x63
  10a6d6:	73 79                	jae    0x10a751
  10a6d8:	73 63                	jae    0x10a73d
  10a6da:	61                   	popa
  10a6db:	6c                   	ins    BYTE PTR es:[edi],dx
  10a6dc:	6c                   	ins    BYTE PTR es:[edi],dx
  10a6dd:	5f                   	pop    edi
  10a6de:	68 61 6e 64 6c       	push   0x6c646e61
  10a6e3:	65 72 2e             	gs jb  0x10a714
  10a6e6:	63 00                	arpl   WORD PTR [eax],eax
  10a6e8:	6b 65 72 6e          	imul   esp,DWORD PTR [ebp+0x72],0x6e
  10a6ec:	65 6c                	gs ins BYTE PTR es:[edi],dx
  10a6ee:	5f                   	pop    edi
  10a6ef:	70 75                	jo     0x10a766
  10a6f1:	74 63                	je     0x10a756
  10a6f3:	68 61 72 00 6b       	push   0x6b007261
  10a6f8:	65 72 6e             	gs jb  0x10a769
  10a6fb:	65 6c                	gs ins BYTE PTR es:[edi],dx
  10a6fd:	5f                   	pop    edi
  10a6fe:	70 75                	jo     0x10a775
  10a700:	74 73                	je     0x10a775
  10a702:	00 6b 65             	add    BYTE PTR [ebx+0x65],ch
  10a705:	72 6e                	jb     0x10a775
  10a707:	65 6c                	gs ins BYTE PTR es:[edi],dx
  10a709:	5f                   	pop    edi
  10a70a:	70 75                	jo     0x10a781
  10a70c:	74 69                	je     0x10a777
  10a70e:	6e                   	outs   dx,BYTE PTR ds:[esi]
  10a70f:	74 00                	je     0x10a711
  10a711:	6b 65 72 6e          	imul   esp,DWORD PTR [ebp+0x72],0x6e
  10a715:	65 6c                	gs ins BYTE PTR es:[edi],dx
  10a717:	5f                   	pop    edi
  10a718:	65 78 69             	gs js  0x10a784
  10a71b:	74 00                	je     0x10a71d
  10a71d:	6b 65 72 6e          	imul   esp,DWORD PTR [ebp+0x72],0x6e
  10a721:	65 6c                	gs ins BYTE PTR es:[edi],dx
  10a723:	5f                   	pop    edi
  10a724:	61                   	popa
  10a725:	6c                   	ins    BYTE PTR es:[edi],dx
  10a726:	6c                   	ins    BYTE PTR es:[edi],dx
  10a727:	6f                   	outs   dx,DWORD PTR ds:[esi]
  10a728:	63 5f 70             	arpl   WORD PTR [edi+0x70],ebx
  10a72b:	61                   	popa
  10a72c:	67 65 00 6b 65       	add    BYTE PTR gs:[bp+di+0x65],ch
  10a731:	72 6e                	jb     0x10a7a1
  10a733:	65 6c                	gs ins BYTE PTR es:[edi],dx
  10a735:	5f                   	pop    edi
  10a736:	66 72 65             	data16 jb 0x10a79e
  10a739:	65 5f                	gs pop edi
  10a73b:	70 61                	jo     0x10a79e
  10a73d:	67 65 00 6b 65       	add    BYTE PTR gs:[bp+di+0x65],ch
  10a742:	72 6e                	jb     0x10a7b2
  10a744:	65 6c                	gs ins BYTE PTR es:[edi],dx
  10a746:	5f                   	pop    edi
  10a747:	63 6c 65 61          	arpl   WORD PTR [ebp+eiz*2+0x61],ebp
  10a74b:	72 00                	jb     0x10a74d
  10a74d:	70 6d                	jo     0x10a7bc
  10a74f:	6d                   	ins    DWORD PTR es:[edi],dx
  10a750:	2e 63 00             	arpl   WORD PTR cs:[eax],eax
  10a753:	62 69 74             	bound  ebp,QWORD PTR [ecx+0x74]
  10a756:	6d                   	ins    DWORD PTR es:[edi],dx
  10a757:	61                   	popa
  10a758:	70 00                	jo     0x10a75a
  10a75a:	75 73                	jne    0x10a7cf
  10a75c:	65 64 5f             	gs fs pop edi
  10a75f:	70 61                	jo     0x10a7c2
  10a761:	67 65 73 00          	addr16 gs jae 0x10a765
  10a765:	62 69 74             	bound  ebp,QWORD PTR [ecx+0x74]
  10a768:	6d                   	ins    DWORD PTR es:[edi],dx
  10a769:	61                   	popa
  10a76a:	70 5f                	jo     0x10a7cb
  10a76c:	73 69                	jae    0x10a7d7
  10a76e:	7a 65                	jp     0x10a7d5
  10a770:	00 6d 65             	add    BYTE PTR [ebp+0x65],ch
  10a773:	6d                   	ins    DWORD PTR es:[edi],dx
  10a774:	6f                   	outs   dx,DWORD PTR ds:[esi]
  10a775:	72 79                	jb     0x10a7f0
  10a777:	5f                   	pop    edi
  10a778:	73 74                	jae    0x10a7ee
  10a77a:	61                   	popa
  10a77b:	72 74                	jb     0x10a7f1
  10a77d:	00 61 64             	add    BYTE PTR [ecx+0x64],ah
  10a780:	64 72 5f             	fs jb  0x10a7e2
  10a783:	74 6f                	je     0x10a7f4
  10a785:	5f                   	pop    edi
  10a786:	70 61                	jo     0x10a7e9
  10a788:	67 65 00 70 61       	add    BYTE PTR gs:[bx+si+0x61],dh
  10a78d:	67 65 5f             	addr16 gs pop edi
  10a790:	74 6f                	je     0x10a801
  10a792:	5f                   	pop    edi
  10a793:	61                   	popa
  10a794:	64 64 72 00          	fs fs jb 0x10a798
  10a798:	62 69 74             	bound  ebp,QWORD PTR [ecx+0x74]
  10a79b:	6d                   	ins    DWORD PTR es:[edi],dx
  10a79c:	61                   	popa
  10a79d:	70 5f                	jo     0x10a7fe
  10a79f:	73 65                	jae    0x10a806
  10a7a1:	74 00                	je     0x10a7a3
  10a7a3:	62 69 74             	bound  ebp,QWORD PTR [ecx+0x74]
  10a7a6:	6d                   	ins    DWORD PTR es:[edi],dx
  10a7a7:	61                   	popa
  10a7a8:	70 5f                	jo     0x10a809
  10a7aa:	63 6c 65 61          	arpl   WORD PTR [ebp+eiz*2+0x61],ebp
  10a7ae:	72 00                	jb     0x10a7b0
  10a7b0:	62 69 74             	bound  ebp,QWORD PTR [ecx+0x74]
  10a7b3:	6d                   	ins    DWORD PTR es:[edi],dx
  10a7b4:	61                   	popa
  10a7b5:	70 5f                	jo     0x10a816
  10a7b7:	74 65                	je     0x10a81e
  10a7b9:	73 74                	jae    0x10a82f
  10a7bb:	00 70 61             	add    BYTE PTR [eax+0x61],dh
  10a7be:	67 69 6e 67 2e 63 00 	imul   ebp,DWORD PTR [bp+0x67],0x6900632e
  10a7c5:	69 
  10a7c6:	64 65 6e             	fs outs dx,BYTE PTR gs:[esi]
  10a7c9:	74 69                	je     0x10a834
  10a7cb:	74 79                	je     0x10a846
  10a7cd:	5f                   	pop    edi
  10a7ce:	6d                   	ins    DWORD PTR es:[edi],dx
  10a7cf:	61                   	popa
  10a7d0:	70 5f                	jo     0x10a831
  10a7d2:	65 6e                	outs   dx,BYTE PTR gs:[esi]
  10a7d4:	64 00 66 69          	add    BYTE PTR fs:[esi+0x69],ah
  10a7d8:	6e                   	outs   dx,BYTE PTR ds:[esi]
  10a7d9:	64 5f                	fs pop edi
  10a7db:	68 69 67 68 65       	push   0x65686769
  10a7e0:	73 74                	jae    0x10a856
  10a7e2:	5f                   	pop    edi
  10a7e3:	75 73                	jne    0x10a858
  10a7e5:	65 64 5f             	gs fs pop edi
  10a7e8:	61                   	popa
  10a7e9:	64 64 72 65          	fs fs jb 0x10a852
  10a7ed:	73 73                	jae    0x10a862
  10a7ef:	00 6b 68             	add    BYTE PTR [ebx+0x68],ch
  10a7f2:	65 61                	gs popa
  10a7f4:	70 2e                	jo     0x10a824
  10a7f6:	63 00                	arpl   WORD PTR [eax],eax
  10a7f8:	68 65 61 70 5f       	push   0x5f706165
  10a7fd:	73 74                	jae    0x10a873
  10a7ff:	61                   	popa
  10a800:	72 74                	jb     0x10a876
  10a802:	00 68 65             	add    BYTE PTR [eax+0x65],ch
  10a805:	61                   	popa
  10a806:	70 5f                	jo     0x10a867
  10a808:	65 6e                	outs   dx,BYTE PTR gs:[esi]
  10a80a:	64 00 68 65          	add    BYTE PTR fs:[eax+0x65],ch
  10a80e:	61                   	popa
  10a80f:	70 5f                	jo     0x10a870
  10a811:	63 75 72             	arpl   WORD PTR [ebp+0x72],esi
  10a814:	72 65                	jb     0x10a87b
  10a816:	6e                   	outs   dx,BYTE PTR ds:[esi]
  10a817:	74 00                	je     0x10a819
  10a819:	6c                   	ins    BYTE PTR es:[edi],dx
  10a81a:	61                   	popa
  10a81b:	73 74                	jae    0x10a891
  10a81d:	5f                   	pop    edi
  10a81e:	70 61                	jo     0x10a881
  10a820:	67 65 5f             	addr16 gs pop edi
  10a823:	61                   	popa
  10a824:	6c                   	ins    BYTE PTR es:[edi],dx
  10a825:	6c                   	ins    BYTE PTR es:[edi],dx
  10a826:	6f                   	outs   dx,DWORD PTR ds:[esi]
  10a827:	63 61 74             	arpl   WORD PTR [ecx+0x74],esp
  10a82a:	65 64 2e 31 00       	gs fs xor DWORD PTR cs:[eax],eax
  10a82f:	6c                   	ins    BYTE PTR es:[edi],dx
  10a830:	61                   	popa
  10a831:	73 74                	jae    0x10a8a7
  10a833:	5f                   	pop    edi
  10a834:	70 61                	jo     0x10a897
  10a836:	67 65 5f             	addr16 gs pop edi
  10a839:	61                   	popa
  10a83a:	6c                   	ins    BYTE PTR es:[edi],dx
  10a83b:	6c                   	ins    BYTE PTR es:[edi],dx
  10a83c:	6f                   	outs   dx,DWORD PTR ds:[esi]
  10a83d:	63 61 74             	arpl   WORD PTR [ecx+0x74],esp
  10a840:	65 64 5f             	gs fs pop edi
  10a843:	61                   	popa
  10a844:	6c                   	ins    BYTE PTR es:[edi],dx
  10a845:	69 67 6e 65 64 2e 30 	imul   esp,DWORD PTR [edi+0x6e],0x302e6465
  10a84c:	00 70 72             	add    BYTE PTR [eax+0x72],dh
  10a84f:	6f                   	outs   dx,DWORD PTR ds:[esi]
  10a850:	63 65 73             	arpl   WORD PTR [ebp+0x73],esp
  10a853:	73 5f                	jae    0x10a8b4
  10a855:	6d                   	ins    DWORD PTR es:[edi],dx
  10a856:	61                   	popa
  10a857:	6e                   	outs   dx,BYTE PTR ds:[esi]
  10a858:	61                   	popa
  10a859:	67 65 72 2e          	addr16 gs jb 0x10a88b
  10a85d:	63 00                	arpl   WORD PTR [eax],eax
  10a85f:	70 72                	jo     0x10a8d3
  10a861:	6f                   	outs   dx,DWORD PTR ds:[esi]
  10a862:	63 65 73             	arpl   WORD PTR [ebp+0x73],esp
  10a865:	73 5f                	jae    0x10a8c6
  10a867:	74 61                	je     0x10a8ca
  10a869:	62 6c 65 00          	bound  ebp,QWORD PTR [ebp+eiz*2+0x0]
  10a86d:	6e                   	outs   dx,BYTE PTR ds:[esi]
  10a86e:	65 78 74             	gs js  0x10a8e5
  10a871:	5f                   	pop    edi
  10a872:	70 69                	jo     0x10a8dd
  10a874:	64 00 6e 65          	add    BYTE PTR fs:[esi+0x65],ch
  10a878:	78 74                	js     0x10a8ee
  10a87a:	5f                   	pop    edi
  10a87b:	73 74                	jae    0x10a8f1
  10a87d:	61                   	popa
  10a87e:	63 6b 5f             	arpl   WORD PTR [ebx+0x5f],ebp
  10a881:	74 6f                	je     0x10a8f2
  10a883:	70 00                	jo     0x10a885
  10a885:	6e                   	outs   dx,BYTE PTR ds:[esi]
  10a886:	65 78 74             	gs js  0x10a8fd
  10a889:	5f                   	pop    edi
  10a88a:	6b 65 72 6e          	imul   esp,DWORD PTR [ebp+0x72],0x6e
  10a88e:	65 6c                	gs ins BYTE PTR es:[edi],dx
  10a890:	5f                   	pop    edi
  10a891:	73 74                	jae    0x10a907
  10a893:	61                   	popa
  10a894:	63 6b 5f             	arpl   WORD PTR [ebx+0x5f],ebp
  10a897:	74 6f                	je     0x10a908
  10a899:	70 00                	jo     0x10a89b
  10a89b:	70 69                	jo     0x10a906
  10a89d:	74 2e                	je     0x10a8cd
  10a89f:	63 00                	arpl   WORD PTR [eax],eax
  10a8a1:	70 69                	jo     0x10a90c
  10a8a3:	74 5f                	je     0x10a904
  10a8a5:	74 69                	je     0x10a910
  10a8a7:	63 6b 73             	arpl   WORD PTR [ebx+0x73],ebp
  10a8aa:	00 73 63             	add    BYTE PTR [ebx+0x63],dh
  10a8ad:	68 65 64 75 6c       	push   0x6c756465
  10a8b2:	65 72 2e             	gs jb  0x10a8e3
  10a8b5:	63 00                	arpl   WORD PTR [eax],eax
  10a8b7:	73 63                	jae    0x10a91c
  10a8b9:	68 65 64 75 6c       	push   0x6c756465
  10a8be:	69 6e 67 5f 65 6e 61 	imul   ebp,DWORD PTR [esi+0x67],0x616e655f
  10a8c5:	62 6c 65 64          	bound  ebp,QWORD PTR [ebp+eiz*2+0x64]
  10a8c9:	00 70 72             	add    BYTE PTR [eax+0x72],dh
  10a8cc:	6f                   	outs   dx,DWORD PTR ds:[esi]
  10a8cd:	63 65 73             	arpl   WORD PTR [ebp+0x73],esp
  10a8d0:	73 5f                	jae    0x10a931
  10a8d2:	71 75                	jno    0x10a949
  10a8d4:	65 75 65             	gs jne 0x10a93c
  10a8d7:	00 71 75             	add    BYTE PTR [ecx+0x75],dh
  10a8da:	65 75 65             	gs jne 0x10a942
  10a8dd:	5f                   	pop    edi
  10a8de:	68 65 61 64 00       	push   0x646165
  10a8e3:	71 75                	jno    0x10a95a
  10a8e5:	65 75 65             	gs jne 0x10a94d
  10a8e8:	5f                   	pop    edi
  10a8e9:	74 61                	je     0x10a94c
  10a8eb:	69 6c 00 71 75 65 75 	imul   ebp,DWORD PTR [eax+eax*1+0x71],0x65756575
  10a8f2:	65 
  10a8f3:	5f                   	pop    edi
  10a8f4:	63 6f 75             	arpl   WORD PTR [edi+0x75],ebp
  10a8f7:	6e                   	outs   dx,BYTE PTR ds:[esi]
  10a8f8:	74 00                	je     0x10a8fa
  10a8fa:	69 72 71 5f 6d 61 6e 	imul   esi,DWORD PTR [edx+0x71],0x6e616d5f
  10a901:	61                   	popa
  10a902:	67 65 72 2e          	addr16 gs jb 0x10a934
  10a906:	63 00                	arpl   WORD PTR [eax],eax
  10a908:	69 6f 5f 77 61 69 74 	imul   ebp,DWORD PTR [edi+0x5f],0x74696177
  10a90f:	00 70 69             	add    BYTE PTR [eax+0x69],dh
  10a912:	63 5f 72             	arpl   WORD PTR [edi+0x72],ebx
  10a915:	65 6d                	gs ins DWORD PTR es:[edi],dx
  10a917:	61                   	popa
  10a918:	70 00                	jo     0x10a91a
  10a91a:	6b 68 65 61          	imul   ebp,DWORD PTR [eax+0x65],0x61
  10a91e:	70 5f                	jo     0x10a97f
  10a920:	69 6e 69 74 00 70 72 	imul   ebp,DWORD PTR [esi+0x69],0x72700074
  10a927:	6f                   	outs   dx,DWORD PTR ds:[esi]
  10a928:	63 65 73             	arpl   WORD PTR [ebp+0x73],esp
  10a92b:	73 5f                	jae    0x10a98c
  10a92d:	67 65 74 5f          	addr16 gs je 0x10a990
  10a931:	62 79 5f             	bound  edi,QWORD PTR [ecx+0x5f]
  10a934:	70 69                	jo     0x10a99f
  10a936:	64 00 65 78          	add    BYTE PTR fs:[ebp+0x78],ah
  10a93a:	63 65 70             	arpl   WORD PTR [ebp+0x70],esp
  10a93d:	74 69                	je     0x10a9a8
  10a93f:	6f                   	outs   dx,DWORD PTR ds:[esi]
  10a940:	6e                   	outs   dx,BYTE PTR ds:[esi]
  10a941:	5f                   	pop    edi
  10a942:	73 74                	jae    0x10a9b8
  10a944:	75 62                	jne    0x10a9a8
  10a946:	5f                   	pop    edi
  10a947:	31 38                	xor    DWORD PTR [eax],edi
  10a949:	00 70 6d             	add    BYTE PTR [eax+0x6d],dh
  10a94c:	6d                   	ins    DWORD PTR es:[edi],dx
  10a94d:	5f                   	pop    edi
  10a94e:	6d                   	ins    DWORD PTR es:[edi],dx
  10a94f:	61                   	popa
  10a950:	72 6b                	jb     0x10a9bd
  10a952:	5f                   	pop    edi
  10a953:	72 65                	jb     0x10a9ba
  10a955:	67 69 6f 6e 5f 75 73 	imul   ebp,DWORD PTR [bx+0x6e],0x6573755f
  10a95c:	65 
  10a95d:	64 00 69 72          	add    BYTE PTR fs:[ecx+0x72],ch
  10a961:	71 5f                	jno    0x10a9c2
  10a963:	67 65 74 5f          	addr16 gs je 0x10a9c6
  10a967:	70 69                	jo     0x10a9d2
  10a969:	63 5f 6d             	arpl   WORD PTR [edi+0x6d],ebx
  10a96c:	61                   	popa
  10a96d:	73 6b                	jae    0x10a9da
  10a96f:	00 70 69             	add    BYTE PTR [eax+0x69],dh
  10a972:	74 5f                	je     0x10a9d3
  10a974:	67 65 74 5f          	addr16 gs je 0x10a9d7
  10a978:	74 69                	je     0x10a9e3
  10a97a:	63 6b 73             	arpl   WORD PTR [ebx+0x73],ebp
  10a97d:	00 76 67             	add    BYTE PTR [esi+0x67],dh
  10a980:	61                   	popa
  10a981:	5f                   	pop    edi
  10a982:	73 65                	jae    0x10a9e9
  10a984:	74 5f                	je     0x10a9e5
  10a986:	63 6f 6c             	arpl   WORD PTR [edi+0x6c],ebp
  10a989:	6f                   	outs   dx,DWORD PTR ds:[esi]
  10a98a:	72 00                	jb     0x10a98c
  10a98c:	6d                   	ins    DWORD PTR es:[edi],dx
  10a98d:	6f                   	outs   dx,DWORD PTR ds:[esi]
  10a98e:	75 73                	jne    0x10aa03
  10a990:	65 5f                	gs pop edi
  10a992:	78 00                	js     0x10a994
  10a994:	65 78 63             	gs js  0x10a9fa
  10a997:	65 70 74             	gs jo  0x10aa0e
  10a99a:	69 6f 6e 5f 73 74 75 	imul   ebp,DWORD PTR [edi+0x6e],0x7574735f
  10a9a1:	62 5f 35             	bound  ebx,QWORD PTR [edi+0x35]
  10a9a4:	00 76 67             	add    BYTE PTR [esi+0x67],dh
  10a9a7:	61                   	popa
  10a9a8:	5f                   	pop    edi
  10a9a9:	70 75                	jo     0x10aa20
  10a9ab:	74 73                	je     0x10aa20
  10a9ad:	00 76 67             	add    BYTE PTR [esi+0x67],dh
  10a9b0:	61                   	popa
  10a9b1:	5f                   	pop    edi
  10a9b2:	70 75                	jo     0x10aa29
  10a9b4:	74 69                	je     0x10aa1f
  10a9b6:	6e                   	outs   dx,BYTE PTR ds:[esi]
  10a9b7:	74 00                	je     0x10a9b9
  10a9b9:	70 72                	jo     0x10aa2d
  10a9bb:	6f                   	outs   dx,DWORD PTR ds:[esi]
  10a9bc:	63 65 73             	arpl   WORD PTR [ebp+0x73],esp
  10a9bf:	73 5f                	jae    0x10aa20
  10a9c1:	6d                   	ins    DWORD PTR es:[edi],dx
  10a9c2:	61                   	popa
  10a9c3:	6e                   	outs   dx,BYTE PTR ds:[esi]
  10a9c4:	61                   	popa
  10a9c5:	67 65 72 5f          	addr16 gs jb 0x10aa28
  10a9c9:	67 65 74 5f          	addr16 gs je 0x10aa2c
  10a9cd:	63 6f 75             	arpl   WORD PTR [edi+0x75],ebp
  10a9d0:	6e                   	outs   dx,BYTE PTR ds:[esi]
  10a9d1:	74 00                	je     0x10a9d3
  10a9d3:	73 79                	jae    0x10aa4e
  10a9d5:	73 63                	jae    0x10aa3a
  10a9d7:	61                   	popa
  10a9d8:	6c                   	ins    BYTE PTR es:[edi],dx
  10a9d9:	6c                   	ins    BYTE PTR es:[edi],dx
  10a9da:	5f                   	pop    edi
  10a9db:	64 69 73 70 61 74 63 	imul   esi,DWORD PTR fs:[ebx+0x70],0x68637461
  10a9e2:	68 
  10a9e3:	65 72 00             	gs jb  0x10a9e6
  10a9e6:	64 72 61             	fs jb  0x10aa4a
  10a9e9:	77 5f                	ja     0x10aa4a
  10a9eb:	6c                   	ins    BYTE PTR es:[edi],dx
  10a9ec:	69 6e 65 00 6b 6d 61 	imul   ebp,DWORD PTR [esi+0x65],0x616d6b00
  10a9f3:	6c                   	ins    BYTE PTR es:[edi],dx
  10a9f4:	6c                   	ins    BYTE PTR es:[edi],dx
  10a9f5:	6f                   	outs   dx,DWORD PTR ds:[esi]
  10a9f6:	63 5f 61             	arpl   WORD PTR [edi+0x61],ebx
  10a9f9:	6c                   	ins    BYTE PTR es:[edi],dx
  10a9fa:	69 67 6e 65 64 00 62 	imul   esp,DWORD PTR [edi+0x6e],0x62006465
  10aa01:	67 61                	addr16 popa
  10aa03:	5f                   	pop    edi
  10aa04:	64 72 61             	fs jb  0x10aa68
  10aa07:	77 5f                	ja     0x10aa68
  10aa09:	72 65                	jb     0x10aa70
  10aa0b:	63 74 00 62          	arpl   WORD PTR [eax+eax*1+0x62],esi
  10aa0f:	67 61                	addr16 popa
  10aa11:	5f                   	pop    edi
  10aa12:	70 72                	jo     0x10aa86
  10aa14:	69 6e 74 5f 61 74 00 	imul   ebp,DWORD PTR [esi+0x74],0x74615f
  10aa1b:	62 67 61             	bound  esp,QWORD PTR [edi+0x61]
  10aa1e:	5f                   	pop    edi
  10aa1f:	73 65                	jae    0x10aa86
  10aa21:	74 5f                	je     0x10aa82
  10aa23:	63 75 72             	arpl   WORD PTR [ebp+0x72],esi
  10aa26:	73 6f                	jae    0x10aa97
  10aa28:	72 00                	jb     0x10aa2a
  10aa2a:	69 72 71 5f 65 6e 61 	imul   esi,DWORD PTR [edx+0x71],0x616e655f
  10aa31:	62 6c 65 5f          	bound  ebp,QWORD PTR [ebp+eiz*2+0x5f]
  10aa35:	74 69                	je     0x10aaa0
  10aa37:	6d                   	ins    DWORD PTR es:[edi],dx
  10aa38:	65 72 00             	gs jb  0x10aa3b
  10aa3b:	65 78 63             	gs js  0x10aaa1
  10aa3e:	65 70 74             	gs jo  0x10aab5
  10aa41:	69 6f 6e 5f 73 74 75 	imul   ebp,DWORD PTR [edi+0x6e],0x7574735f
  10aa48:	62 5f 31             	bound  ebx,QWORD PTR [edi+0x31]
  10aa4b:	34 00                	xor    al,0x0
  10aa4d:	65 78 63             	gs js  0x10aab3
  10aa50:	65 70 74             	gs jo  0x10aac7
  10aa53:	69 6f 6e 5f 73 74 75 	imul   ebp,DWORD PTR [edi+0x6e],0x7574735f
  10aa5a:	62 5f 32             	bound  ebx,QWORD PTR [edi+0x32]
  10aa5d:	00 62 67             	add    BYTE PTR [edx+0x67],ah
  10aa60:	61                   	popa
  10aa61:	5f                   	pop    edi
  10aa62:	70 75                	jo     0x10aad9
  10aa64:	74 70                	je     0x10aad6
  10aa66:	69 78 65 6c 00 67 64 	imul   edi,DWORD PTR [eax+0x65],0x6467006c
  10aa6d:	74 5f                	je     0x10aace
  10aa6f:	6c                   	ins    BYTE PTR es:[edi],dx
  10aa70:	6f                   	outs   dx,DWORD PTR ds:[esi]
  10aa71:	61                   	popa
  10aa72:	64 00 62 67          	add    BYTE PTR fs:[edx+0x67],ah
  10aa76:	61                   	popa
  10aa77:	5f                   	pop    edi
  10aa78:	67 65 74 5f          	addr16 gs je 0x10aadb
  10aa7c:	63 75 72             	arpl   WORD PTR [ebp+0x72],esi
  10aa7f:	73 6f                	jae    0x10aaf0
  10aa81:	72 00                	jb     0x10aa83
  10aa83:	65 78 63             	gs js  0x10aae9
  10aa86:	65 70 74             	gs jo  0x10aafd
  10aa89:	69 6f 6e 5f 73 74 75 	imul   ebp,DWORD PTR [edi+0x6e],0x7574735f
  10aa90:	62 5f 31             	bound  ebx,QWORD PTR [edi+0x31]
  10aa93:	39 00                	cmp    DWORD PTR [eax],eax
  10aa95:	70 72                	jo     0x10ab09
  10aa97:	6f                   	outs   dx,DWORD PTR ds:[esi]
  10aa98:	63 65 73             	arpl   WORD PTR [ebp+0x73],esp
  10aa9b:	73 5f                	jae    0x10aafc
  10aa9d:	63 72 65             	arpl   WORD PTR [edx+0x65],esi
  10aaa0:	61                   	popa
  10aaa1:	74 65                	je     0x10ab08
  10aaa3:	5f                   	pop    edi
  10aaa4:	73 79                	jae    0x10ab1f
  10aaa6:	73 6d                	jae    0x10ab15
  10aaa8:	61                   	popa
  10aaa9:	6e                   	outs   dx,BYTE PTR ds:[esi]
  10aaaa:	00 69 64             	add    BYTE PTR [ecx+0x64],ch
  10aaad:	74 5f                	je     0x10ab0e
  10aaaf:	69 6e 73 74 61 6c 6c 	imul   ebp,DWORD PTR [esi+0x73],0x6c6c6174
  10aab6:	5f                   	pop    edi
  10aab7:	6d                   	ins    DWORD PTR es:[edi],dx
  10aab8:	6f                   	outs   dx,DWORD PTR ds:[esi]
  10aab9:	75 73                	jne    0x10ab2e
  10aabb:	65 5f                	gs pop edi
  10aabd:	68 61 6e 64 6c       	push   0x6c646e61
  10aac2:	65 72 00             	gs jb  0x10aac5
  10aac5:	76 6d                	jbe    0x10ab34
  10aac7:	6d                   	ins    DWORD PTR es:[edi],dx
  10aac8:	5f                   	pop    edi
  10aac9:	61                   	popa
  10aaca:	6c                   	ins    BYTE PTR es:[edi],dx
  10aacb:	6c                   	ins    BYTE PTR es:[edi],dx
  10aacc:	6f                   	outs   dx,DWORD PTR ds:[esi]
  10aacd:	63 5f 70             	arpl   WORD PTR [edi+0x70],ebx
  10aad0:	61                   	popa
  10aad1:	67 65 00 69 72       	add    BYTE PTR gs:[bx+di+0x72],ch
  10aad6:	71 5f                	jno    0x10ab37
  10aad8:	63 6f 75             	arpl   WORD PTR [edi+0x75],ebp
  10aadb:	6e                   	outs   dx,BYTE PTR ds:[esi]
  10aadc:	74 00                	je     0x10aade
  10aade:	70 6d                	jo     0x10ab4d
  10aae0:	6d                   	ins    DWORD PTR es:[edi],dx
  10aae1:	5f                   	pop    edi
  10aae2:	61                   	popa
  10aae3:	6c                   	ins    BYTE PTR es:[edi],dx
  10aae4:	6c                   	ins    BYTE PTR es:[edi],dx
  10aae5:	6f                   	outs   dx,DWORD PTR ds:[esi]
  10aae6:	63 5f 70             	arpl   WORD PTR [edi+0x70],ebx
  10aae9:	61                   	popa
  10aaea:	67 65 00 69 72       	add    BYTE PTR gs:[bx+di+0x72],ch
  10aaef:	71 5f                	jno    0x10ab50
  10aaf1:	65 6e                	outs   dx,BYTE PTR gs:[esi]
  10aaf3:	61                   	popa
  10aaf4:	62 6c 65 00          	bound  ebp,QWORD PTR [ebp+eiz*2+0x0]
  10aaf8:	62 67 61             	bound  esp,QWORD PTR [edi+0x61]
  10aafb:	5f                   	pop    edi
  10aafc:	69 6e 69 74 00 70 63 	imul   ebp,DWORD PTR [esi+0x69],0x63700074
  10ab03:	69 5f 63 6f 6e 66 69 	imul   ebx,DWORD PTR [edi+0x63],0x69666e6f
  10ab0a:	67 5f                	addr16 pop edi
  10ab0c:	72 65                	jb     0x10ab73
  10ab0e:	61                   	popa
  10ab0f:	64 5f                	fs pop edi
  10ab11:	64 77 6f             	fs ja  0x10ab83
  10ab14:	72 64                	jb     0x10ab7a
  10ab16:	00 70 72             	add    BYTE PTR [eax+0x72],dh
  10ab19:	6f                   	outs   dx,DWORD PTR ds:[esi]
  10ab1a:	63 65 73             	arpl   WORD PTR [ebp+0x73],esp
  10ab1d:	73 5f                	jae    0x10ab7e
  10ab1f:	6d                   	ins    DWORD PTR es:[edi],dx
  10ab20:	61                   	popa
  10ab21:	6e                   	outs   dx,BYTE PTR ds:[esi]
  10ab22:	61                   	popa
  10ab23:	67 65 72 5f          	addr16 gs jb 0x10ab86
  10ab27:	69 6e 69 74 00 72 69 	imul   ebp,DWORD PTR [esi+0x69],0x69720074
  10ab2e:	6e                   	outs   dx,BYTE PTR ds:[esi]
  10ab2f:	67 33 5f 73          	xor    ebx,DWORD PTR [bx+0x73]
  10ab33:	77 69                	ja     0x10ab9e
  10ab35:	74 63                	je     0x10ab9a
  10ab37:	68 00 67 72 61       	push   0x61726700
  10ab3c:	70 68                	jo     0x10aba6
  10ab3e:	69 63 73 5f 6d 6f 64 	imul   esp,DWORD PTR [ebx+0x73],0x646f6d5f
  10ab45:	65 5f                	gs pop edi
  10ab47:	31 33                	xor    DWORD PTR [ebx],esi
  10ab49:	68 00 6b 66 72       	push   0x72666b00
  10ab4e:	65 65 00 62 67       	gs add BYTE PTR gs:[edx+0x67],ah
  10ab53:	61                   	popa
  10ab54:	5f                   	pop    edi
  10ab55:	77 72                	ja     0x10abc9
  10ab57:	69 74 65 5f 72 65 67 	imul   esi,DWORD PTR [ebp+eiz*2+0x5f],0x69676572
  10ab5e:	69 
  10ab5f:	73 74                	jae    0x10abd5
  10ab61:	65 72 00             	gs jb  0x10ab64
  10ab64:	72 69                	jb     0x10abcf
  10ab66:	6e                   	outs   dx,BYTE PTR ds:[esi]
  10ab67:	67 33 5f 73          	xor    ebx,DWORD PTR [bx+0x73]
  10ab6b:	77 69                	ja     0x10abd6
  10ab6d:	74 63                	je     0x10abd2
  10ab6f:	68 5f 77 69 74       	push   0x7469775f
  10ab74:	68 5f 73 74 61       	push   0x6174735f
  10ab79:	63 6b 00             	arpl   WORD PTR [ebx+0x0],ebp
  10ab7c:	75 73                	jne    0x10abf1
  10ab7e:	62 5f 69             	bound  ebx,QWORD PTR [edi+0x69]
  10ab81:	73 5f                	jae    0x10abe2
  10ab83:	74 61                	je     0x10abe6
  10ab85:	62 6c 65 74          	bound  ebp,QWORD PTR [ebp+eiz*2+0x74]
  10ab89:	5f                   	pop    edi
  10ab8a:	70 72                	jo     0x10abfe
  10ab8c:	65 73 65             	gs jae 0x10abf4
  10ab8f:	6e                   	outs   dx,BYTE PTR ds:[esi]
  10ab90:	74 00                	je     0x10ab92
  10ab92:	76 62                	jbe    0x10abf6
  10ab94:	65 5f                	gs pop edi
  10ab96:	67 65 74 5f          	addr16 gs je 0x10abf9
  10ab9a:	66 72 61             	data16 jb 0x10abfe
  10ab9d:	6d                   	ins    DWORD PTR es:[edi],dx
  10ab9e:	65 62 75 66          	bound  esi,QWORD PTR gs:[ebp+0x66]
  10aba2:	66 65 72 5f          	data16 gs jb 0x10ac05
  10aba6:	61                   	popa
  10aba7:	64 64 72 00          	fs fs jb 0x10abab
  10abab:	65 78 63             	gs js  0x10ac11
  10abae:	65 70 74             	gs jo  0x10ac25
  10abb1:	69 6f 6e 5f 73 74 75 	imul   ebp,DWORD PTR [edi+0x6e],0x7574735f
  10abb8:	62 5f 31             	bound  ebx,QWORD PTR [edi+0x31]
  10abbb:	33 00                	xor    eax,DWORD PTR [eax]
  10abbd:	76 67                	jbe    0x10ac26
  10abbf:	61                   	popa
  10abc0:	5f                   	pop    edi
  10abc1:	64 72 61             	fs jb  0x10ac25
  10abc4:	77 5f                	ja     0x10ac25
  10abc6:	62 6f 78             	bound  ebp,QWORD PTR [edi+0x78]
  10abc9:	00 75 73             	add    BYTE PTR [ebp+0x73],dh
  10abcc:	62 5f 69             	bound  ebx,QWORD PTR [edi+0x69]
  10abcf:	6e                   	outs   dx,BYTE PTR ds:[esi]
  10abd0:	69 74 00 6d 6f 75 73 	imul   esi,DWORD PTR [eax+eax*1+0x6d],0x6573756f
  10abd7:	65 
  10abd8:	5f                   	pop    edi
  10abd9:	67 65 74 5f          	addr16 gs je 0x10ac3c
  10abdd:	79 00                	jns    0x10abdf
  10abdf:	65 78 63             	gs js  0x10ac45
  10abe2:	65 70 74             	gs jo  0x10ac59
  10abe5:	69 6f 6e 5f 73 74 75 	imul   ebp,DWORD PTR [edi+0x6e],0x7574735f
  10abec:	62 5f 37             	bound  ebx,QWORD PTR [edi+0x37]
  10abef:	00 69 72             	add    BYTE PTR [ecx+0x72],ch
  10abf2:	71 31                	jno    0x10ac25
  10abf4:	32 5f 73             	xor    bl,BYTE PTR [edi+0x73]
  10abf7:	74 75                	je     0x10ac6e
  10abf9:	62 00                	bound  eax,QWORD PTR [eax]
  10abfb:	73 79                	jae    0x10ac76
  10abfd:	73 63                	jae    0x10ac62
  10abff:	61                   	popa
  10ac00:	6c                   	ins    BYTE PTR es:[edi],dx
  10ac01:	6c                   	ins    BYTE PTR es:[edi],dx
  10ac02:	5f                   	pop    edi
  10ac03:	69 6e 74 00 70 63 69 	imul   ebp,DWORD PTR [esi+0x74],0x69637000
  10ac0a:	5f                   	pop    edi
  10ac0b:	63 6f 6e             	arpl   WORD PTR [edi+0x6e],ebp
  10ac0e:	66 69 67 5f 77 72    	imul   sp,WORD PTR [edi+0x5f],0x7277
  10ac14:	69 74 65 5f 64 77 6f 	imul   esi,DWORD PTR [ebp+eiz*2+0x5f],0x726f7764
  10ac1b:	72 
  10ac1c:	64 00 73 79          	add    BYTE PTR fs:[ebx+0x79],dh
  10ac20:	73 6d                	jae    0x10ac8f
  10ac22:	61                   	popa
  10ac23:	6e                   	outs   dx,BYTE PTR ds:[esi]
  10ac24:	5f                   	pop    edi
  10ac25:	65 6e                	outs   dx,BYTE PTR gs:[esi]
  10ac27:	74 72                	je     0x10ac9b
  10ac29:	79 5f                	jns    0x10ac8a
  10ac2b:	70 6f                	jo     0x10ac9c
  10ac2d:	69 6e 74 00 70 6d 6d 	imul   ebp,DWORD PTR [esi+0x74],0x6d6d7000
  10ac34:	5f                   	pop    edi
  10ac35:	70 72                	jo     0x10aca9
  10ac37:	69 6e 74 5f 73 74 61 	imul   ebp,DWORD PTR [esi+0x74],0x6174735f
  10ac3e:	74 73                	je     0x10acb3
  10ac40:	00 67 64             	add    BYTE PTR [edi+0x64],ah
  10ac43:	74 5f                	je     0x10aca4
  10ac45:	69 6e 69 74 00 76 6d 	imul   ebp,DWORD PTR [esi+0x69],0x6d760074
  10ac4c:	6d                   	ins    DWORD PTR es:[edi],dx
  10ac4d:	5f                   	pop    edi
  10ac4e:	66 72 65             	data16 jb 0x10acb6
  10ac51:	65 5f                	gs pop edi
  10ac53:	70 61                	jo     0x10acb6
  10ac55:	67 65 00 69 64       	add    BYTE PTR gs:[bx+di+0x64],ch
  10ac5a:	65 6e                	outs   dx,BYTE PTR gs:[esi]
  10ac5c:	74 69                	je     0x10acc7
  10ac5e:	74 79                	je     0x10acd9
  10ac60:	5f                   	pop    edi
  10ac61:	6d                   	ins    DWORD PTR es:[edi],dx
  10ac62:	61                   	popa
  10ac63:	70 5f                	jo     0x10acc4
  10ac65:	72 65                	jb     0x10accc
  10ac67:	67 69 6f 6e 00 76 62 	imul   ebp,DWORD PTR [bx+0x6e],0x65627600
  10ac6e:	65 
  10ac6f:	5f                   	pop    edi
  10ac70:	69 6e 69 74 00 70 63 	imul   ebp,DWORD PTR [esi+0x69],0x63700074
  10ac77:	69 5f 63 6f 6e 66 69 	imul   ebx,DWORD PTR [edi+0x63],0x69666e6f
  10ac7e:	67 5f                	addr16 pop edi
  10ac80:	77 72                	ja     0x10acf4
  10ac82:	69 74 65 5f 62 79 74 	imul   esi,DWORD PTR [ebp+eiz*2+0x5f],0x65747962
  10ac89:	65 
  10ac8a:	00 69 64             	add    BYTE PTR [ecx+0x64],ch
  10ac8d:	74 5f                	je     0x10acee
  10ac8f:	73 65                	jae    0x10acf6
  10ac91:	74 5f                	je     0x10acf2
  10ac93:	65 6e                	outs   dx,BYTE PTR gs:[esi]
  10ac95:	74 72                	je     0x10ad09
  10ac97:	79 00                	jns    0x10ac99
  10ac99:	67 64 74 5f          	addr16 fs je 0x10acfc
  10ac9d:	73 65                	jae    0x10ad04
  10ac9f:	74 5f                	je     0x10ad00
  10aca1:	6b 65 72 6e          	imul   esp,DWORD PTR [ebp+0x72],0x6e
  10aca5:	65 6c                	gs ins BYTE PTR es:[edi],dx
  10aca7:	5f                   	pop    edi
  10aca8:	73 74                	jae    0x10ad1e
  10acaa:	61                   	popa
  10acab:	63 6b 00             	arpl   WORD PTR [ebx+0x0],ebp
  10acae:	63 75 72             	arpl   WORD PTR [ebp+0x72],esi
  10acb1:	72 65                	jb     0x10ad18
  10acb3:	6e                   	outs   dx,BYTE PTR ds:[esi]
  10acb4:	74 5f                	je     0x10ad15
  10acb6:	66 67 5f             	addr16 pop di
  10acb9:	63 6f 6c             	arpl   WORD PTR [edi+0x6c],ebp
  10acbc:	6f                   	outs   dx,DWORD PTR ds:[esi]
  10acbd:	72 00                	jb     0x10acbf
  10acbf:	6b 68 65 61          	imul   ebp,DWORD PTR [eax+0x65],0x61
  10acc3:	70 5f                	jo     0x10ad24
  10acc5:	73 74                	jae    0x10ad3b
  10acc7:	61                   	popa
  10acc8:	74 73                	je     0x10ad3d
  10acca:	00 63 75             	add    BYTE PTR [ebx+0x75],ah
  10accd:	72 72                	jb     0x10ad41
  10accf:	65 6e                	outs   dx,BYTE PTR gs:[esi]
  10acd1:	74 5f                	je     0x10ad32
  10acd3:	62 67 5f             	bound  esp,QWORD PTR [edi+0x5f]
  10acd6:	63 6f 6c             	arpl   WORD PTR [edi+0x6c],ebp
  10acd9:	6f                   	outs   dx,DWORD PTR ds:[esi]
  10acda:	72 00                	jb     0x10acdc
  10acdc:	76 62                	jbe    0x10ad40
  10acde:	65 5f                	gs pop edi
  10ace0:	70 75                	jo     0x10ad57
  10ace2:	74 70                	je     0x10ad54
  10ace4:	69 78 65 6c 00 62 67 	imul   edi,DWORD PTR [eax+0x65],0x6762006c
  10aceb:	61                   	popa
  10acec:	5f                   	pop    edi
  10aced:	63 6c 65 61          	arpl   WORD PTR [ebp+eiz*2+0x61],ebp
  10acf1:	72 00                	jb     0x10acf3
  10acf3:	70 69                	jo     0x10ad5e
  10acf5:	74 5f                	je     0x10ad56
  10acf7:	69 6e 69 74 00 6d 6f 	imul   ebp,DWORD PTR [esi+0x69],0x6f6d0074
  10acfe:	75 73                	jne    0x10ad73
  10ad00:	65 5f                	gs pop edi
  10ad02:	64 72 61             	fs jb  0x10ad66
  10ad05:	69 6e 5f 62 75 66 66 	imul   ebp,DWORD PTR [esi+0x5f],0x66667562
  10ad0c:	65 72 00             	gs jb  0x10ad0f
  10ad0f:	76 67                	jbe    0x10ad78
  10ad11:	61                   	popa
  10ad12:	5f                   	pop    edi
  10ad13:	70 72                	jo     0x10ad87
  10ad15:	69 6e 74 5f 61 74 00 	imul   ebp,DWORD PTR [esi+0x74],0x74615f
  10ad1c:	76 62                	jbe    0x10ad80
  10ad1e:	65 5f                	gs pop edi
  10ad20:	67 65 74 5f          	addr16 gs je 0x10ad83
  10ad24:	66 72 61             	data16 jb 0x10ad88
  10ad27:	6d                   	ins    DWORD PTR es:[edi],dx
  10ad28:	65 62 75 66          	bound  esi,QWORD PTR gs:[ebp+0x66]
  10ad2c:	66 65 72 5f          	data16 gs jb 0x10ad8f
  10ad30:	73 69                	jae    0x10ad9b
  10ad32:	7a 65                	jp     0x10ad99
  10ad34:	00 73 63             	add    BYTE PTR [ebx+0x63],dh
  10ad37:	68 65 64 75 6c       	push   0x6c756465
  10ad3c:	65 72 5f             	gs jb  0x10ad9e
  10ad3f:	64 69 73 61 62 6c 65 	imul   esi,DWORD PTR fs:[ebx+0x61],0x656c62
  10ad46:	00 
  10ad47:	70 61                	jo     0x10adaa
  10ad49:	67 69 6e 67 5f 6d 61 	imul   ebp,DWORD PTR [bp+0x67],0x70616d5f
  10ad50:	70 
  10ad51:	5f                   	pop    edi
  10ad52:	6d                   	ins    DWORD PTR es:[edi],dx
  10ad53:	6d                   	ins    DWORD PTR es:[edi],dx
  10ad54:	69 6f 5f 72 65 67 69 	imul   ebp,DWORD PTR [edi+0x5f],0x69676572
  10ad5b:	6f                   	outs   dx,DWORD PTR ds:[esi]
  10ad5c:	6e                   	outs   dx,BYTE PTR ds:[esi]
  10ad5d:	00 62 67             	add    BYTE PTR [edx+0x67],ah
  10ad60:	61                   	popa
  10ad61:	5f                   	pop    edi
  10ad62:	70 72                	jo     0x10add6
  10ad64:	69 6e 74 00 69 64 74 	imul   ebp,DWORD PTR [esi+0x74],0x74646900
  10ad6b:	5f                   	pop    edi
  10ad6c:	69 6e 69 74 00 62 67 	imul   ebp,DWORD PTR [esi+0x69],0x67620074
  10ad73:	61                   	popa
  10ad74:	5f                   	pop    edi
  10ad75:	67 65 74 5f          	addr16 gs je 0x10add8
  10ad79:	68 65 69 67 68       	push   0x68676965
  10ad7e:	74 00                	je     0x10ad80
  10ad80:	6b 65 72 6e          	imul   esp,DWORD PTR [ebp+0x72],0x6e
  10ad84:	65 6c                	gs ins BYTE PTR es:[edi],dx
  10ad86:	5f                   	pop    edi
  10ad87:	6d                   	ins    DWORD PTR es:[edi],dx
  10ad88:	61                   	popa
  10ad89:	69 6e 00 69 64 74 5f 	imul   ebp,DWORD PTR [esi+0x0],0x5f746469
  10ad90:	69 6e 73 74 61 6c 6c 	imul   ebp,DWORD PTR [esi+0x73],0x6c6c6174
  10ad97:	5f                   	pop    edi
  10ad98:	65 78 63             	gs js  0x10adfe
  10ad9b:	65 70 74             	gs jo  0x10ae12
  10ad9e:	69 6f 6e 5f 68 61 6e 	imul   ebp,DWORD PTR [edi+0x6e],0x6e61685f
  10ada5:	64 6c                	fs ins BYTE PTR es:[edi],dx
  10ada7:	65 72 73             	gs jb  0x10ae1d
  10adaa:	00 65 78             	add    BYTE PTR [ebp+0x78],ah
  10adad:	63 65 70             	arpl   WORD PTR [ebp+0x70],esp
  10adb0:	74 69                	je     0x10ae1b
  10adb2:	6f                   	outs   dx,DWORD PTR ds:[esi]
  10adb3:	6e                   	outs   dx,BYTE PTR ds:[esi]
  10adb4:	5f                   	pop    edi
  10adb5:	73 74                	jae    0x10ae2b
  10adb7:	75 62                	jne    0x10ae1b
  10adb9:	5f                   	pop    edi
  10adba:	34 00                	xor    al,0x0
  10adbc:	70 6d                	jo     0x10ae2b
  10adbe:	6d                   	ins    DWORD PTR es:[edi],dx
  10adbf:	5f                   	pop    edi
  10adc0:	67 65 74 5f          	addr16 gs je 0x10ae23
  10adc4:	74 6f                	je     0x10ae35
  10adc6:	74 61                	je     0x10ae29
  10adc8:	6c                   	ins    BYTE PTR es:[edi],dx
  10adc9:	5f                   	pop    edi
  10adca:	70 61                	jo     0x10ae2d
  10adcc:	67 65 73 00          	addr16 gs jae 0x10add0
  10add0:	65 78 63             	gs js  0x10ae36
  10add3:	65 70 74             	gs jo  0x10ae4a
  10add6:	69 6f 6e 5f 73 74 75 	imul   ebp,DWORD PTR [edi+0x6e],0x7574735f
  10addd:	62 5f 31             	bound  ebx,QWORD PTR [edi+0x31]
  10ade0:	37                   	aaa
  10ade1:	00 73 63             	add    BYTE PTR [ebx+0x63],dh
  10ade4:	68 65 64 75 6c       	push   0x6c756465
  10ade9:	65 72 5f             	gs jb  0x10ae4b
  10adec:	69 6e 69 74 00 70 72 	imul   ebp,DWORD PTR [esi+0x69],0x72700074
  10adf3:	6f                   	outs   dx,DWORD PTR ds:[esi]
  10adf4:	63 65 73             	arpl   WORD PTR [ebp+0x73],esp
  10adf7:	73 5f                	jae    0x10ae58
  10adf9:	63 72 65             	arpl   WORD PTR [edx+0x65],esi
  10adfc:	61                   	popa
  10adfd:	74 65                	je     0x10ae64
  10adff:	00 6b 65             	add    BYTE PTR [ebx+0x65],ch
  10ae02:	72 6e                	jb     0x10ae72
  10ae04:	65 6c                	gs ins BYTE PTR es:[edi],dx
  10ae06:	5f                   	pop    edi
  10ae07:	65 6e                	outs   dx,BYTE PTR gs:[esi]
  10ae09:	64 00 67 64          	add    BYTE PTR fs:[edi+0x64],ah
  10ae0d:	74 5f                	je     0x10ae6e
  10ae0f:	73 65                	jae    0x10ae76
  10ae11:	74 5f                	je     0x10ae72
  10ae13:	74 73                	je     0x10ae88
  10ae15:	73 5f                	jae    0x10ae76
  10ae17:	65 6e                	outs   dx,BYTE PTR gs:[esi]
  10ae19:	74 72                	je     0x10ae8d
  10ae1b:	79 00                	jns    0x10ae1d
  10ae1d:	69 72 71 5f 65 6e 61 	imul   esi,DWORD PTR [edx+0x71],0x616e655f
  10ae24:	62 6c 65 5f          	bound  ebp,QWORD PTR [ebp+eiz*2+0x5f]
  10ae28:	6d                   	ins    DWORD PTR es:[edi],dx
  10ae29:	6f                   	outs   dx,DWORD PTR ds:[esi]
  10ae2a:	75 73                	jne    0x10ae9f
  10ae2c:	65 00 6b 65          	add    BYTE PTR gs:[ebx+0x65],ch
  10ae30:	72 6e                	jb     0x10aea0
  10ae32:	65 6c                	gs ins BYTE PTR es:[edi],dx
  10ae34:	5f                   	pop    edi
  10ae35:	70 61                	jo     0x10ae98
  10ae37:	67 65 5f             	addr16 gs pop edi
  10ae3a:	64 69 72 65 63 74 6f 	imul   esi,DWORD PTR fs:[edx+0x65],0x726f7463
  10ae41:	72 
  10ae42:	79 00                	jns    0x10ae44
  10ae44:	70 61                	jo     0x10aea7
  10ae46:	67 69 6e 67 5f 6d 61 	imul   ebp,DWORD PTR [bp+0x67],0x70616d5f
  10ae4d:	70 
  10ae4e:	5f                   	pop    edi
  10ae4f:	70 61                	jo     0x10aeb2
  10ae51:	67 65 00 70 75       	add    BYTE PTR gs:[bx+si+0x75],dh
  10ae56:	74 5f                	je     0x10aeb7
  10ae58:	70 69                	jo     0x10aec3
  10ae5a:	78 65                	js     0x10aec1
  10ae5c:	6c                   	ins    BYTE PTR es:[edi],dx
  10ae5d:	00 76 62             	add    BYTE PTR [esi+0x62],dh
  10ae60:	65 5f                	gs pop edi
  10ae62:	65 6d                	gs ins DWORD PTR es:[edi],dx
  10ae64:	65 72 67             	gs jb  0x10aece
  10ae67:	65 6e                	outs   dx,BYTE PTR gs:[esi]
  10ae69:	63 79 5f             	arpl   WORD PTR [ecx+0x5f],edi
  10ae6c:	74 65                	je     0x10aed3
  10ae6e:	78 74                	js     0x10aee4
  10ae70:	5f                   	pop    edi
  10ae71:	6d                   	ins    DWORD PTR es:[edi],dx
  10ae72:	6f                   	outs   dx,DWORD PTR ds:[esi]
  10ae73:	64 65 00 69 72       	fs add BYTE PTR gs:[ecx+0x72],ch
  10ae78:	71 30                	jno    0x10aeaa
  10ae7a:	5f                   	pop    edi
  10ae7b:	73 74                	jae    0x10aef1
  10ae7d:	75 62                	jne    0x10aee1
  10ae7f:	00 62 67             	add    BYTE PTR [edx+0x67],ah
  10ae82:	61                   	popa
  10ae83:	5f                   	pop    edi
  10ae84:	69 73 5f 61 76 61 69 	imul   esi,DWORD PTR [ebx+0x5f],0x69617661
  10ae8b:	6c                   	ins    BYTE PTR es:[edi],dx
  10ae8c:	61                   	popa
  10ae8d:	62 6c 65 00          	bound  ebp,QWORD PTR [ebp+eiz*2+0x0]
  10ae91:	65 78 63             	gs js  0x10aef7
  10ae94:	65 70 74             	gs jo  0x10af0b
  10ae97:	69 6f 6e 5f 73 74 75 	imul   ebp,DWORD PTR [edi+0x6e],0x7574735f
  10ae9e:	62 5f 31             	bound  ebx,QWORD PTR [edi+0x31]
  10aea1:	00 65 78             	add    BYTE PTR [ebp+0x78],ah
  10aea4:	63 65 70             	arpl   WORD PTR [ebp+0x70],esp
  10aea7:	74 69                	je     0x10af12
  10aea9:	6f                   	outs   dx,DWORD PTR ds:[esi]
  10aeaa:	6e                   	outs   dx,BYTE PTR ds:[esi]
  10aeab:	5f                   	pop    edi
  10aeac:	73 74                	jae    0x10af22
  10aeae:	75 62                	jne    0x10af12
  10aeb0:	5f                   	pop    edi
  10aeb1:	31 32                	xor    DWORD PTR [edx],esi
  10aeb3:	00 65 78             	add    BYTE PTR [ebp+0x78],ah
  10aeb6:	63 65 70             	arpl   WORD PTR [ebp+0x70],esp
  10aeb9:	74 69                	je     0x10af24
  10aebb:	6f                   	outs   dx,DWORD PTR ds:[esi]
  10aebc:	6e                   	outs   dx,BYTE PTR ds:[esi]
  10aebd:	5f                   	pop    edi
  10aebe:	73 74                	jae    0x10af34
  10aec0:	75 62                	jne    0x10af24
  10aec2:	5f                   	pop    edi
  10aec3:	39 00                	cmp    DWORD PTR [eax],eax
  10aec5:	75 73                	jne    0x10af3a
  10aec7:	62 5f 64             	bound  ebx,QWORD PTR [edi+0x64]
  10aeca:	65 74 65             	gs je  0x10af32
  10aecd:	63 74 5f 64          	arpl   WORD PTR [edi+ebx*2+0x64],esi
  10aed1:	65 76 69             	gs jbe 0x10af3d
  10aed4:	63 65 73             	arpl   WORD PTR [ebp+0x73],esp
  10aed7:	00 69 72             	add    BYTE PTR [ecx+0x72],ch
  10aeda:	71 5f                	jno    0x10af3b
  10aedc:	64 69 73 61 62 6c 65 	imul   esi,DWORD PTR fs:[ebx+0x61],0x656c62
  10aee3:	00 
  10aee4:	70 63                	jo     0x10af49
  10aee6:	69 5f 63 6f 6e 66 69 	imul   ebx,DWORD PTR [edi+0x63],0x69666e6f
  10aeed:	67 5f                	addr16 pop edi
  10aeef:	72 65                	jb     0x10af56
  10aef1:	61                   	popa
  10aef2:	64 5f                	fs pop edi
  10aef4:	77 6f                	ja     0x10af65
  10aef6:	72 64                	jb     0x10af5c
  10aef8:	00 70 63             	add    BYTE PTR [eax+0x63],dh
  10aefb:	69 5f 63 6f 6e 66 69 	imul   ebx,DWORD PTR [edi+0x63],0x69666e6f
  10af02:	67 5f                	addr16 pop edi
  10af04:	77 72                	ja     0x10af78
  10af06:	69 74 65 5f 77 6f 72 	imul   esi,DWORD PTR [ebp+eiz*2+0x5f],0x64726f77
  10af0d:	64 
  10af0e:	00 73 63             	add    BYTE PTR [ebx+0x63],dh
  10af11:	68 65 64 75 6c       	push   0x6c756465
  10af16:	65 72 5f             	gs jb  0x10af78
  10af19:	67 65 74 5f          	addr16 gs je 0x10af7c
  10af1d:	63 75 72             	arpl   WORD PTR [ebp+0x72],esi
  10af20:	72 65                	jb     0x10af87
  10af22:	6e                   	outs   dx,BYTE PTR ds:[esi]
  10af23:	74 5f                	je     0x10af84
  10af25:	70 69                	jo     0x10af90
  10af27:	64 00 76 62          	add    BYTE PTR fs:[esi+0x62],dh
  10af2b:	65 5f                	gs pop edi
  10af2d:	64 72 61             	fs jb  0x10af91
  10af30:	77 5f                	ja     0x10af91
  10af32:	72 65                	jb     0x10af99
  10af34:	63 74 00 65          	arpl   WORD PTR [eax+eax*1+0x65],esi
  10af38:	78 63                	js     0x10af9d
  10af3a:	65 70 74             	gs jo  0x10afb1
  10af3d:	69 6f 6e 5f 73 74 75 	imul   ebp,DWORD PTR [edi+0x6e],0x7574735f
  10af44:	62 5f 36             	bound  ebx,QWORD PTR [edi+0x36]
  10af47:	00 76 67             	add    BYTE PTR [esi+0x67],dh
  10af4a:	61                   	popa
  10af4b:	5f                   	pop    edi
  10af4c:	73 65                	jae    0x10afb3
  10af4e:	74 5f                	je     0x10afaf
  10af50:	63 75 72             	arpl   WORD PTR [ebp+0x72],esi
  10af53:	73 6f                	jae    0x10afc4
  10af55:	72 00                	jb     0x10af57
  10af57:	70 6d                	jo     0x10afc6
  10af59:	6d                   	ins    DWORD PTR es:[edi],dx
  10af5a:	5f                   	pop    edi
  10af5b:	66 72 65             	data16 jb 0x10afc3
  10af5e:	65 5f                	gs pop edi
  10af60:	70 61                	jo     0x10afc3
  10af62:	67 65 00 69 64       	add    BYTE PTR gs:[bx+di+0x64],ch
  10af67:	74 5f                	je     0x10afc8
  10af69:	6c                   	ins    BYTE PTR es:[edi],dx
  10af6a:	6f                   	outs   dx,DWORD PTR ds:[esi]
  10af6b:	61                   	popa
  10af6c:	64 00 62 67          	add    BYTE PTR fs:[edx+0x67],ah
  10af70:	61                   	popa
  10af71:	5f                   	pop    edi
  10af72:	66 69 6c 6c 5f 72 65 	imul   bp,WORD PTR [esp+ebp*2+0x5f],0x6572
  10af79:	63 74 00 76          	arpl   WORD PTR [eax+eax*1+0x76],esi
  10af7d:	62 65 5f             	bound  esp,QWORD PTR [ebp+0x5f]
  10af80:	67 65 74 5f          	addr16 gs je 0x10afe3
  10af84:	77 69                	ja     0x10afef
  10af86:	64 74 68             	fs je  0x10aff1
  10af89:	00 70 63             	add    BYTE PTR [eax+0x63],dh
  10af8c:	69 5f 63 6f 6e 66 69 	imul   ebx,DWORD PTR [edi+0x63],0x69666e6f
  10af93:	67 5f                	addr16 pop edi
  10af95:	72 65                	jb     0x10affc
  10af97:	61                   	popa
  10af98:	64 5f                	fs pop edi
  10af9a:	62 79 74             	bound  edi,QWORD PTR [ecx+0x74]
  10af9d:	65 00 6d 6f          	add    BYTE PTR gs:[ebp+0x6f],ch
  10afa1:	75 73                	jne    0x10b016
  10afa3:	65 5f                	gs pop edi
  10afa5:	67 65 74 5f          	addr16 gs je 0x10b008
  10afa9:	69 72 71 5f 74 6f 74 	imul   esi,DWORD PTR [edx+0x71],0x746f745f
  10afb0:	61                   	popa
  10afb1:	6c                   	ins    BYTE PTR es:[edi],dx
  10afb2:	00 73 63             	add    BYTE PTR [ebx+0x63],dh
  10afb5:	68 65 64 75 6c       	push   0x6c756465
  10afba:	65 72 5f             	gs jb  0x10b01c
  10afbd:	61                   	popa
  10afbe:	64 64 5f             	fs fs pop edi
  10afc1:	70 72                	jo     0x10b035
  10afc3:	6f                   	outs   dx,DWORD PTR ds:[esi]
  10afc4:	63 65 73             	arpl   WORD PTR [ebp+0x73],esp
  10afc7:	73 00                	jae    0x10afc9
  10afc9:	62 67 61             	bound  esp,QWORD PTR [edi+0x61]
  10afcc:	5f                   	pop    edi
  10afcd:	67 65 74 5f          	addr16 gs je 0x10b030
  10afd1:	77 69                	ja     0x10b03c
  10afd3:	64 74 68             	fs je  0x10b03e
  10afd6:	00 6d 6f             	add    BYTE PTR [ebp+0x6f],ch
  10afd9:	75 73                	jne    0x10b04e
  10afdb:	65 5f                	gs pop edi
  10afdd:	67 65 74 5f          	addr16 gs je 0x10b040
  10afe1:	62 75 74             	bound  esi,QWORD PTR [ebp+0x74]
  10afe4:	74 6f                	je     0x10b055
  10afe6:	6e                   	outs   dx,BYTE PTR ds:[esi]
  10afe7:	73 00                	jae    0x10afe9
  10afe9:	75 73                	jne    0x10b05e
  10afeb:	62 5f 74             	bound  ebx,QWORD PTR [edi+0x74]
  10afee:	61                   	popa
  10afef:	62 6c 65 74          	bound  ebp,QWORD PTR [ebp+eiz*2+0x74]
  10aff3:	5f                   	pop    edi
  10aff4:	67 65 74 5f          	addr16 gs je 0x10b057
  10aff8:	72 65                	jb     0x10b05f
  10affa:	70 6f                	jo     0x10b06b
  10affc:	72 74                	jb     0x10b072
  10affe:	00 65 78             	add    BYTE PTR [ebp+0x78],ah
  10b001:	63 65 70             	arpl   WORD PTR [ebp+0x70],esp
  10b004:	74 69                	je     0x10b06f
  10b006:	6f                   	outs   dx,DWORD PTR ds:[esi]
  10b007:	6e                   	outs   dx,BYTE PTR ds:[esi]
  10b008:	5f                   	pop    edi
  10b009:	73 74                	jae    0x10b07f
  10b00b:	75 62                	jne    0x10b06f
  10b00d:	5f                   	pop    edi
  10b00e:	31 36                	xor    DWORD PTR [esi],esi
  10b010:	00 6d 6f             	add    BYTE PTR [ebp+0x6f],ch
  10b013:	75 73                	jne    0x10b088
  10b015:	65 5f                	gs pop edi
  10b017:	67 65 74 5f          	addr16 gs je 0x10b07a
  10b01b:	78 00                	js     0x10b01d
  10b01d:	73 63                	jae    0x10b082
  10b01f:	68 65 64 75 6c       	push   0x6c756465
  10b024:	65 72 5f             	gs jb  0x10b086
  10b027:	65 6e                	outs   dx,BYTE PTR gs:[esi]
  10b029:	61                   	popa
  10b02a:	62 6c 65 00          	bound  ebp,QWORD PTR [ebp+eiz*2+0x0]
  10b02e:	65 78 63             	gs js  0x10b094
  10b031:	65 70 74             	gs jo  0x10b0a8
  10b034:	69 6f 6e 5f 73 74 75 	imul   ebp,DWORD PTR [edi+0x6e],0x7574735f
  10b03b:	62 5f 33             	bound  ebx,QWORD PTR [edi+0x33]
  10b03e:	00 70 6d             	add    BYTE PTR [eax+0x6d],dh
  10b041:	6d                   	ins    DWORD PTR es:[edi],dx
  10b042:	5f                   	pop    edi
  10b043:	69 6e 69 74 00 62 67 	imul   ebp,DWORD PTR [esi+0x69],0x67620074
  10b04a:	61                   	popa
  10b04b:	5f                   	pop    edi
  10b04c:	73 65                	jae    0x10b0b3
  10b04e:	74 5f                	je     0x10b0af
  10b050:	76 69                	jbe    0x10b0bb
  10b052:	64 65 6f             	fs outs dx,DWORD PTR gs:[esi]
  10b055:	5f                   	pop    edi
  10b056:	6d                   	ins    DWORD PTR es:[edi],dx
  10b057:	6f                   	outs   dx,DWORD PTR ds:[esi]
  10b058:	64 65 00 76 62       	fs add BYTE PTR gs:[esi+0x62],dh
  10b05d:	65 5f                	gs pop edi
  10b05f:	63 6c 65 61          	arpl   WORD PTR [ebp+eiz*2+0x61],ebp
  10b063:	72 00                	jb     0x10b065
  10b065:	70 6d                	jo     0x10b0d4
  10b067:	6d                   	ins    DWORD PTR es:[edi],dx
  10b068:	5f                   	pop    edi
  10b069:	67 65 74 5f          	addr16 gs je 0x10b0cc
  10b06d:	66 72 65             	data16 jb 0x10b0d5
  10b070:	65 5f                	gs pop edi
  10b072:	70 61                	jo     0x10b0d5
  10b074:	67 65 73 00          	addr16 gs jae 0x10b078
  10b078:	76 62                	jbe    0x10b0dc
  10b07a:	65 5f                	gs pop edi
  10b07c:	70 75                	jo     0x10b0f3
  10b07e:	74 63                	je     0x10b0e3
  10b080:	68 61 72 00 70       	push   0x70007261
  10b085:	69 74 5f 68 61 6e 64 	imul   esi,DWORD PTR [edi+ebx*2+0x68],0x6c646e61
  10b08c:	6c 
  10b08d:	65 72 00             	gs jb  0x10b090
  10b090:	65 78 63             	gs js  0x10b0f6
  10b093:	65 70 74             	gs jo  0x10b10a
  10b096:	69 6f 6e 5f 73 74 75 	imul   ebp,DWORD PTR [edi+0x6e],0x7574735f
  10b09d:	62 5f 31             	bound  ebx,QWORD PTR [edi+0x31]
  10b0a0:	31 00                	xor    DWORD PTR [eax],eax
  10b0a2:	76 62                	jbe    0x10b106
  10b0a4:	65 5f                	gs pop edi
  10b0a6:	6d                   	ins    DWORD PTR es:[edi],dx
  10b0a7:	6f                   	outs   dx,DWORD PTR ds:[esi]
  10b0a8:	64 65 5f             	fs gs pop edi
  10b0ab:	69 6e 66 6f 00 70 69 	imul   ebp,DWORD PTR [esi+0x66],0x6970006f
  10b0b2:	74 5f                	je     0x10b113
  10b0b4:	77 61                	ja     0x10b117
  10b0b6:	69 74 00 70 61 67 69 	imul   esi,DWORD PTR [eax+eax*1+0x70],0x6e696761
  10b0bd:	6e 
  10b0be:	67 5f                	addr16 pop edi
  10b0c0:	69 6e 69 74 00 73 63 	imul   ebp,DWORD PTR [esi+0x69],0x63730074
  10b0c7:	68 65 64 75 6c       	push   0x6c756465
  10b0cc:	65 72 5f             	gs jb  0x10b12e
  10b0cf:	74 69                	je     0x10b13a
  10b0d1:	63 6b 00             	arpl   WORD PTR [ebx+0x0],ebp
  10b0d4:	62 67 61             	bound  esp,QWORD PTR [edi+0x61]
  10b0d7:	5f                   	pop    edi
  10b0d8:	67 65 74 5f          	addr16 gs je 0x10b13b
  10b0dc:	66 72 61             	data16 jb 0x10b140
  10b0df:	6d                   	ins    DWORD PTR es:[edi],dx
  10b0e0:	65 62 75 66          	bound  esi,QWORD PTR gs:[ebp+0x66]
  10b0e4:	66 65 72 5f          	data16 gs jb 0x10b147
  10b0e8:	73 69                	jae    0x10b153
  10b0ea:	7a 65                	jp     0x10b151
  10b0ec:	00 76 67             	add    BYTE PTR [esi+0x67],dh
  10b0ef:	61                   	popa
  10b0f0:	5f                   	pop    edi
  10b0f1:	70 75                	jo     0x10b168
  10b0f3:	74 63                	je     0x10b158
  10b0f5:	68 61 72 00 62       	push   0x62007261
  10b0fa:	67 61                	addr16 popa
  10b0fc:	5f                   	pop    edi
  10b0fd:	67 65 74 5f          	addr16 gs je 0x10b160
  10b101:	66 72 61             	data16 jb 0x10b165
  10b104:	6d                   	ins    DWORD PTR es:[edi],dx
  10b105:	65 62 75 66          	bound  esi,QWORD PTR gs:[ebp+0x66]
  10b109:	66 65 72 5f          	data16 gs jb 0x10b16c
  10b10d:	61                   	popa
  10b10e:	64 64 72 00          	fs fs jb 0x10b112
  10b112:	76 62                	jbe    0x10b176
  10b114:	65 5f                	gs pop edi
  10b116:	70 72                	jo     0x10b18a
  10b118:	69 6e 74 5f 61 74 00 	imul   ebp,DWORD PTR [esi+0x74],0x74615f
  10b11f:	64 72 61             	fs jb  0x10b183
  10b122:	77 5f                	ja     0x10b183
  10b124:	72 65                	jb     0x10b18b
  10b126:	63 74 5f 66          	arpl   WORD PTR [edi+ebx*2+0x66],esi
  10b12a:	69 6c 6c 65 64 00 76 	imul   ebp,DWORD PTR [esp+ebp*2+0x65],0x62760064
  10b131:	62 
  10b132:	65 5f                	gs pop edi
  10b134:	70 72                	jo     0x10b1a8
  10b136:	69 6e 74 00 73 77 69 	imul   ebp,DWORD PTR [esi+0x74],0x69777300
  10b13d:	74 63                	je     0x10b1a2
  10b13f:	68 5f 74 6f 5f       	push   0x5f6f745f
  10b144:	74 61                	je     0x10b1a7
  10b146:	73 6b                	jae    0x10b1b3
  10b148:	00 6b 6d             	add    BYTE PTR [ebx+0x6d],ch
  10b14b:	61                   	popa
  10b14c:	6c                   	ins    BYTE PTR es:[edi],dx
  10b14d:	6c                   	ins    BYTE PTR es:[edi],dx
  10b14e:	6f                   	outs   dx,DWORD PTR ds:[esi]
  10b14f:	63 00                	arpl   WORD PTR [eax],eax
  10b151:	6d                   	ins    DWORD PTR es:[edi],dx
  10b152:	6f                   	outs   dx,DWORD PTR ds:[esi]
  10b153:	75 73                	jne    0x10b1c8
  10b155:	65 5f                	gs pop edi
  10b157:	79 00                	jns    0x10b159
  10b159:	6d                   	ins    DWORD PTR es:[edi],dx
  10b15a:	6f                   	outs   dx,DWORD PTR ds:[esi]
  10b15b:	75 73                	jne    0x10b1d0
  10b15d:	65 5f                	gs pop edi
  10b15f:	69 6e 69 74 00 6f 72 	imul   ebp,DWORD PTR [esi+0x69],0x726f0074
  10b166:	62 69 74             	bound  ebp,QWORD PTR [ecx+0x74]
  10b169:	5f                   	pop    edi
  10b16a:	6d                   	ins    DWORD PTR es:[edi],dx
  10b16b:	6f                   	outs   dx,DWORD PTR ds:[esi]
  10b16c:	64 75 6c             	fs jne 0x10b1db
  10b16f:	65 5f                	gs pop edi
  10b171:	61                   	popa
  10b172:	64 64 72 65          	fs fs jb 0x10b1db
  10b176:	73 73                	jae    0x10b1eb
  10b178:	00 62 67             	add    BYTE PTR [edx+0x67],ah
  10b17b:	61                   	popa
  10b17c:	5f                   	pop    edi
  10b17d:	72 65                	jb     0x10b1e4
  10b17f:	61                   	popa
  10b180:	64 5f                	fs pop edi
  10b182:	72 65                	jb     0x10b1e9
  10b184:	67 69 73 74 65 72 00 	imul   esi,DWORD PTR [bp+di+0x74],0x70007265
  10b18b:	70 
  10b18c:	61                   	popa
  10b18d:	67 69 6e 67 5f 65 6e 	imul   ebp,DWORD PTR [bp+0x67],0x616e655f
  10b194:	61 
  10b195:	62 6c 65 00          	bound  ebp,QWORD PTR [ebp+eiz*2+0x0]
  10b199:	76 67                	jbe    0x10b202
  10b19b:	61                   	popa
  10b19c:	5f                   	pop    edi
  10b19d:	64 72 61             	fs jb  0x10b201
  10b1a0:	77 5f                	ja     0x10b201
  10b1a2:	72 65                	jb     0x10b209
  10b1a4:	63 74 00 76          	arpl   WORD PTR [eax+eax*1+0x76],esi
  10b1a8:	62 65 5f             	bound  esp,QWORD PTR [ebp+0x5f]
  10b1ab:	67 65 74 5f          	addr16 gs je 0x10b20e
  10b1af:	68 65 69 67 68       	push   0x68676965
  10b1b4:	74 00                	je     0x10b1b6
  10b1b6:	67 64 74 5f          	addr16 fs je 0x10b219
  10b1ba:	73 65                	jae    0x10b221
  10b1bc:	74 5f                	je     0x10b21d
  10b1be:	65 6e                	outs   dx,BYTE PTR gs:[esi]
  10b1c0:	74 72                	je     0x10b234
  10b1c2:	79 00                	jns    0x10b1c4
  10b1c4:	76 67                	jbe    0x10b22d
  10b1c6:	61                   	popa
  10b1c7:	5f                   	pop    edi
  10b1c8:	70 75                	jo     0x10b23f
  10b1ca:	74 5f                	je     0x10b22b
  10b1cc:	68 65 78 00 69       	push   0x69007865
  10b1d1:	72 71                	jb     0x10b244
  10b1d3:	5f                   	pop    edi
  10b1d4:	6d                   	ins    DWORD PTR es:[edi],dx
  10b1d5:	61                   	popa
  10b1d6:	6e                   	outs   dx,BYTE PTR ds:[esi]
  10b1d7:	61                   	popa
  10b1d8:	67 65 72 5f          	addr16 gs jb 0x10b23b
  10b1dc:	69 6e 69 74 00 62 67 	imul   ebp,DWORD PTR [esi+0x69],0x67620074
  10b1e3:	61                   	popa
  10b1e4:	5f                   	pop    edi
  10b1e5:	64 72 61             	fs jb  0x10b249
  10b1e8:	77 5f                	ja     0x10b249
  10b1ea:	62 6d 70             	bound  ebp,QWORD PTR [ebp+0x70]
  10b1ed:	00 65 78             	add    BYTE PTR [ebp+0x78],ah
  10b1f0:	63 65 70             	arpl   WORD PTR [ebp+0x70],esp
  10b1f3:	74 69                	je     0x10b25e
  10b1f5:	6f                   	outs   dx,DWORD PTR ds:[esi]
  10b1f6:	6e                   	outs   dx,BYTE PTR ds:[esi]
  10b1f7:	5f                   	pop    edi
  10b1f8:	73 74                	jae    0x10b26e
  10b1fa:	75 62                	jne    0x10b25e
  10b1fc:	5f                   	pop    edi
  10b1fd:	30 00                	xor    BYTE PTR [eax],al
  10b1ff:	63 6c 65 61          	arpl   WORD PTR [ebp+eiz*2+0x61],ebp
  10b203:	72 5f                	jb     0x10b264
  10b205:	73 63                	jae    0x10b26a
  10b207:	72 65                	jb     0x10b26e
  10b209:	65 6e                	outs   dx,BYTE PTR gs:[esi]
  10b20b:	00 65 78             	add    BYTE PTR [ebp+0x78],ah
  10b20e:	63 65 70             	arpl   WORD PTR [ebp+0x70],esp
  10b211:	74 69                	je     0x10b27c
  10b213:	6f                   	outs   dx,DWORD PTR ds:[esi]
  10b214:	6e                   	outs   dx,BYTE PTR ds:[esi]
  10b215:	5f                   	pop    edi
  10b216:	73 74                	jae    0x10b28c
  10b218:	75 62                	jne    0x10b27c
  10b21a:	5f                   	pop    edi
  10b21b:	38 00                	cmp    BYTE PTR [eax],al
  10b21d:	76 67                	jbe    0x10b286
  10b21f:	61                   	popa
  10b220:	5f                   	pop    edi
  10b221:	70 72                	jo     0x10b295
  10b223:	69 6e 74 00 65 78 63 	imul   ebp,DWORD PTR [esi+0x74],0x63786500
  10b22a:	65 70 74             	gs jo  0x10b2a1
  10b22d:	69 6f 6e 5f 73 74 75 	imul   ebp,DWORD PTR [edi+0x6e],0x7574735f
  10b234:	62 5f 31             	bound  ebx,QWORD PTR [edi+0x31]
  10b237:	30 00                	xor    BYTE PTR [eax],al
  10b239:	65 78 63             	gs js  0x10b29f
  10b23c:	65 70 74             	gs jo  0x10b2b3
  10b23f:	69 6f 6e 5f 73 74 75 	imul   ebp,DWORD PTR [edi+0x6e],0x7574735f
  10b246:	62 5f 31             	bound  ebx,QWORD PTR [edi+0x31]
  10b249:	35 00 76 67 61       	xor    eax,0x61677600
  10b24e:	5f                   	pop    edi
  10b24f:	63 6c 65 61          	arpl   WORD PTR [ebp+eiz*2+0x61],ebp
  10b253:	72 00                	jb     0x10b255
  10b255:	65 78 63             	gs js  0x10b2bb
  10b258:	65 70 74             	gs jo  0x10b2cf
  10b25b:	69 6f 6e 5f 68 61 6e 	imul   ebp,DWORD PTR [edi+0x6e],0x6e61685f
  10b262:	64 6c                	fs ins BYTE PTR es:[edi],dx
  10b264:	65 72 00             	gs jb  0x10b267
  10b267:	00 2e                	add    BYTE PTR [esi],ch
  10b269:	73 79                	jae    0x10b2e4
  10b26b:	6d                   	ins    DWORD PTR es:[edi],dx
  10b26c:	74 61                	je     0x10b2cf
  10b26e:	62 00                	bound  eax,QWORD PTR [eax]
  10b270:	2e 73 74             	cs jae 0x10b2e7
  10b273:	72 74                	jb     0x10b2e9
  10b275:	61                   	popa
  10b276:	62 00                	bound  eax,QWORD PTR [eax]
  10b278:	2e 73 68             	cs jae 0x10b2e3
  10b27b:	73 74                	jae    0x10b2f1
  10b27d:	72 74                	jb     0x10b2f3
  10b27f:	61                   	popa
  10b280:	62 00                	bound  eax,QWORD PTR [eax]
  10b282:	2e 74 65             	cs je  0x10b2ea
  10b285:	78 74                	js     0x10b2fb
  10b287:	00 2e                	add    BYTE PTR [esi],ch
  10b289:	72 6f                	jb     0x10b2fa
  10b28b:	64 61                	fs popa
  10b28d:	74 61                	je     0x10b2f0
  10b28f:	00 2e                	add    BYTE PTR [esi],ch
  10b291:	64 61                	fs popa
  10b293:	74 61                	je     0x10b2f6
  10b295:	00 2e                	add    BYTE PTR [esi],ch
  10b297:	62 73 73             	bound  esi,QWORD PTR [ebx+0x73]
  10b29a:	00 2e                	add    BYTE PTR [esi],ch
  10b29c:	63 6f 6d             	arpl   WORD PTR [edi+0x6d],ebp
  10b29f:	6d                   	ins    DWORD PTR es:[edi],dx
  10b2a0:	65 6e                	outs   dx,BYTE PTR gs:[esi]
  10b2a2:	74 00                	je     0x10b2a4
	...
  10b2cc:	1b 00                	sbb    eax,DWORD PTR [eax]
  10b2ce:	00 00                	add    BYTE PTR [eax],al
  10b2d0:	01 00                	add    DWORD PTR [eax],eax
  10b2d2:	00 00                	add    BYTE PTR [eax],al
  10b2d4:	06                   	push   es
  10b2d5:	00 00                	add    BYTE PTR [eax],al
  10b2d7:	00 00                	add    BYTE PTR [eax],al
  10b2d9:	00 10                	add    BYTE PTR [eax],dl
  10b2db:	00 00                	add    BYTE PTR [eax],al
  10b2dd:	10 00                	adc    BYTE PTR [eax],al
  10b2df:	00 dd                	add    ch,bl
  10b2e1:	57                   	push   edi
	...
  10b2ea:	00 00                	add    BYTE PTR [eax],al
  10b2ec:	00 10                	add    BYTE PTR [eax],dl
  10b2ee:	00 00                	add    BYTE PTR [eax],al
  10b2f0:	00 00                	add    BYTE PTR [eax],al
  10b2f2:	00 00                	add    BYTE PTR [eax],al
  10b2f4:	21 00                	and    DWORD PTR [eax],eax
  10b2f6:	00 00                	add    BYTE PTR [eax],al
  10b2f8:	01 00                	add    DWORD PTR [eax],eax
  10b2fa:	00 00                	add    BYTE PTR [eax],al
  10b2fc:	02 00                	add    al,BYTE PTR [eax]
  10b2fe:	00 00                	add    BYTE PTR [eax],al
  10b300:	e0 57                	loopne 0x10b359
  10b302:	10 00                	adc    BYTE PTR [eax],al
  10b304:	e0 67                	loopne 0x10b36d
  10b306:	00 00                	add    BYTE PTR [eax],al
  10b308:	96                   	xchg   esi,eax
  10b309:	19 00                	sbb    DWORD PTR [eax],eax
	...
  10b313:	00 20                	add    BYTE PTR [eax],ah
  10b315:	00 00                	add    BYTE PTR [eax],al
  10b317:	00 00                	add    BYTE PTR [eax],al
  10b319:	00 00                	add    BYTE PTR [eax],al
  10b31b:	00 29                	add    BYTE PTR [ecx],ch
  10b31d:	00 00                	add    BYTE PTR [eax],al
  10b31f:	00 01                	add    BYTE PTR [ecx],al
  10b321:	00 00                	add    BYTE PTR [eax],al
  10b323:	00 03                	add    BYTE PTR [ebx],al
  10b325:	00 00                	add    BYTE PTR [eax],al
  10b327:	00 00                	add    BYTE PTR [eax],al
  10b329:	80 10 00             	adc    BYTE PTR [eax],0x0
  10b32c:	00 90 00 00 3c 00    	add    BYTE PTR [eax+0x3c0000],dl
	...
  10b33a:	00 00                	add    BYTE PTR [eax],al
  10b33c:	00 10                	add    BYTE PTR [eax],dl
  10b33e:	00 00                	add    BYTE PTR [eax],al
  10b340:	00 00                	add    BYTE PTR [eax],al
  10b342:	00 00                	add    BYTE PTR [eax],al
  10b344:	2f                   	das
  10b345:	00 00                	add    BYTE PTR [eax],al
  10b347:	00 08                	add    BYTE PTR [eax],cl
  10b349:	00 00                	add    BYTE PTR [eax],al
  10b34b:	00 03                	add    BYTE PTR [ebx],al
  10b34d:	00 00                	add    BYTE PTR [eax],al
  10b34f:	00 00                	add    BYTE PTR [eax],al
  10b351:	90                   	nop
  10b352:	10 00                	adc    BYTE PTR [eax],al
  10b354:	3c 90                	cmp    al,0x90
  10b356:	00 00                	add    BYTE PTR [eax],al
  10b358:	ec                   	in     al,dx
  10b359:	0b 01                	or     eax,DWORD PTR [ecx]
	...
  10b363:	00 00                	add    BYTE PTR [eax],al
  10b365:	10 00                	adc    BYTE PTR [eax],al
  10b367:	00 00                	add    BYTE PTR [eax],al
  10b369:	00 00                	add    BYTE PTR [eax],al
  10b36b:	00 34 00             	add    BYTE PTR [eax+eax*1],dh
  10b36e:	00 00                	add    BYTE PTR [eax],al
  10b370:	01 00                	add    DWORD PTR [eax],eax
  10b372:	00 00                	add    BYTE PTR [eax],al
  10b374:	30 00                	xor    BYTE PTR [eax],al
  10b376:	00 00                	add    BYTE PTR [eax],al
  10b378:	00 00                	add    BYTE PTR [eax],al
  10b37a:	00 00                	add    BYTE PTR [eax],al
  10b37c:	3c 90                	cmp    al,0x90
  10b37e:	00 00                	add    BYTE PTR [eax],al
  10b380:	12 00                	adc    al,BYTE PTR [eax]
	...
  10b38a:	00 00                	add    BYTE PTR [eax],al
  10b38c:	01 00                	add    DWORD PTR [eax],eax
  10b38e:	00 00                	add    BYTE PTR [eax],al
  10b390:	01 00                	add    DWORD PTR [eax],eax
  10b392:	00 00                	add    BYTE PTR [eax],al
  10b394:	01 00                	add    DWORD PTR [eax],eax
  10b396:	00 00                	add    BYTE PTR [eax],al
  10b398:	02 00                	add    al,BYTE PTR [eax]
	...
  10b3a2:	00 00                	add    BYTE PTR [eax],al
  10b3a4:	50                   	push   eax
  10b3a5:	90                   	nop
  10b3a6:	00 00                	add    BYTE PTR [eax],al
  10b3a8:	00 13                	add    BYTE PTR [ebx],dl
  10b3aa:	00 00                	add    BYTE PTR [eax],al
  10b3ac:	07                   	pop    es
  10b3ad:	00 00                	add    BYTE PTR [eax],al
  10b3af:	00 96 00 00 00 04    	add    BYTE PTR [esi+0x4000000],dl
  10b3b5:	00 00                	add    BYTE PTR [eax],al
  10b3b7:	00 10                	add    BYTE PTR [eax],dl
  10b3b9:	00 00                	add    BYTE PTR [eax],al
  10b3bb:	00 09                	add    BYTE PTR [ecx],cl
  10b3bd:	00 00                	add    BYTE PTR [eax],al
  10b3bf:	00 03                	add    BYTE PTR [ebx],al
	...
  10b3c9:	00 00                	add    BYTE PTR [eax],al
  10b3cb:	00 50 a3             	add    BYTE PTR [eax-0x5d],dl
  10b3ce:	00 00                	add    BYTE PTR [eax],al
  10b3d0:	17                   	pop    ss
  10b3d1:	0f 00 00             	sldt   WORD PTR [eax]
	...
  10b3dc:	01 00                	add    DWORD PTR [eax],eax
  10b3de:	00 00                	add    BYTE PTR [eax],al
  10b3e0:	00 00                	add    BYTE PTR [eax],al
  10b3e2:	00 00                	add    BYTE PTR [eax],al
  10b3e4:	11 00                	adc    DWORD PTR [eax],eax
  10b3e6:	00 00                	add    BYTE PTR [eax],al
  10b3e8:	03 00                	add    eax,DWORD PTR [eax]
	...
  10b3f2:	00 00                	add    BYTE PTR [eax],al
  10b3f4:	67 b2 00             	addr16 mov dl,0x0
  10b3f7:	00 3d 00 00 00 00    	add    BYTE PTR ds:0x0,bh
  10b3fd:	00 00                	add    BYTE PTR [eax],al
  10b3ff:	00 00                	add    BYTE PTR [eax],al
  10b401:	00 00                	add    BYTE PTR [eax],al
  10b403:	00 01                	add    BYTE PTR [ecx],al
  10b405:	00 00                	add    BYTE PTR [eax],al
  10b407:	00 00                	add    BYTE PTR [eax],al
  10b409:	00 00                	add    BYTE PTR [eax],al
	...
